(dp1
S'output'
p2
S"<type 'exceptions.ValueError'> too many values to unpack"
p3
sS'layer'
p4
S'/home/perdomor/web2py/applications/sicoin/models/db.py'
p5
sS'code'
p6
S'# -*- coding: utf-8 -*-\n\n#########################################################################\n## This scaffolding model makes your app work on Google App Engine too\n## File is released under public domain and you can use without limitations\n#########################################################################\n\n## if SSL/HTTPS is properly configured and you want all HTTP requests to\n## be redirected to HTTPS, uncomment the line below:\n# request.requires_https()\n\nif not request.env.web2py_runtime_gae:\n    ## if NOT running on Google App Engine use SQLite or other DB\n    db = DAL(\'mysql://root:12345@localhost/db_sicoin\')\nelse:\n    ## connect to Google BigTable (optional \'google:datastore://namespace\')\n    db = DAL(\'google:datastore\')\n    ## store sessions and tickets there\n    session.connect(request, response, db = db)\n    ## or store session in Memcache, Redis, etc.\n    ## from gluon.contrib.memdb import MEMDB\n    ## from google.appengine.api.memcache import Client\n    ## session.connect(request, response, db = MEMDB(Client()))\n\n## by default give a view/generic.extension to all actions from localhost\n## none otherwise. a pattern can be \'controller/function.extension\'\nresponse.generic_patterns = [\'*\'] if request.is_local else []\n## (optional) optimize handling of static files\n# response.optimize_css = \'concat,minify,inline\'\n# response.optimize_js = \'concat,minify,inline\'\n\n#########################################################################\n## Here is sample code if you need for\n## - email capabilities\n## - authentication (registration, login, logout, ... )\n## - authorization (role based authorization)\n## - services (xml, csv, json, xmlrpc, jsonrpc, amf, rss)\n## - old style crud actions\n## (more options discussed in gluon/tools.py)\n#########################################################################\n\ndb.define_table(\'dependencia\',\n    Field(\'nombre\', \'string\', length=100, required= True, notnull=True, unique=True),\n    format = "%(nombre)s",\n    singular = "Dependencia",\n    plural = "Dependencias",    \n)\n\ndb.define_table(\'departamento\',\n    Field(\'nombre\', \'string\', length=100, required= True, notnull=True, unique=True),\n    Field(\'dependencia\', \'reference dependencia\'),\n    format = "%(nombre)s",\n    singular = "Departamento",\n    plural = "Departamentos",    \n)\n\n\nfrom gluon.tools import Auth, Crud, Service, PluginManager, prettydate\nauth = Auth(db)\ncrud, service, plugins = Crud(db), Service(), PluginManager()\n\n## create all tables needed by auth if not custom tables\n# after\n# auth = Auth(globals(),db)\n#db.define_table(\n#    auth.settings.table_user_name,\n#    Field(\'first_name\', length=128, label = \'nombre\'),\n#    Field(\'last_name\', length=128, label = \'apellido\'),\n#    Field(\'email\', length=128, unique=True),\n#    Field(\'password\', \'password\', length=512, readable=False, label=\'Password\'),\n#    Field(\'registration_key\', length=512, writable=False, readable=False, default=\'\'),\n#    Field(\'reset_password_key\', length=512, writable=False, readable=False, default=\'\'),\n#    Field(\'registration_id\', length=512, writable=False, readable=False, default=\'\'),\n#    Field(\'departamento\', \'reference departamento\'),\n#    )\n#    \n#custom_auth_table = db[auth.settings.table_user_name] # get the custom_auth_table\n#custom_auth_table.first_name.requires = IS_NOT_EMPTY(error_message=auth.messages.is_empty)\n#custom_auth_table.last_name.requires = IS_NOT_EMPTY(error_message=auth.messages.is_empty)\n#custom_auth_table.password.requires = [CRYPT()]\n#custom_auth_table.email.requires = [IS_EMAIL(error_message=auth.messages.invalid_email),\n#                                    IS_NOT_IN_DB(db, custom_auth_table.email)]\n#auth.settings.table_user = custom_auth_table # tell auth to use custom_auth_table\n# before\n# auth.define_tables()\nauth.settings.extra_fields[\'auth_user\'] = [Field(\'departamento\', \'reference departamento\')]\nauth.define_tables(username=False, signature=False)\n\n## configure email\nmail=auth.settings.mailer\nmail.settings.server = \'logging\' or \'smtp.gmail.com:587\'\nmail.settings.sender = \'you@gmail.com\'\nmail.settings.login = \'username:password\'\n\n## configure auth policy\nauth.settings.registration_requires_verification = False\nauth.settings.registration_requires_approval = False\nauth.settings.reset_password_requires_verification = True\n#db.auth_user._format = \'%(first_name)s %(last_name)s\'\n\n## if you need to use OpenID, Facebook, MySpace, Twitter, Linkedin, etc.\n## register with janrain.com, write your domain:api_key in private/janrain.key\nfrom gluon.contrib.login_methods.rpx_account import use_janrain\nuse_janrain(auth,filename=\'private/janrain.key\')\n\n#########################################################################\n## Define your tables below (or better in another model file) for example\n##\n## >>> db.define_table(\'mytable\',Field(\'myfield\',\'string\'))\n##\n## Fields can be \'string\',\'text\',\'password\',\'integer\',\'double\',\'boolean\'\n##       \'date\',\'time\',\'datetime\',\'blob\',\'upload\', \'reference TABLENAME\'\n## There is an implicit \'id integer autoincrement\' field\n## Consult manual for more options, validators, etc.\n##\n## More API examples for controllers:\n##\n## >>> db.mytable.insert(myfield=\'value\')\n## >>> rows=db(db.mytable.myfield==\'value\').select(db.mytable.ALL)\n## >>> for row in rows: print row.id, row.myfield\n#########################################################################\n\n## after defining tables, uncomment below to enable auditing\n# auth.enable_record_versioning(db)\n\nmail.settings.server = settings.email_server\nmail.settings.sender = settings.email_sender\nmail.settings.login = settings.email_login\n\ndb.define_table(\'estatus\',\n    Field(\'tipo_estatus\', \'string\', length=100, required= True, notnull=True, unique=True),\n    format = "%(tipo_estatus)s",\n    singular = "Estatus",\n    plural = "Estatus",    \n)\n\ndb.define_table(\'documento\',\n    Field(\'tipo_de_documento\', \'string\', length=100, required= True, notnull=True, unique=True),\n    format = "%(tipo_de_documento)s",\n    singular = "Tipo de documento",\n    plural = "Tipos de documentos",    \n)\n\ndb.define_table(\'correspondencia\',\n    Field(\'nro_oficio\', \'string\', length=100, required= True, notnull=True, unique=True),\n    Field(\'fecha_registro\', \'datetime\', default=request.now,writable=False,readable=False),\n    Field(\'fecha_correspondencia\', \'date\', required= True, notnull=True),\n    Field(\'tipo_de_documento\', \'reference documento\'),\n    Field(\'estatus\', \'reference estatus\'),\n    Field(\'origen\', \'string\', length=100, required= True, notnull=True),\n    Field(\'departamento_de_origen\', \'reference departamento\'),\n    Field(\'destino\', \'string\', length=100, required= True, notnull=True),\n    Field(\'departamento_destino\', \'reference departamento\'),\n    Field(\'motivo\', \'text\', length=250, notnull=True),\n    Field(\'asignado_a\', db.auth_user),\n    #, \'auth_user.id\', \'%(first_name)s %(last_name)s\')),\n    Field(\'registrado_por\', db.auth_user, default = (auth.user.id) if auth.user else None, writable=False,readable=False),\n    format = "%(nro_oficio)s",\n    singular = "Dependencia",\n    plural = "Dependencias",    \n)\n\n#db.correspondencia.asignado_a.requires = IS_IN_DB(db(db.auth_user.departamento==session.auth.user.departamento), db.auth_user.id) if auth.is_logged_in() else None\n\nif auth.is_logged_in():\n    db.correspondencia.asignado_a.requires=IS_IN_DB(db(db.auth_user.departamento==session.auth.user.departamento), \'db.auth_user.id\',\'%(first_name)s\')\n    \n#db.address.id_client.requires=IS_IN_DB(db(auth.accessible_query(\'read\',db.client)),\'client.id\',\'%(name)s\')\n'
p7
sS'snapshot'
p8
(dp9
S'exception'
p10
(dp11
S'__hash__'
p12
S"<method-wrapper '__hash__' of exceptions.ValueError object>"
p13
sS'__setattr__'
p14
S"<method-wrapper '__setattr__' of exceptions.ValueError object>"
p15
sS'__reduce_ex__'
p16
S'<built-in method __reduce_ex__ of exceptions.ValueError object>'
p17
sS'__getslice__'
p18
S"<method-wrapper '__getslice__' of exceptions.ValueError object>"
p19
sS'__getitem__'
p20
S"<method-wrapper '__getitem__' of exceptions.ValueError object>"
p21
sS'__setstate__'
p22
S'<built-in method __setstate__ of exceptions.ValueError object>'
p23
sS'__reduce__'
p24
S'<built-in method __reduce__ of exceptions.ValueError object>'
p25
sS'__str__'
p26
S"<method-wrapper '__str__' of exceptions.ValueError object>"
p27
sS'__format__'
p28
S'<built-in method __format__ of exceptions.ValueError object>'
p29
sS'__getattribute__'
p30
S"<method-wrapper '__getattribute__' of exceptions.ValueError object>"
p31
sS'__class__'
p32
S"<type 'exceptions.ValueError'>"
p33
sS'__unicode__'
p34
S'<built-in method __unicode__ of exceptions.ValueError object>'
p35
sS'__delattr__'
p36
S"<method-wrapper '__delattr__' of exceptions.ValueError object>"
p37
sS'__subclasshook__'
p38
S'<built-in method __subclasshook__ of type object>'
p39
sS'__repr__'
p40
S"<method-wrapper '__repr__' of exceptions.ValueError object>"
p41
sS'args'
p42
S"('too many values to unpack',)"
p43
sS'__dict__'
p44
S'{}'
p45
sS'__sizeof__'
p46
S'<built-in method __sizeof__ of exceptions.ValueError object>'
p47
sS'__doc__'
p48
S"'Inappropriate argument value (of correct type).'"
p49
sS'__init__'
p50
S"<method-wrapper '__init__' of exceptions.ValueError object>"
p51
sS'__new__'
p52
S'<built-in method __new__ of type object>'
p53
ssS'evalue'
p54
S'too many values to unpack'
p55
sS'request'
p56
ccopy_reg
_reconstructor
p57
(cgluon.html
BEAUTIFY
p58
c__builtin__
object
p59
NtRp60
(dp61
S'attributes'
p62
(dp63
sS'components'
p64
(lp65
g57
(cgluon.html
TABLE
p66
g59
NtRp67
(dp68
g62
(dp69
S'level'
p70
I5
ssS'parent'
p71
Nsg64
(lp72
g57
(cgluon.html
TR
p73
g59
NtRp74
(dp75
g62
(dp76
sg71
g67
sg64
(lp77
g57
(cgluon.html
TD
p78
g59
NtRp79
(dp80
g62
(dp81
S'_style'
p82
S'font-weight:bold;vertical-align:top'
p83
ssg71
g74
sg64
(lp84
S'ajax'
p85
asbag57
(g78
g59
NtRp86
(dp87
g62
(dp88
S'_valign'
p89
S'top'
p90
ssg71
g74
sg64
(lp91
S':'
asbag57
(g78
g59
NtRp92
(dp93
g62
(dp94
sg71
g74
sg64
(lp95
g57
(g58
g59
NtRp96
(dp97
g62
(dp98
g70
I5
ssg71
g92
sg64
(lp99
S'False'
p100
asbasbasbag57
(g73
g59
NtRp101
(dp102
g62
(dp103
sg71
g67
sg64
(lp104
g57
(g78
g59
NtRp105
(dp106
g62
(dp107
g82
g83
ssg71
g101
sg64
(lp108
S'application'
p109
asbag57
(g78
g59
NtRp110
(dp111
g62
(dp112
g89
g90
ssg71
g101
sg64
(lp113
S':'
asbag57
(g78
g59
NtRp114
(dp115
g62
(dp116
sg71
g101
sg64
(lp117
g57
(g58
g59
NtRp118
(dp119
g62
(dp120
g70
I5
ssg71
g114
sg64
(lp121
S'sicoin'
p122
asbasbasbag57
(g73
g59
NtRp123
(dp124
g62
(dp125
sg71
g67
sg64
(lp126
g57
(g78
g59
NtRp127
(dp128
g62
(dp129
g82
g83
ssg71
g123
sg64
(lp130
g42
asbag57
(g78
g59
NtRp131
(dp132
g62
(dp133
g89
g90
ssg71
g123
sg64
(lp134
S':'
asbag57
(g78
g59
NtRp135
(dp136
g62
(dp137
sg71
g123
sg64
(lp138
g57
(g58
g59
NtRp139
(dp140
g62
(dp141
g70
I5
ssg71
g135
sg64
(lp142
g57
(g66
g59
NtRp143
(dp144
g62
(dp145
g70
I4
ssg71
Nsg64
(lp146
g57
(g73
g59
NtRp147
(dp148
g62
(dp149
sg71
g143
sg64
(lp150
g57
(g78
g59
NtRp151
(dp152
g62
(dp153
sg71
g147
sg64
(lp154
g57
(g58
g59
NtRp155
(dp156
g62
(dp157
g70
I4
ssg71
g151
sg64
(lp158
S'new'
p159
asbasbasbag57
(g73
g59
NtRp160
(dp161
g62
(dp162
sg71
g143
sg64
(lp163
g57
(g78
g59
NtRp164
(dp165
g62
(dp166
sg71
g160
sg64
(lp167
g57
(g58
g59
NtRp168
(dp169
g62
(dp170
g70
I4
ssg71
g164
sg64
(lp171
S'correspondencia'
p172
asbasbasbasbasbasbasbag57
(g73
g59
NtRp173
(dp174
g62
(dp175
sg71
g67
sg64
(lp176
g57
(g78
g59
NtRp177
(dp178
g62
(dp179
g82
g83
ssg71
g173
sg64
(lp180
S'body'
p181
asbag57
(g78
g59
NtRp182
(dp183
g62
(dp184
g89
g90
ssg71
g173
sg64
(lp185
S':'
asbag57
(g78
g59
NtRp186
(dp187
g62
(dp188
sg71
g173
sg64
(lp189
g57
(g58
g59
NtRp190
(dp191
g62
(dp192
g70
I5
ssg71
g186
sg64
(lp193
S'<cStringIO.StringO object at 0xa6bd5e0>'
p194
asbasbasbag57
(g73
g59
NtRp195
(dp196
g62
(dp197
sg71
g67
sg64
(lp198
g57
(g78
g59
NtRp199
(dp200
g62
(dp201
g82
g83
ssg71
g195
sg64
(lp202
S'cid'
p203
asbag57
(g78
g59
NtRp204
(dp205
g62
(dp206
g89
g90
ssg71
g195
sg64
(lp207
S':'
asbag57
(g78
g59
NtRp208
(dp209
g62
(dp210
sg71
g195
sg64
(lp211
g57
(g58
g59
NtRp212
(dp213
g62
(dp214
g70
I5
ssg71
g208
sg64
(lp215
S'None'
p216
asbasbasbag57
(g73
g59
NtRp217
(dp218
g62
(dp219
sg71
g67
sg64
(lp220
g57
(g78
g59
NtRp221
(dp222
g62
(dp223
g82
g83
ssg71
g217
sg64
(lp224
S'client'
p225
asbag57
(g78
g59
NtRp226
(dp227
g62
(dp228
g89
g90
ssg71
g217
sg64
(lp229
S':'
asbag57
(g78
g59
NtRp230
(dp231
g62
(dp232
sg71
g217
sg64
(lp233
g57
(g58
g59
NtRp234
(dp235
g62
(dp236
g70
I5
ssg71
g230
sg64
(lp237
S'127.0.0.1'
p238
asbasbasbag57
(g73
g59
NtRp239
(dp240
g62
(dp241
sg71
g67
sg64
(lp242
g57
(g78
g59
NtRp243
(dp244
g62
(dp245
g82
g83
ssg71
g239
sg64
(lp246
S'controller'
p247
asbag57
(g78
g59
NtRp248
(dp249
g62
(dp250
g89
g90
ssg71
g239
sg64
(lp251
S':'
asbag57
(g78
g59
NtRp252
(dp253
g62
(dp254
sg71
g239
sg64
(lp255
g57
(g58
g59
NtRp256
(dp257
g62
(dp258
g70
I5
ssg71
g252
sg64
(lp259
S'correspondencia'
p260
asbasbasbag57
(g73
g59
NtRp261
(dp262
g62
(dp263
sg71
g67
sg64
(lp264
g57
(g78
g59
NtRp265
(dp266
g62
(dp267
g82
g83
ssg71
g261
sg64
(lp268
S'cookies'
p269
asbag57
(g78
g59
NtRp270
(dp271
g62
(dp272
g89
g90
ssg71
g261
sg64
(lp273
S':'
asbag57
(g78
g59
NtRp274
(dp275
g62
(dp276
sg71
g261
sg64
(lp277
g57
(g58
g59
NtRp278
(dp279
g62
(dp280
g70
I5
ssg71
g274
sg64
(lp281
g57
(g66
g59
NtRp282
(dp283
g62
(dp284
g70
I4
ssg71
Nsg64
(lp285
g57
(g73
g59
NtRp286
(dp287
g62
(dp288
sg71
g282
sg64
(lp289
g57
(g78
g59
NtRp290
(dp291
g62
(dp292
g82
g83
ssg71
g286
sg64
(lp293
S'session_id_admin'
p294
asbag57
(g78
g59
NtRp295
(dp296
g62
(dp297
g89
g90
ssg71
g286
sg64
(lp298
S':'
asbag57
(g78
g59
NtRp299
(dp300
g62
(dp301
sg71
g286
sg64
(lp302
g57
(g58
g59
NtRp303
(dp304
g62
(dp305
g70
I4
ssg71
g299
sg64
(lp306
S'127.0.0.1-83efe7b8-dd3a-446c-a0a2-baea6af89c98'
p307
ag57
(g66
g59
NtRp308
(dp309
g62
(dp310
g70
I3
ssg71
Nsg64
(lp311
g57
(g73
g59
NtRp312
(dp313
g62
(dp314
sg71
g308
sg64
(lp315
g57
(g78
g59
NtRp316
(dp317
g62
(dp318
g82
g83
ssg71
g312
sg64
(lp319
S'comment'
p320
asbag57
(g78
g59
NtRp321
(dp322
g62
(dp323
g89
g90
ssg71
g312
sg64
(lp324
S':'
asbag57
(g78
g59
NtRp325
(dp326
g62
(dp327
sg71
g312
sg64
(lp328
g57
(g58
g59
NtRp329
(dp330
g62
(dp331
g70
I3
ssg71
g325
sg64
(lp332
S''
asbasbasbag57
(g73
g59
NtRp333
(dp334
g62
(dp335
sg71
g308
sg64
(lp336
g57
(g78
g59
NtRp337
(dp338
g62
(dp339
g82
g83
ssg71
g333
sg64
(lp340
S'domain'
p341
asbag57
(g78
g59
NtRp342
(dp343
g62
(dp344
g89
g90
ssg71
g333
sg64
(lp345
S':'
asbag57
(g78
g59
NtRp346
(dp347
g62
(dp348
sg71
g333
sg64
(lp349
g57
(g58
g59
NtRp350
(dp351
g62
(dp352
g70
I3
ssg71
g346
sg64
(lp353
S''
asbasbasbag57
(g73
g59
NtRp354
(dp355
g62
(dp356
sg71
g308
sg64
(lp357
g57
(g78
g59
NtRp358
(dp359
g62
(dp360
g82
g83
ssg71
g354
sg64
(lp361
S'expires'
p362
asbag57
(g78
g59
NtRp363
(dp364
g62
(dp365
g89
g90
ssg71
g354
sg64
(lp366
S':'
asbag57
(g78
g59
NtRp367
(dp368
g62
(dp369
sg71
g354
sg64
(lp370
g57
(g58
g59
NtRp371
(dp372
g62
(dp373
g70
I3
ssg71
g367
sg64
(lp374
S''
asbasbasbag57
(g73
g59
NtRp375
(dp376
g62
(dp377
sg71
g308
sg64
(lp378
g57
(g78
g59
NtRp379
(dp380
g62
(dp381
g82
g83
ssg71
g375
sg64
(lp382
S'httponly'
p383
asbag57
(g78
g59
NtRp384
(dp385
g62
(dp386
g89
g90
ssg71
g375
sg64
(lp387
S':'
asbag57
(g78
g59
NtRp388
(dp389
g62
(dp390
sg71
g375
sg64
(lp391
g57
(g58
g59
NtRp392
(dp393
g62
(dp394
g70
I3
ssg71
g388
sg64
(lp395
S''
asbasbasbag57
(g73
g59
NtRp396
(dp397
g62
(dp398
sg71
g308
sg64
(lp399
g57
(g78
g59
NtRp400
(dp401
g62
(dp402
g82
g83
ssg71
g396
sg64
(lp403
S'max-age'
p404
asbag57
(g78
g59
NtRp405
(dp406
g62
(dp407
g89
g90
ssg71
g396
sg64
(lp408
S':'
asbag57
(g78
g59
NtRp409
(dp410
g62
(dp411
sg71
g396
sg64
(lp412
g57
(g58
g59
NtRp413
(dp414
g62
(dp415
g70
I3
ssg71
g409
sg64
(lp416
S''
asbasbasbag57
(g73
g59
NtRp417
(dp418
g62
(dp419
sg71
g308
sg64
(lp420
g57
(g78
g59
NtRp421
(dp422
g62
(dp423
g82
g83
ssg71
g417
sg64
(lp424
S'path'
p425
asbag57
(g78
g59
NtRp426
(dp427
g62
(dp428
g89
g90
ssg71
g417
sg64
(lp429
S':'
asbag57
(g78
g59
NtRp430
(dp431
g62
(dp432
sg71
g417
sg64
(lp433
g57
(g58
g59
NtRp434
(dp435
g62
(dp436
g70
I3
ssg71
g430
sg64
(lp437
S''
asbasbasbag57
(g73
g59
NtRp438
(dp439
g62
(dp440
sg71
g308
sg64
(lp441
g57
(g78
g59
NtRp442
(dp443
g62
(dp444
g82
g83
ssg71
g438
sg64
(lp445
S'secure'
p446
asbag57
(g78
g59
NtRp447
(dp448
g62
(dp449
g89
g90
ssg71
g438
sg64
(lp450
S':'
asbag57
(g78
g59
NtRp451
(dp452
g62
(dp453
sg71
g438
sg64
(lp454
g57
(g58
g59
NtRp455
(dp456
g62
(dp457
g70
I3
ssg71
g451
sg64
(lp458
S''
asbasbasbag57
(g73
g59
NtRp459
(dp460
g62
(dp461
sg71
g308
sg64
(lp462
g57
(g78
g59
NtRp463
(dp464
g62
(dp465
g82
g83
ssg71
g459
sg64
(lp466
S'version'
p467
asbag57
(g78
g59
NtRp468
(dp469
g62
(dp470
g89
g90
ssg71
g459
sg64
(lp471
S':'
asbag57
(g78
g59
NtRp472
(dp473
g62
(dp474
sg71
g459
sg64
(lp475
g57
(g58
g59
NtRp476
(dp477
g62
(dp478
g70
I3
ssg71
g472
sg64
(lp479
S''
asbasbasbasbasbasbasbag57
(g73
g59
NtRp480
(dp481
g62
(dp482
sg71
g282
sg64
(lp483
g57
(g78
g59
NtRp484
(dp485
g62
(dp486
g82
g83
ssg71
g480
sg64
(lp487
S'session_id_sicoin'
p488
asbag57
(g78
g59
NtRp489
(dp490
g62
(dp491
g89
g90
ssg71
g480
sg64
(lp492
S':'
asbag57
(g78
g59
NtRp493
(dp494
g62
(dp495
sg71
g480
sg64
(lp496
g57
(g58
g59
NtRp497
(dp498
g62
(dp499
g70
I4
ssg71
g493
sg64
(lp500
S'127.0.0.1-9e81c5b9-74a6-4cb3-a080-38c8aad87ca9'
p501
ag57
(g66
g59
NtRp502
(dp503
g62
(dp504
g70
I3
ssg71
Nsg64
(lp505
g57
(g73
g59
NtRp506
(dp507
g62
(dp508
sg71
g502
sg64
(lp509
g57
(g78
g59
NtRp510
(dp511
g62
(dp512
g82
g83
ssg71
g506
sg64
(lp513
g320
asbag57
(g78
g59
NtRp514
(dp515
g62
(dp516
g89
g90
ssg71
g506
sg64
(lp517
S':'
asbag57
(g78
g59
NtRp518
(dp519
g62
(dp520
sg71
g506
sg64
(lp521
g57
(g58
g59
NtRp522
(dp523
g62
(dp524
g70
I3
ssg71
g518
sg64
(lp525
S''
asbasbasbag57
(g73
g59
NtRp526
(dp527
g62
(dp528
sg71
g502
sg64
(lp529
g57
(g78
g59
NtRp530
(dp531
g62
(dp532
g82
g83
ssg71
g526
sg64
(lp533
g341
asbag57
(g78
g59
NtRp534
(dp535
g62
(dp536
g89
g90
ssg71
g526
sg64
(lp537
S':'
asbag57
(g78
g59
NtRp538
(dp539
g62
(dp540
sg71
g526
sg64
(lp541
g57
(g58
g59
NtRp542
(dp543
g62
(dp544
g70
I3
ssg71
g538
sg64
(lp545
S''
asbasbasbag57
(g73
g59
NtRp546
(dp547
g62
(dp548
sg71
g502
sg64
(lp549
g57
(g78
g59
NtRp550
(dp551
g62
(dp552
g82
g83
ssg71
g546
sg64
(lp553
g362
asbag57
(g78
g59
NtRp554
(dp555
g62
(dp556
g89
g90
ssg71
g546
sg64
(lp557
S':'
asbag57
(g78
g59
NtRp558
(dp559
g62
(dp560
sg71
g546
sg64
(lp561
g57
(g58
g59
NtRp562
(dp563
g62
(dp564
g70
I3
ssg71
g558
sg64
(lp565
S''
asbasbasbag57
(g73
g59
NtRp566
(dp567
g62
(dp568
sg71
g502
sg64
(lp569
g57
(g78
g59
NtRp570
(dp571
g62
(dp572
g82
g83
ssg71
g566
sg64
(lp573
g383
asbag57
(g78
g59
NtRp574
(dp575
g62
(dp576
g89
g90
ssg71
g566
sg64
(lp577
S':'
asbag57
(g78
g59
NtRp578
(dp579
g62
(dp580
sg71
g566
sg64
(lp581
g57
(g58
g59
NtRp582
(dp583
g62
(dp584
g70
I3
ssg71
g578
sg64
(lp585
S''
asbasbasbag57
(g73
g59
NtRp586
(dp587
g62
(dp588
sg71
g502
sg64
(lp589
g57
(g78
g59
NtRp590
(dp591
g62
(dp592
g82
g83
ssg71
g586
sg64
(lp593
g404
asbag57
(g78
g59
NtRp594
(dp595
g62
(dp596
g89
g90
ssg71
g586
sg64
(lp597
S':'
asbag57
(g78
g59
NtRp598
(dp599
g62
(dp600
sg71
g586
sg64
(lp601
g57
(g58
g59
NtRp602
(dp603
g62
(dp604
g70
I3
ssg71
g598
sg64
(lp605
S''
asbasbasbag57
(g73
g59
NtRp606
(dp607
g62
(dp608
sg71
g502
sg64
(lp609
g57
(g78
g59
NtRp610
(dp611
g62
(dp612
g82
g83
ssg71
g606
sg64
(lp613
g425
asbag57
(g78
g59
NtRp614
(dp615
g62
(dp616
g89
g90
ssg71
g606
sg64
(lp617
S':'
asbag57
(g78
g59
NtRp618
(dp619
g62
(dp620
sg71
g606
sg64
(lp621
g57
(g58
g59
NtRp622
(dp623
g62
(dp624
g70
I3
ssg71
g618
sg64
(lp625
S''
asbasbasbag57
(g73
g59
NtRp626
(dp627
g62
(dp628
sg71
g502
sg64
(lp629
g57
(g78
g59
NtRp630
(dp631
g62
(dp632
g82
g83
ssg71
g626
sg64
(lp633
g446
asbag57
(g78
g59
NtRp634
(dp635
g62
(dp636
g89
g90
ssg71
g626
sg64
(lp637
S':'
asbag57
(g78
g59
NtRp638
(dp639
g62
(dp640
sg71
g626
sg64
(lp641
g57
(g58
g59
NtRp642
(dp643
g62
(dp644
g70
I3
ssg71
g638
sg64
(lp645
S''
asbasbasbag57
(g73
g59
NtRp646
(dp647
g62
(dp648
sg71
g502
sg64
(lp649
g57
(g78
g59
NtRp650
(dp651
g62
(dp652
g82
g83
ssg71
g646
sg64
(lp653
g467
asbag57
(g78
g59
NtRp654
(dp655
g62
(dp656
g89
g90
ssg71
g646
sg64
(lp657
S':'
asbag57
(g78
g59
NtRp658
(dp659
g62
(dp660
sg71
g646
sg64
(lp661
g57
(g58
g59
NtRp662
(dp663
g62
(dp664
g70
I3
ssg71
g658
sg64
(lp665
S''
asbasbasbasbasbasbasbag57
(g73
g59
NtRp666
(dp667
g62
(dp668
sg71
g282
sg64
(lp669
g57
(g78
g59
NtRp670
(dp671
g62
(dp672
g82
g83
ssg71
g666
sg64
(lp673
S'session_id_welcome'
p674
asbag57
(g78
g59
NtRp675
(dp676
g62
(dp677
g89
g90
ssg71
g666
sg64
(lp678
S':'
asbag57
(g78
g59
NtRp679
(dp680
g62
(dp681
sg71
g666
sg64
(lp682
g57
(g58
g59
NtRp683
(dp684
g62
(dp685
g70
I4
ssg71
g679
sg64
(lp686
S'127.0.0.1-17b5c7a0-2249-4763-b440-25be2adb74fb'
p687
ag57
(g66
g59
NtRp688
(dp689
g62
(dp690
g70
I3
ssg71
Nsg64
(lp691
g57
(g73
g59
NtRp692
(dp693
g62
(dp694
sg71
g688
sg64
(lp695
g57
(g78
g59
NtRp696
(dp697
g62
(dp698
g82
g83
ssg71
g692
sg64
(lp699
g320
asbag57
(g78
g59
NtRp700
(dp701
g62
(dp702
g89
g90
ssg71
g692
sg64
(lp703
S':'
asbag57
(g78
g59
NtRp704
(dp705
g62
(dp706
sg71
g692
sg64
(lp707
g57
(g58
g59
NtRp708
(dp709
g62
(dp710
g70
I3
ssg71
g704
sg64
(lp711
S''
asbasbasbag57
(g73
g59
NtRp712
(dp713
g62
(dp714
sg71
g688
sg64
(lp715
g57
(g78
g59
NtRp716
(dp717
g62
(dp718
g82
g83
ssg71
g712
sg64
(lp719
g341
asbag57
(g78
g59
NtRp720
(dp721
g62
(dp722
g89
g90
ssg71
g712
sg64
(lp723
S':'
asbag57
(g78
g59
NtRp724
(dp725
g62
(dp726
sg71
g712
sg64
(lp727
g57
(g58
g59
NtRp728
(dp729
g62
(dp730
g70
I3
ssg71
g724
sg64
(lp731
S''
asbasbasbag57
(g73
g59
NtRp732
(dp733
g62
(dp734
sg71
g688
sg64
(lp735
g57
(g78
g59
NtRp736
(dp737
g62
(dp738
g82
g83
ssg71
g732
sg64
(lp739
g362
asbag57
(g78
g59
NtRp740
(dp741
g62
(dp742
g89
g90
ssg71
g732
sg64
(lp743
S':'
asbag57
(g78
g59
NtRp744
(dp745
g62
(dp746
sg71
g732
sg64
(lp747
g57
(g58
g59
NtRp748
(dp749
g62
(dp750
g70
I3
ssg71
g744
sg64
(lp751
S''
asbasbasbag57
(g73
g59
NtRp752
(dp753
g62
(dp754
sg71
g688
sg64
(lp755
g57
(g78
g59
NtRp756
(dp757
g62
(dp758
g82
g83
ssg71
g752
sg64
(lp759
g383
asbag57
(g78
g59
NtRp760
(dp761
g62
(dp762
g89
g90
ssg71
g752
sg64
(lp763
S':'
asbag57
(g78
g59
NtRp764
(dp765
g62
(dp766
sg71
g752
sg64
(lp767
g57
(g58
g59
NtRp768
(dp769
g62
(dp770
g70
I3
ssg71
g764
sg64
(lp771
S''
asbasbasbag57
(g73
g59
NtRp772
(dp773
g62
(dp774
sg71
g688
sg64
(lp775
g57
(g78
g59
NtRp776
(dp777
g62
(dp778
g82
g83
ssg71
g772
sg64
(lp779
g404
asbag57
(g78
g59
NtRp780
(dp781
g62
(dp782
g89
g90
ssg71
g772
sg64
(lp783
S':'
asbag57
(g78
g59
NtRp784
(dp785
g62
(dp786
sg71
g772
sg64
(lp787
g57
(g58
g59
NtRp788
(dp789
g62
(dp790
g70
I3
ssg71
g784
sg64
(lp791
S''
asbasbasbag57
(g73
g59
NtRp792
(dp793
g62
(dp794
sg71
g688
sg64
(lp795
g57
(g78
g59
NtRp796
(dp797
g62
(dp798
g82
g83
ssg71
g792
sg64
(lp799
g425
asbag57
(g78
g59
NtRp800
(dp801
g62
(dp802
g89
g90
ssg71
g792
sg64
(lp803
S':'
asbag57
(g78
g59
NtRp804
(dp805
g62
(dp806
sg71
g792
sg64
(lp807
g57
(g58
g59
NtRp808
(dp809
g62
(dp810
g70
I3
ssg71
g804
sg64
(lp811
S''
asbasbasbag57
(g73
g59
NtRp812
(dp813
g62
(dp814
sg71
g688
sg64
(lp815
g57
(g78
g59
NtRp816
(dp817
g62
(dp818
g82
g83
ssg71
g812
sg64
(lp819
g446
asbag57
(g78
g59
NtRp820
(dp821
g62
(dp822
g89
g90
ssg71
g812
sg64
(lp823
S':'
asbag57
(g78
g59
NtRp824
(dp825
g62
(dp826
sg71
g812
sg64
(lp827
g57
(g58
g59
NtRp828
(dp829
g62
(dp830
g70
I3
ssg71
g824
sg64
(lp831
S''
asbasbasbag57
(g73
g59
NtRp832
(dp833
g62
(dp834
sg71
g688
sg64
(lp835
g57
(g78
g59
NtRp836
(dp837
g62
(dp838
g82
g83
ssg71
g832
sg64
(lp839
g467
asbag57
(g78
g59
NtRp840
(dp841
g62
(dp842
g89
g90
ssg71
g832
sg64
(lp843
S':'
asbag57
(g78
g59
NtRp844
(dp845
g62
(dp846
sg71
g832
sg64
(lp847
g57
(g58
g59
NtRp848
(dp849
g62
(dp850
g70
I3
ssg71
g844
sg64
(lp851
S''
asbasbasbasbasbasbasbasbasbasbasbag57
(g73
g59
NtRp852
(dp853
g62
(dp854
sg71
g67
sg64
(lp855
g57
(g78
g59
NtRp856
(dp857
g62
(dp858
g82
g83
ssg71
g852
sg64
(lp859
S'env'
p860
asbag57
(g78
g59
NtRp861
(dp862
g62
(dp863
g89
g90
ssg71
g852
sg64
(lp864
S':'
asbag57
(g78
g59
NtRp865
(dp866
g62
(dp867
sg71
g852
sg64
(lp868
g57
(g58
g59
NtRp869
(dp870
g62
(dp871
g70
I5
ssg71
g865
sg64
(lp872
g57
(g66
g59
NtRp873
(dp874
g62
(dp875
g70
I4
ssg71
Nsg64
(lp876
g57
(g73
g59
NtRp877
(dp878
g62
(dp879
sg71
g873
sg64
(lp880
g57
(g78
g59
NtRp881
(dp882
g62
(dp883
g82
g83
ssg71
g877
sg64
(lp884
S'app_folders'
p885
asbag57
(g78
g59
NtRp886
(dp887
g62
(dp888
g89
g90
ssg71
g877
sg64
(lp889
S':'
asbag57
(g78
g59
NtRp890
(dp891
g62
(dp892
sg71
g877
sg64
(lp893
g57
(g58
g59
NtRp894
(dp895
g62
(dp896
g70
I4
ssg71
g890
sg64
(lp897
S"set(['/home/perdomor/web2py/applications/sicoin/', '/home/perdomor/web2py/applications/welcome/', '/home/perdomor/web2py/applications/admin/'])"
p898
asbasbasbag57
(g73
g59
NtRp899
(dp900
g62
(dp901
sg71
g873
sg64
(lp902
g57
(g78
g59
NtRp903
(dp904
g62
(dp905
g82
g83
ssg71
g899
sg64
(lp906
S'applications_parent'
p907
asbag57
(g78
g59
NtRp908
(dp909
g62
(dp910
g89
g90
ssg71
g899
sg64
(lp911
S':'
asbag57
(g78
g59
NtRp912
(dp913
g62
(dp914
sg71
g899
sg64
(lp915
g57
(g58
g59
NtRp916
(dp917
g62
(dp918
g70
I4
ssg71
g912
sg64
(lp919
S'/home/perdomor/web2py'
p920
asbasbasbag57
(g73
g59
NtRp921
(dp922
g62
(dp923
sg71
g873
sg64
(lp924
g57
(g78
g59
NtRp925
(dp926
g62
(dp927
g82
g83
ssg71
g921
sg64
(lp928
S'cmd_args'
p929
asbag57
(g78
g59
NtRp930
(dp931
g62
(dp932
g89
g90
ssg71
g921
sg64
(lp933
S':'
asbag57
(g78
g59
NtRp934
(dp935
g62
(dp936
sg71
g921
sg64
(lp937
g57
(g58
g59
NtRp938
(dp939
g62
(dp940
g70
I4
ssg71
g934
sg64
(lp941
g57
(g66
g59
NtRp942
(dp943
g62
(dp944
g70
I3
ssg71
Nsg64
(lp945
sbasbasbasbag57
(g73
g59
NtRp946
(dp947
g62
(dp948
sg71
g873
sg64
(lp949
g57
(g78
g59
NtRp950
(dp951
g62
(dp952
g82
g83
ssg71
g946
sg64
(lp953
S'cmd_options'
p954
asbag57
(g78
g59
NtRp955
(dp956
g62
(dp957
g89
g90
ssg71
g946
sg64
(lp958
S':'
asbag57
(g78
g59
NtRp959
(dp960
g62
(dp961
sg71
g946
sg64
(lp962
g57
(g58
g59
NtRp963
(dp964
g62
(dp965
g70
I4
ssg71
g959
sg64
(lp966
S"<Values at 0x947f86c: {'verbose': False, 'ip': '127.0.0.1', 'with_scheduler': False, 'ips': ['127.0.1.1'], 'shutdown_timeout': 5, 'taskbar': False, 'port': 8000, 'maxthreads': None, 'softcron': False, 'server_name': 'perdomor', 'bpython': False, 'nogui': False, 'nocron': False, 'extcron': False, 'run_system_tests': False, 'test': None, 'folder': '/home/perdomor/web2py', 'config': '', 'import_models': False, 'winservice': '', 'shell': None, 'run': '', 'log_filename': 'httpserver.log', 'debuglevel': 30, 'args': [''], 'socket_timeout': 5, 'ssl_ca_certificate': None, 'scheduler': None, 'profiler_filename': None, 'ssl_private_key': '', 'scheduler_groups': None, 'password': '<ask>', 'request_queue_size': 5, 'ssl_certificate': '', 'cronjob': False, 'numthreads': None, 'quiet': False, 'interfaces': None, 'minthreads': None, 'timeout': 10, 'plain': False, 'nobanner': False, 'pid_filename': 'httpserver.pid'}>"
p967
asbasbasbag57
(g73
g59
NtRp968
(dp969
g62
(dp970
sg71
g873
sg64
(lp971
g57
(g78
g59
NtRp972
(dp973
g62
(dp974
g82
g83
ssg71
g968
sg64
(lp975
S'db_sessions'
p976
asbag57
(g78
g59
NtRp977
(dp978
g62
(dp979
g89
g90
ssg71
g968
sg64
(lp980
S':'
asbag57
(g78
g59
NtRp981
(dp982
g62
(dp983
sg71
g968
sg64
(lp984
g57
(g58
g59
NtRp985
(dp986
g62
(dp987
g70
I4
ssg71
g981
sg64
(lp988
S'set([])'
p989
asbasbasbag57
(g73
g59
NtRp990
(dp991
g62
(dp992
sg71
g873
sg64
(lp993
g57
(g78
g59
NtRp994
(dp995
g62
(dp996
g82
g83
ssg71
g990
sg64
(lp997
S'debugging'
p998
asbag57
(g78
g59
NtRp999
(dp1000
g62
(dp1001
g89
g90
ssg71
g990
sg64
(lp1002
S':'
asbag57
(g78
g59
NtRp1003
(dp1004
g62
(dp1005
sg71
g990
sg64
(lp1006
g57
(g58
g59
NtRp1007
(dp1008
g62
(dp1009
g70
I4
ssg71
g1003
sg64
(lp1010
g100
asbasbasbag57
(g73
g59
NtRp1011
(dp1012
g62
(dp1013
sg71
g873
sg64
(lp1014
g57
(g78
g59
NtRp1015
(dp1016
g62
(dp1017
g82
g83
ssg71
g1011
sg64
(lp1018
S'gluon_parent'
p1019
asbag57
(g78
g59
NtRp1020
(dp1021
g62
(dp1022
g89
g90
ssg71
g1011
sg64
(lp1023
S':'
asbag57
(g78
g59
NtRp1024
(dp1025
g62
(dp1026
sg71
g1011
sg64
(lp1027
g57
(g58
g59
NtRp1028
(dp1029
g62
(dp1030
g70
I4
ssg71
g1024
sg64
(lp1031
S'/home/perdomor/web2py'
p1032
asbasbasbag57
(g73
g59
NtRp1033
(dp1034
g62
(dp1035
sg71
g873
sg64
(lp1036
g57
(g78
g59
NtRp1037
(dp1038
g62
(dp1039
g82
g83
ssg71
g1033
sg64
(lp1040
S'http_accept'
p1041
asbag57
(g78
g59
NtRp1042
(dp1043
g62
(dp1044
g89
g90
ssg71
g1033
sg64
(lp1045
S':'
asbag57
(g78
g59
NtRp1046
(dp1047
g62
(dp1048
sg71
g1033
sg64
(lp1049
g57
(g58
g59
NtRp1050
(dp1051
g62
(dp1052
g70
I4
ssg71
g1046
sg64
(lp1053
S'text/html,application/xhtml+xml,application/xml;q=0.9,*/*;q=0.8'
p1054
asbasbasbag57
(g73
g59
NtRp1055
(dp1056
g62
(dp1057
sg71
g873
sg64
(lp1058
g57
(g78
g59
NtRp1059
(dp1060
g62
(dp1061
g82
g83
ssg71
g1055
sg64
(lp1062
S'http_accept_charset'
p1063
asbag57
(g78
g59
NtRp1064
(dp1065
g62
(dp1066
g89
g90
ssg71
g1055
sg64
(lp1067
S':'
asbag57
(g78
g59
NtRp1068
(dp1069
g62
(dp1070
sg71
g1055
sg64
(lp1071
g57
(g58
g59
NtRp1072
(dp1073
g62
(dp1074
g70
I4
ssg71
g1068
sg64
(lp1075
S'ISO-8859-1,utf-8;q=0.7,*;q=0.3'
p1076
asbasbasbag57
(g73
g59
NtRp1077
(dp1078
g62
(dp1079
sg71
g873
sg64
(lp1080
g57
(g78
g59
NtRp1081
(dp1082
g62
(dp1083
g82
g83
ssg71
g1077
sg64
(lp1084
S'http_accept_encoding'
p1085
asbag57
(g78
g59
NtRp1086
(dp1087
g62
(dp1088
g89
g90
ssg71
g1077
sg64
(lp1089
S':'
asbag57
(g78
g59
NtRp1090
(dp1091
g62
(dp1092
sg71
g1077
sg64
(lp1093
g57
(g58
g59
NtRp1094
(dp1095
g62
(dp1096
g70
I4
ssg71
g1090
sg64
(lp1097
S'gzip,deflate,sdch'
p1098
asbasbasbag57
(g73
g59
NtRp1099
(dp1100
g62
(dp1101
sg71
g873
sg64
(lp1102
g57
(g78
g59
NtRp1103
(dp1104
g62
(dp1105
g82
g83
ssg71
g1099
sg64
(lp1106
S'http_accept_language'
p1107
asbag57
(g78
g59
NtRp1108
(dp1109
g62
(dp1110
g89
g90
ssg71
g1099
sg64
(lp1111
S':'
asbag57
(g78
g59
NtRp1112
(dp1113
g62
(dp1114
sg71
g1099
sg64
(lp1115
g57
(g58
g59
NtRp1116
(dp1117
g62
(dp1118
g70
I4
ssg71
g1112
sg64
(lp1119
S'es-419,es;q=0.8'
p1120
asbasbasbag57
(g73
g59
NtRp1121
(dp1122
g62
(dp1123
sg71
g873
sg64
(lp1124
g57
(g78
g59
NtRp1125
(dp1126
g62
(dp1127
g82
g83
ssg71
g1121
sg64
(lp1128
S'http_cache_control'
p1129
asbag57
(g78
g59
NtRp1130
(dp1131
g62
(dp1132
g89
g90
ssg71
g1121
sg64
(lp1133
S':'
asbag57
(g78
g59
NtRp1134
(dp1135
g62
(dp1136
sg71
g1121
sg64
(lp1137
g57
(g58
g59
NtRp1138
(dp1139
g62
(dp1140
g70
I4
ssg71
g1134
sg64
(lp1141
S'max-age=0'
p1142
asbasbasbag57
(g73
g59
NtRp1143
(dp1144
g62
(dp1145
sg71
g873
sg64
(lp1146
g57
(g78
g59
NtRp1147
(dp1148
g62
(dp1149
g82
g83
ssg71
g1143
sg64
(lp1150
S'http_connection'
p1151
asbag57
(g78
g59
NtRp1152
(dp1153
g62
(dp1154
g89
g90
ssg71
g1143
sg64
(lp1155
S':'
asbag57
(g78
g59
NtRp1156
(dp1157
g62
(dp1158
sg71
g1143
sg64
(lp1159
g57
(g58
g59
NtRp1160
(dp1161
g62
(dp1162
g70
I4
ssg71
g1156
sg64
(lp1163
S'keep-alive'
p1164
asbasbasbag57
(g73
g59
NtRp1165
(dp1166
g62
(dp1167
sg71
g873
sg64
(lp1168
g57
(g78
g59
NtRp1169
(dp1170
g62
(dp1171
g82
g83
ssg71
g1165
sg64
(lp1172
S'http_cookie'
p1173
asbag57
(g78
g59
NtRp1174
(dp1175
g62
(dp1176
g89
g90
ssg71
g1165
sg64
(lp1177
S':'
asbag57
(g78
g59
NtRp1178
(dp1179
g62
(dp1180
sg71
g1165
sg64
(lp1181
g57
(g58
g59
NtRp1182
(dp1183
g62
(dp1184
g70
I4
ssg71
g1178
sg64
(lp1185
S'session_id_welcome=127.0.0.1-17b5c7a0-2249-4763-b440-25be2adb74fb; session_id_sicoin=127.0.0.1-9e81c5b9-74a6-4cb3-a080-38c8aad87ca9; session_id_admin=127.0.0.1-83efe7b8-dd3a-446c-a0a2-baea6af89c98'
p1186
asbasbasbag57
(g73
g59
NtRp1187
(dp1188
g62
(dp1189
sg71
g873
sg64
(lp1190
g57
(g78
g59
NtRp1191
(dp1192
g62
(dp1193
g82
g83
ssg71
g1187
sg64
(lp1194
S'http_host'
p1195
asbag57
(g78
g59
NtRp1196
(dp1197
g62
(dp1198
g89
g90
ssg71
g1187
sg64
(lp1199
S':'
asbag57
(g78
g59
NtRp1200
(dp1201
g62
(dp1202
sg71
g1187
sg64
(lp1203
g57
(g58
g59
NtRp1204
(dp1205
g62
(dp1206
g70
I4
ssg71
g1200
sg64
(lp1207
S'127.0.0.1:8080'
p1208
asbasbasbag57
(g73
g59
NtRp1209
(dp1210
g62
(dp1211
sg71
g873
sg64
(lp1212
g57
(g78
g59
NtRp1213
(dp1214
g62
(dp1215
g82
g83
ssg71
g1209
sg64
(lp1216
S'http_referer'
p1217
asbag57
(g78
g59
NtRp1218
(dp1219
g62
(dp1220
g89
g90
ssg71
g1209
sg64
(lp1221
S':'
asbag57
(g78
g59
NtRp1222
(dp1223
g62
(dp1224
sg71
g1209
sg64
(lp1225
g57
(g58
g59
NtRp1226
(dp1227
g62
(dp1228
g70
I4
ssg71
g1222
sg64
(lp1229
S'http://127.0.0.1:8080/sicoin/correspondencia/listar_correspondencias'
p1230
asbasbasbag57
(g73
g59
NtRp1231
(dp1232
g62
(dp1233
sg71
g873
sg64
(lp1234
g57
(g78
g59
NtRp1235
(dp1236
g62
(dp1237
g82
g83
ssg71
g1231
sg64
(lp1238
S'http_user_agent'
p1239
asbag57
(g78
g59
NtRp1240
(dp1241
g62
(dp1242
g89
g90
ssg71
g1231
sg64
(lp1243
S':'
asbag57
(g78
g59
NtRp1244
(dp1245
g62
(dp1246
sg71
g1231
sg64
(lp1247
g57
(g58
g59
NtRp1248
(dp1249
g62
(dp1250
g70
I4
ssg71
g1244
sg64
(lp1251
S'Mozilla/5.0 (X11; Linux i686) AppleWebKit/535.19 (KHTML, like Gecko) Ubuntu/11.10 Chromium/18.0.1025.168 Chrome/18.0.1025.168 Safari/535.19'
p1252
asbasbasbag57
(g73
g59
NtRp1253
(dp1254
g62
(dp1255
sg71
g873
sg64
(lp1256
g57
(g78
g59
NtRp1257
(dp1258
g62
(dp1259
g82
g83
ssg71
g1253
sg64
(lp1260
S'is_jython'
p1261
asbag57
(g78
g59
NtRp1262
(dp1263
g62
(dp1264
g89
g90
ssg71
g1253
sg64
(lp1265
S':'
asbag57
(g78
g59
NtRp1266
(dp1267
g62
(dp1268
sg71
g1253
sg64
(lp1269
g57
(g58
g59
NtRp1270
(dp1271
g62
(dp1272
g70
I4
ssg71
g1266
sg64
(lp1273
g100
asbasbasbag57
(g73
g59
NtRp1274
(dp1275
g62
(dp1276
sg71
g873
sg64
(lp1277
g57
(g78
g59
NtRp1278
(dp1279
g62
(dp1280
g82
g83
ssg71
g1274
sg64
(lp1281
S'is_pypy'
p1282
asbag57
(g78
g59
NtRp1283
(dp1284
g62
(dp1285
g89
g90
ssg71
g1274
sg64
(lp1286
S':'
asbag57
(g78
g59
NtRp1287
(dp1288
g62
(dp1289
sg71
g1274
sg64
(lp1290
g57
(g58
g59
NtRp1291
(dp1292
g62
(dp1293
g70
I4
ssg71
g1287
sg64
(lp1294
g100
asbasbasbag57
(g73
g59
NtRp1295
(dp1296
g62
(dp1297
sg71
g873
sg64
(lp1298
g57
(g78
g59
NtRp1299
(dp1300
g62
(dp1301
g82
g83
ssg71
g1295
sg64
(lp1302
S'path_info'
p1303
asbag57
(g78
g59
NtRp1304
(dp1305
g62
(dp1306
g89
g90
ssg71
g1295
sg64
(lp1307
S':'
asbag57
(g78
g59
NtRp1308
(dp1309
g62
(dp1310
sg71
g1295
sg64
(lp1311
g57
(g58
g59
NtRp1312
(dp1313
g62
(dp1314
g70
I4
ssg71
g1308
sg64
(lp1315
S'/sicoin/correspondencia/listar_correspondencias/new/correspondencia'
p1316
asbasbasbag57
(g73
g59
NtRp1317
(dp1318
g62
(dp1319
sg71
g873
sg64
(lp1320
g57
(g78
g59
NtRp1321
(dp1322
g62
(dp1323
g82
g83
ssg71
g1317
sg64
(lp1324
S'query_string'
p1325
asbag57
(g78
g59
NtRp1326
(dp1327
g62
(dp1328
g89
g90
ssg71
g1317
sg64
(lp1329
S':'
asbag57
(g78
g59
NtRp1330
(dp1331
g62
(dp1332
sg71
g1317
sg64
(lp1333
g57
(g58
g59
NtRp1334
(dp1335
g62
(dp1336
g70
I4
ssg71
g1330
sg64
(lp1337
S''
asbasbasbag57
(g73
g59
NtRp1338
(dp1339
g62
(dp1340
sg71
g873
sg64
(lp1341
g57
(g78
g59
NtRp1342
(dp1343
g62
(dp1344
g82
g83
ssg71
g1338
sg64
(lp1345
S'remote_addr'
p1346
asbag57
(g78
g59
NtRp1347
(dp1348
g62
(dp1349
g89
g90
ssg71
g1338
sg64
(lp1350
S':'
asbag57
(g78
g59
NtRp1351
(dp1352
g62
(dp1353
sg71
g1338
sg64
(lp1354
g57
(g58
g59
NtRp1355
(dp1356
g62
(dp1357
g70
I4
ssg71
g1351
sg64
(lp1358
g238
asbasbasbag57
(g73
g59
NtRp1359
(dp1360
g62
(dp1361
sg71
g873
sg64
(lp1362
g57
(g78
g59
NtRp1363
(dp1364
g62
(dp1365
g82
g83
ssg71
g1359
sg64
(lp1366
S'remote_port'
p1367
asbag57
(g78
g59
NtRp1368
(dp1369
g62
(dp1370
g89
g90
ssg71
g1359
sg64
(lp1371
S':'
asbag57
(g78
g59
NtRp1372
(dp1373
g62
(dp1374
sg71
g1359
sg64
(lp1375
g57
(g58
g59
NtRp1376
(dp1377
g62
(dp1378
g70
I4
ssg71
g1372
sg64
(lp1379
S'59574'
p1380
asbasbasbag57
(g73
g59
NtRp1381
(dp1382
g62
(dp1383
sg71
g873
sg64
(lp1384
g57
(g78
g59
NtRp1385
(dp1386
g62
(dp1387
g82
g83
ssg71
g1381
sg64
(lp1388
S'request_method'
p1389
asbag57
(g78
g59
NtRp1390
(dp1391
g62
(dp1392
g89
g90
ssg71
g1381
sg64
(lp1393
S':'
asbag57
(g78
g59
NtRp1394
(dp1395
g62
(dp1396
sg71
g1381
sg64
(lp1397
g57
(g58
g59
NtRp1398
(dp1399
g62
(dp1400
g70
I4
ssg71
g1394
sg64
(lp1401
S'GET'
p1402
asbasbasbag57
(g73
g59
NtRp1403
(dp1404
g62
(dp1405
sg71
g873
sg64
(lp1406
g57
(g78
g59
NtRp1407
(dp1408
g62
(dp1409
g82
g83
ssg71
g1403
sg64
(lp1410
S'request_uri'
p1411
asbag57
(g78
g59
NtRp1412
(dp1413
g62
(dp1414
g89
g90
ssg71
g1403
sg64
(lp1415
S':'
asbag57
(g78
g59
NtRp1416
(dp1417
g62
(dp1418
sg71
g1403
sg64
(lp1419
g57
(g58
g59
NtRp1420
(dp1421
g62
(dp1422
g70
I4
ssg71
g1416
sg64
(lp1423
g1316
asbasbasbag57
(g73
g59
NtRp1424
(dp1425
g62
(dp1426
sg71
g873
sg64
(lp1427
g57
(g78
g59
NtRp1428
(dp1429
g62
(dp1430
g82
g83
ssg71
g1424
sg64
(lp1431
S'script_name'
p1432
asbag57
(g78
g59
NtRp1433
(dp1434
g62
(dp1435
g89
g90
ssg71
g1424
sg64
(lp1436
S':'
asbag57
(g78
g59
NtRp1437
(dp1438
g62
(dp1439
sg71
g1424
sg64
(lp1440
g57
(g58
g59
NtRp1441
(dp1442
g62
(dp1443
g70
I4
ssg71
g1437
sg64
(lp1444
S''
asbasbasbag57
(g73
g59
NtRp1445
(dp1446
g62
(dp1447
sg71
g873
sg64
(lp1448
g57
(g78
g59
NtRp1449
(dp1450
g62
(dp1451
g82
g83
ssg71
g1445
sg64
(lp1452
S'server_name'
p1453
asbag57
(g78
g59
NtRp1454
(dp1455
g62
(dp1456
g89
g90
ssg71
g1445
sg64
(lp1457
S':'
asbag57
(g78
g59
NtRp1458
(dp1459
g62
(dp1460
sg71
g1445
sg64
(lp1461
g57
(g58
g59
NtRp1462
(dp1463
g62
(dp1464
g70
I4
ssg71
g1458
sg64
(lp1465
S'perdomor'
p1466
asbasbasbag57
(g73
g59
NtRp1467
(dp1468
g62
(dp1469
sg71
g873
sg64
(lp1470
g57
(g78
g59
NtRp1471
(dp1472
g62
(dp1473
g82
g83
ssg71
g1467
sg64
(lp1474
S'server_port'
p1475
asbag57
(g78
g59
NtRp1476
(dp1477
g62
(dp1478
g89
g90
ssg71
g1467
sg64
(lp1479
S':'
asbag57
(g78
g59
NtRp1480
(dp1481
g62
(dp1482
sg71
g1467
sg64
(lp1483
g57
(g58
g59
NtRp1484
(dp1485
g62
(dp1486
g70
I4
ssg71
g1480
sg64
(lp1487
S'8080'
p1488
asbasbasbag57
(g73
g59
NtRp1489
(dp1490
g62
(dp1491
sg71
g873
sg64
(lp1492
g57
(g78
g59
NtRp1493
(dp1494
g62
(dp1495
g82
g83
ssg71
g1489
sg64
(lp1496
S'server_protocol'
p1497
asbag57
(g78
g59
NtRp1498
(dp1499
g62
(dp1500
g89
g90
ssg71
g1489
sg64
(lp1501
S':'
asbag57
(g78
g59
NtRp1502
(dp1503
g62
(dp1504
sg71
g1489
sg64
(lp1505
g57
(g58
g59
NtRp1506
(dp1507
g62
(dp1508
g70
I4
ssg71
g1502
sg64
(lp1509
S'HTTP/1.1'
p1510
asbasbasbag57
(g73
g59
NtRp1511
(dp1512
g62
(dp1513
sg71
g873
sg64
(lp1514
g57
(g78
g59
NtRp1515
(dp1516
g62
(dp1517
g82
g83
ssg71
g1511
sg64
(lp1518
S'server_software'
p1519
asbag57
(g78
g59
NtRp1520
(dp1521
g62
(dp1522
g89
g90
ssg71
g1511
sg64
(lp1523
S':'
asbag57
(g78
g59
NtRp1524
(dp1525
g62
(dp1526
sg71
g1511
sg64
(lp1527
g57
(g58
g59
NtRp1528
(dp1529
g62
(dp1530
g70
I4
ssg71
g1524
sg64
(lp1531
S'Rocket 1.2.4'
p1532
asbasbasbag57
(g73
g59
NtRp1533
(dp1534
g62
(dp1535
sg71
g873
sg64
(lp1536
g57
(g78
g59
NtRp1537
(dp1538
g62
(dp1539
g82
g83
ssg71
g1533
sg64
(lp1540
S'web2py_crontype'
p1541
asbag57
(g78
g59
NtRp1542
(dp1543
g62
(dp1544
g89
g90
ssg71
g1533
sg64
(lp1545
S':'
asbag57
(g78
g59
NtRp1546
(dp1547
g62
(dp1548
sg71
g1533
sg64
(lp1549
g57
(g58
g59
NtRp1550
(dp1551
g62
(dp1552
g70
I4
ssg71
g1546
sg64
(lp1553
S'hard'
p1554
asbasbasbag57
(g73
g59
NtRp1555
(dp1556
g62
(dp1557
sg71
g873
sg64
(lp1558
g57
(g78
g59
NtRp1559
(dp1560
g62
(dp1561
g82
g83
ssg71
g1555
sg64
(lp1562
S'web2py_path'
p1563
asbag57
(g78
g59
NtRp1564
(dp1565
g62
(dp1566
g89
g90
ssg71
g1555
sg64
(lp1567
S':'
asbag57
(g78
g59
NtRp1568
(dp1569
g62
(dp1570
sg71
g1555
sg64
(lp1571
g57
(g58
g59
NtRp1572
(dp1573
g62
(dp1574
g70
I4
ssg71
g1568
sg64
(lp1575
g920
asbasbasbag57
(g73
g59
NtRp1576
(dp1577
g62
(dp1578
sg71
g873
sg64
(lp1579
g57
(g78
g59
NtRp1580
(dp1581
g62
(dp1582
g82
g83
ssg71
g1576
sg64
(lp1583
S'web2py_version'
p1584
asbag57
(g78
g59
NtRp1585
(dp1586
g62
(dp1587
g89
g90
ssg71
g1576
sg64
(lp1588
S':'
asbag57
(g78
g59
NtRp1589
(dp1590
g62
(dp1591
sg71
g1576
sg64
(lp1592
g57
(g58
g59
NtRp1593
(dp1594
g62
(dp1595
g70
I4
ssg71
g1589
sg64
(lp1596
g57
(g66
g59
NtRp1597
(dp1598
g62
(dp1599
g70
I3
ssg71
Nsg64
(lp1600
g57
(g73
g59
NtRp1601
(dp1602
g62
(dp1603
sg71
g1597
sg64
(lp1604
g57
(g78
g59
NtRp1605
(dp1606
g62
(dp1607
sg71
g1601
sg64
(lp1608
g57
(g58
g59
NtRp1609
(dp1610
g62
(dp1611
g70
I3
ssg71
g1605
sg64
(lp1612
S'2'
asbasbasbag57
(g73
g59
NtRp1613
(dp1614
g62
(dp1615
sg71
g1597
sg64
(lp1616
g57
(g78
g59
NtRp1617
(dp1618
g62
(dp1619
sg71
g1613
sg64
(lp1620
g57
(g58
g59
NtRp1621
(dp1622
g62
(dp1623
g70
I3
ssg71
g1617
sg64
(lp1624
S'0'
asbasbasbag57
(g73
g59
NtRp1625
(dp1626
g62
(dp1627
sg71
g1597
sg64
(lp1628
g57
(g78
g59
NtRp1629
(dp1630
g62
(dp1631
sg71
g1625
sg64
(lp1632
g57
(g58
g59
NtRp1633
(dp1634
g62
(dp1635
g70
I3
ssg71
g1629
sg64
(lp1636
S'9'
asbasbasbag57
(g73
g59
NtRp1637
(dp1638
g62
(dp1639
sg71
g1597
sg64
(lp1640
g57
(g78
g59
NtRp1641
(dp1642
g62
(dp1643
sg71
g1637
sg64
(lp1644
g57
(g58
g59
NtRp1645
(dp1646
g62
(dp1647
g70
I3
ssg71
g1641
sg64
(lp1648
S'datetime.datetime(2012, 9, 13, 23, 51, 30)'
p1649
asbasbasbag57
(g73
g59
NtRp1650
(dp1651
g62
(dp1652
sg71
g1597
sg64
(lp1653
g57
(g78
g59
NtRp1654
(dp1655
g62
(dp1656
sg71
g1650
sg64
(lp1657
g57
(g58
g59
NtRp1658
(dp1659
g62
(dp1660
g70
I3
ssg71
g1654
sg64
(lp1661
S'stable'
p1662
asbasbasbasbasbasbasbag57
(g73
g59
NtRp1663
(dp1664
g62
(dp1665
sg71
g873
sg64
(lp1666
g57
(g78
g59
NtRp1667
(dp1668
g62
(dp1669
g82
g83
ssg71
g1663
sg64
(lp1670
S'wsgi_errors'
p1671
asbag57
(g78
g59
NtRp1672
(dp1673
g62
(dp1674
g89
g90
ssg71
g1663
sg64
(lp1675
S':'
asbag57
(g78
g59
NtRp1676
(dp1677
g62
(dp1678
sg71
g1663
sg64
(lp1679
g57
(g58
g59
NtRp1680
(dp1681
g62
(dp1682
g70
I4
ssg71
g1676
sg64
(lp1683
S"<open file '<stderr>', mode 'w' at 0xb76d90d0>"
p1684
asbasbasbag57
(g73
g59
NtRp1685
(dp1686
g62
(dp1687
sg71
g873
sg64
(lp1688
g57
(g78
g59
NtRp1689
(dp1690
g62
(dp1691
g82
g83
ssg71
g1685
sg64
(lp1692
S'wsgi_file_wrapper'
p1693
asbag57
(g78
g59
NtRp1694
(dp1695
g62
(dp1696
g89
g90
ssg71
g1685
sg64
(lp1697
S':'
asbag57
(g78
g59
NtRp1698
(dp1699
g62
(dp1700
sg71
g1685
sg64
(lp1701
g57
(g58
g59
NtRp1702
(dp1703
g62
(dp1704
g70
I4
ssg71
g1698
sg64
(lp1705
S'<class wsgiref.util.FileWrapper at 0x943386c>'
p1706
asbasbasbag57
(g73
g59
NtRp1707
(dp1708
g62
(dp1709
sg71
g873
sg64
(lp1710
g57
(g78
g59
NtRp1711
(dp1712
g62
(dp1713
g82
g83
ssg71
g1707
sg64
(lp1714
S'wsgi_input'
p1715
asbag57
(g78
g59
NtRp1716
(dp1717
g62
(dp1718
g89
g90
ssg71
g1707
sg64
(lp1719
S':'
asbag57
(g78
g59
NtRp1720
(dp1721
g62
(dp1722
sg71
g1707
sg64
(lp1723
g57
(g58
g59
NtRp1724
(dp1725
g62
(dp1726
g70
I4
ssg71
g1720
sg64
(lp1727
S'<socket._fileobject object at 0x9f1302c>'
p1728
asbasbasbag57
(g73
g59
NtRp1729
(dp1730
g62
(dp1731
sg71
g873
sg64
(lp1732
g57
(g78
g59
NtRp1733
(dp1734
g62
(dp1735
g82
g83
ssg71
g1729
sg64
(lp1736
S'wsgi_multiprocess'
p1737
asbag57
(g78
g59
NtRp1738
(dp1739
g62
(dp1740
g89
g90
ssg71
g1729
sg64
(lp1741
S':'
asbag57
(g78
g59
NtRp1742
(dp1743
g62
(dp1744
sg71
g1729
sg64
(lp1745
g57
(g58
g59
NtRp1746
(dp1747
g62
(dp1748
g70
I4
ssg71
g1742
sg64
(lp1749
g100
asbasbasbag57
(g73
g59
NtRp1750
(dp1751
g62
(dp1752
sg71
g873
sg64
(lp1753
g57
(g78
g59
NtRp1754
(dp1755
g62
(dp1756
g82
g83
ssg71
g1750
sg64
(lp1757
S'wsgi_multithread'
p1758
asbag57
(g78
g59
NtRp1759
(dp1760
g62
(dp1761
g89
g90
ssg71
g1750
sg64
(lp1762
S':'
asbag57
(g78
g59
NtRp1763
(dp1764
g62
(dp1765
sg71
g1750
sg64
(lp1766
g57
(g58
g59
NtRp1767
(dp1768
g62
(dp1769
g70
I4
ssg71
g1763
sg64
(lp1770
S'True'
p1771
asbasbasbag57
(g73
g59
NtRp1772
(dp1773
g62
(dp1774
sg71
g873
sg64
(lp1775
g57
(g78
g59
NtRp1776
(dp1777
g62
(dp1778
g82
g83
ssg71
g1772
sg64
(lp1779
S'wsgi_run_once'
p1780
asbag57
(g78
g59
NtRp1781
(dp1782
g62
(dp1783
g89
g90
ssg71
g1772
sg64
(lp1784
S':'
asbag57
(g78
g59
NtRp1785
(dp1786
g62
(dp1787
sg71
g1772
sg64
(lp1788
g57
(g58
g59
NtRp1789
(dp1790
g62
(dp1791
g70
I4
ssg71
g1785
sg64
(lp1792
g100
asbasbasbag57
(g73
g59
NtRp1793
(dp1794
g62
(dp1795
sg71
g873
sg64
(lp1796
g57
(g78
g59
NtRp1797
(dp1798
g62
(dp1799
g82
g83
ssg71
g1793
sg64
(lp1800
S'wsgi_url_scheme'
p1801
asbag57
(g78
g59
NtRp1802
(dp1803
g62
(dp1804
g89
g90
ssg71
g1793
sg64
(lp1805
S':'
asbag57
(g78
g59
NtRp1806
(dp1807
g62
(dp1808
sg71
g1793
sg64
(lp1809
g57
(g58
g59
NtRp1810
(dp1811
g62
(dp1812
g70
I4
ssg71
g1806
sg64
(lp1813
S'http'
p1814
asbasbasbag57
(g73
g59
NtRp1815
(dp1816
g62
(dp1817
sg71
g873
sg64
(lp1818
g57
(g78
g59
NtRp1819
(dp1820
g62
(dp1821
g82
g83
ssg71
g1815
sg64
(lp1822
S'wsgi_version'
p1823
asbag57
(g78
g59
NtRp1824
(dp1825
g62
(dp1826
g89
g90
ssg71
g1815
sg64
(lp1827
S':'
asbag57
(g78
g59
NtRp1828
(dp1829
g62
(dp1830
sg71
g1815
sg64
(lp1831
g57
(g58
g59
NtRp1832
(dp1833
g62
(dp1834
g70
I4
ssg71
g1828
sg64
(lp1835
g57
(g66
g59
NtRp1836
(dp1837
g62
(dp1838
g70
I3
ssg71
Nsg64
(lp1839
g57
(g73
g59
NtRp1840
(dp1841
g62
(dp1842
sg71
g1836
sg64
(lp1843
g57
(g78
g59
NtRp1844
(dp1845
g62
(dp1846
sg71
g1840
sg64
(lp1847
g57
(g58
g59
NtRp1848
(dp1849
g62
(dp1850
g70
I3
ssg71
g1844
sg64
(lp1851
S'1'
asbasbasbag57
(g73
g59
NtRp1852
(dp1853
g62
(dp1854
sg71
g1836
sg64
(lp1855
g57
(g78
g59
NtRp1856
(dp1857
g62
(dp1858
sg71
g1852
sg64
(lp1859
g57
(g58
g59
NtRp1860
(dp1861
g62
(dp1862
g70
I3
ssg71
g1856
sg64
(lp1863
S'0'
asbasbasbasbasbasbasbasbasbasbasbag57
(g73
g59
NtRp1864
(dp1865
g62
(dp1866
sg71
g67
sg64
(lp1867
g57
(g78
g59
NtRp1868
(dp1869
g62
(dp1870
g82
g83
ssg71
g1864
sg64
(lp1871
S'extension'
p1872
asbag57
(g78
g59
NtRp1873
(dp1874
g62
(dp1875
g89
g90
ssg71
g1864
sg64
(lp1876
S':'
asbag57
(g78
g59
NtRp1877
(dp1878
g62
(dp1879
sg71
g1864
sg64
(lp1880
g57
(g58
g59
NtRp1881
(dp1882
g62
(dp1883
g70
I5
ssg71
g1877
sg64
(lp1884
S'html'
p1885
asbasbasbag57
(g73
g59
NtRp1886
(dp1887
g62
(dp1888
sg71
g67
sg64
(lp1889
g57
(g78
g59
NtRp1890
(dp1891
g62
(dp1892
g82
g83
ssg71
g1886
sg64
(lp1893
S'folder'
p1894
asbag57
(g78
g59
NtRp1895
(dp1896
g62
(dp1897
g89
g90
ssg71
g1886
sg64
(lp1898
S':'
asbag57
(g78
g59
NtRp1899
(dp1900
g62
(dp1901
sg71
g1886
sg64
(lp1902
g57
(g58
g59
NtRp1903
(dp1904
g62
(dp1905
g70
I5
ssg71
g1899
sg64
(lp1906
S'/home/perdomor/web2py/applications/sicoin/'
p1907
asbasbasbag57
(g73
g59
NtRp1908
(dp1909
g62
(dp1910
sg71
g67
sg64
(lp1911
g57
(g78
g59
NtRp1912
(dp1913
g62
(dp1914
g82
g83
ssg71
g1908
sg64
(lp1915
S'function'
p1916
asbag57
(g78
g59
NtRp1917
(dp1918
g62
(dp1919
g89
g90
ssg71
g1908
sg64
(lp1920
S':'
asbag57
(g78
g59
NtRp1921
(dp1922
g62
(dp1923
sg71
g1908
sg64
(lp1924
g57
(g58
g59
NtRp1925
(dp1926
g62
(dp1927
g70
I5
ssg71
g1921
sg64
(lp1928
S'listar_correspondencias'
p1929
asbasbasbag57
(g73
g59
NtRp1930
(dp1931
g62
(dp1932
sg71
g67
sg64
(lp1933
g57
(g78
g59
NtRp1934
(dp1935
g62
(dp1936
g82
g83
ssg71
g1930
sg64
(lp1937
S'get_vars'
p1938
asbag57
(g78
g59
NtRp1939
(dp1940
g62
(dp1941
g89
g90
ssg71
g1930
sg64
(lp1942
S':'
asbag57
(g78
g59
NtRp1943
(dp1944
g62
(dp1945
sg71
g1930
sg64
(lp1946
g57
(g58
g59
NtRp1947
(dp1948
g62
(dp1949
g70
I5
ssg71
g1943
sg64
(lp1950
g57
(g66
g59
NtRp1951
(dp1952
g62
(dp1953
g70
I4
ssg71
Nsg64
(lp1954
sbasbasbasbag57
(g73
g59
NtRp1955
(dp1956
g62
(dp1957
sg71
g67
sg64
(lp1958
g57
(g78
g59
NtRp1959
(dp1960
g62
(dp1961
g82
g83
ssg71
g1955
sg64
(lp1962
S'global_settings'
p1963
asbag57
(g78
g59
NtRp1964
(dp1965
g62
(dp1966
g89
g90
ssg71
g1955
sg64
(lp1967
S':'
asbag57
(g78
g59
NtRp1968
(dp1969
g62
(dp1970
sg71
g1955
sg64
(lp1971
g57
(g58
g59
NtRp1972
(dp1973
g62
(dp1974
g70
I5
ssg71
g1968
sg64
(lp1975
g57
(g66
g59
NtRp1976
(dp1977
g62
(dp1978
g70
I4
ssg71
Nsg64
(lp1979
g57
(g73
g59
NtRp1980
(dp1981
g62
(dp1982
sg71
g1976
sg64
(lp1983
g57
(g78
g59
NtRp1984
(dp1985
g62
(dp1986
g82
g83
ssg71
g1980
sg64
(lp1987
g885
asbag57
(g78
g59
NtRp1988
(dp1989
g62
(dp1990
g89
g90
ssg71
g1980
sg64
(lp1991
S':'
asbag57
(g78
g59
NtRp1992
(dp1993
g62
(dp1994
sg71
g1980
sg64
(lp1995
g57
(g58
g59
NtRp1996
(dp1997
g62
(dp1998
g70
I4
ssg71
g1992
sg64
(lp1999
S"set(['/home/perdomor/web2py/applications/sicoin/', '/home/perdomor/web2py/applications/welcome/', '/home/perdomor/web2py/applications/admin/'])"
p2000
asbasbasbag57
(g73
g59
NtRp2001
(dp2002
g62
(dp2003
sg71
g1976
sg64
(lp2004
g57
(g78
g59
NtRp2005
(dp2006
g62
(dp2007
g82
g83
ssg71
g2001
sg64
(lp2008
g907
asbag57
(g78
g59
NtRp2009
(dp2010
g62
(dp2011
g89
g90
ssg71
g2001
sg64
(lp2012
S':'
asbag57
(g78
g59
NtRp2013
(dp2014
g62
(dp2015
sg71
g2001
sg64
(lp2016
g57
(g58
g59
NtRp2017
(dp2018
g62
(dp2019
g70
I4
ssg71
g2013
sg64
(lp2020
g920
asbasbasbag57
(g73
g59
NtRp2021
(dp2022
g62
(dp2023
sg71
g1976
sg64
(lp2024
g57
(g78
g59
NtRp2025
(dp2026
g62
(dp2027
g82
g83
ssg71
g2021
sg64
(lp2028
g929
asbag57
(g78
g59
NtRp2029
(dp2030
g62
(dp2031
g89
g90
ssg71
g2021
sg64
(lp2032
S':'
asbag57
(g78
g59
NtRp2033
(dp2034
g62
(dp2035
sg71
g2021
sg64
(lp2036
g57
(g58
g59
NtRp2037
(dp2038
g62
(dp2039
g70
I4
ssg71
g2033
sg64
(lp2040
g57
(g66
g59
NtRp2041
(dp2042
g62
(dp2043
g70
I3
ssg71
Nsg64
(lp2044
sbasbasbasbag57
(g73
g59
NtRp2045
(dp2046
g62
(dp2047
sg71
g1976
sg64
(lp2048
g57
(g78
g59
NtRp2049
(dp2050
g62
(dp2051
g82
g83
ssg71
g2045
sg64
(lp2052
g954
asbag57
(g78
g59
NtRp2053
(dp2054
g62
(dp2055
g89
g90
ssg71
g2045
sg64
(lp2056
S':'
asbag57
(g78
g59
NtRp2057
(dp2058
g62
(dp2059
sg71
g2045
sg64
(lp2060
g57
(g58
g59
NtRp2061
(dp2062
g62
(dp2063
g70
I4
ssg71
g2057
sg64
(lp2064
S"<Values at 0x947f86c: {'verbose': False, 'ip': '127.0.0.1', 'with_scheduler': False, 'ips': ['127.0.1.1'], 'shutdown_timeout': 5, 'taskbar': False, 'port': 8000, 'maxthreads': None, 'softcron': False, 'server_name': 'perdomor', 'bpython': False, 'nogui': False, 'nocron': False, 'extcron': False, 'run_system_tests': False, 'test': None, 'folder': '/home/perdomor/web2py', 'config': '', 'import_models': False, 'winservice': '', 'shell': None, 'run': '', 'log_filename': 'httpserver.log', 'debuglevel': 30, 'args': [''], 'socket_timeout': 5, 'ssl_ca_certificate': None, 'scheduler': None, 'profiler_filename': None, 'ssl_private_key': '', 'scheduler_groups': None, 'password': '<ask>', 'request_queue_size': 5, 'ssl_certificate': '', 'cronjob': False, 'numthreads': None, 'quiet': False, 'interfaces': None, 'minthreads': None, 'timeout': 10, 'plain': False, 'nobanner': False, 'pid_filename': 'httpserver.pid'}>"
p2065
asbasbasbag57
(g73
g59
NtRp2066
(dp2067
g62
(dp2068
sg71
g1976
sg64
(lp2069
g57
(g78
g59
NtRp2070
(dp2071
g62
(dp2072
g82
g83
ssg71
g2066
sg64
(lp2073
g976
asbag57
(g78
g59
NtRp2074
(dp2075
g62
(dp2076
g89
g90
ssg71
g2066
sg64
(lp2077
S':'
asbag57
(g78
g59
NtRp2078
(dp2079
g62
(dp2080
sg71
g2066
sg64
(lp2081
g57
(g58
g59
NtRp2082
(dp2083
g62
(dp2084
g70
I4
ssg71
g2078
sg64
(lp2085
S'set([])'
p2086
asbasbasbag57
(g73
g59
NtRp2087
(dp2088
g62
(dp2089
sg71
g1976
sg64
(lp2090
g57
(g78
g59
NtRp2091
(dp2092
g62
(dp2093
g82
g83
ssg71
g2087
sg64
(lp2094
g998
asbag57
(g78
g59
NtRp2095
(dp2096
g62
(dp2097
g89
g90
ssg71
g2087
sg64
(lp2098
S':'
asbag57
(g78
g59
NtRp2099
(dp2100
g62
(dp2101
sg71
g2087
sg64
(lp2102
g57
(g58
g59
NtRp2103
(dp2104
g62
(dp2105
g70
I4
ssg71
g2099
sg64
(lp2106
g100
asbasbasbag57
(g73
g59
NtRp2107
(dp2108
g62
(dp2109
sg71
g1976
sg64
(lp2110
g57
(g78
g59
NtRp2111
(dp2112
g62
(dp2113
g82
g83
ssg71
g2107
sg64
(lp2114
g1019
asbag57
(g78
g59
NtRp2115
(dp2116
g62
(dp2117
g89
g90
ssg71
g2107
sg64
(lp2118
S':'
asbag57
(g78
g59
NtRp2119
(dp2120
g62
(dp2121
sg71
g2107
sg64
(lp2122
g57
(g58
g59
NtRp2123
(dp2124
g62
(dp2125
g70
I4
ssg71
g2119
sg64
(lp2126
g1032
asbasbasbag57
(g73
g59
NtRp2127
(dp2128
g62
(dp2129
sg71
g1976
sg64
(lp2130
g57
(g78
g59
NtRp2131
(dp2132
g62
(dp2133
g82
g83
ssg71
g2127
sg64
(lp2134
g1261
asbag57
(g78
g59
NtRp2135
(dp2136
g62
(dp2137
g89
g90
ssg71
g2127
sg64
(lp2138
S':'
asbag57
(g78
g59
NtRp2139
(dp2140
g62
(dp2141
sg71
g2127
sg64
(lp2142
g57
(g58
g59
NtRp2143
(dp2144
g62
(dp2145
g70
I4
ssg71
g2139
sg64
(lp2146
g100
asbasbasbag57
(g73
g59
NtRp2147
(dp2148
g62
(dp2149
sg71
g1976
sg64
(lp2150
g57
(g78
g59
NtRp2151
(dp2152
g62
(dp2153
g82
g83
ssg71
g2147
sg64
(lp2154
g1282
asbag57
(g78
g59
NtRp2155
(dp2156
g62
(dp2157
g89
g90
ssg71
g2147
sg64
(lp2158
S':'
asbag57
(g78
g59
NtRp2159
(dp2160
g62
(dp2161
sg71
g2147
sg64
(lp2162
g57
(g58
g59
NtRp2163
(dp2164
g62
(dp2165
g70
I4
ssg71
g2159
sg64
(lp2166
g100
asbasbasbag57
(g73
g59
NtRp2167
(dp2168
g62
(dp2169
sg71
g1976
sg64
(lp2170
g57
(g78
g59
NtRp2171
(dp2172
g62
(dp2173
g82
g83
ssg71
g2167
sg64
(lp2174
g1541
asbag57
(g78
g59
NtRp2175
(dp2176
g62
(dp2177
g89
g90
ssg71
g2167
sg64
(lp2178
S':'
asbag57
(g78
g59
NtRp2179
(dp2180
g62
(dp2181
sg71
g2167
sg64
(lp2182
g57
(g58
g59
NtRp2183
(dp2184
g62
(dp2185
g70
I4
ssg71
g2179
sg64
(lp2186
g1554
asbasbasbag57
(g73
g59
NtRp2187
(dp2188
g62
(dp2189
sg71
g1976
sg64
(lp2190
g57
(g78
g59
NtRp2191
(dp2192
g62
(dp2193
g82
g83
ssg71
g2187
sg64
(lp2194
g1584
asbag57
(g78
g59
NtRp2195
(dp2196
g62
(dp2197
g89
g90
ssg71
g2187
sg64
(lp2198
S':'
asbag57
(g78
g59
NtRp2199
(dp2200
g62
(dp2201
sg71
g2187
sg64
(lp2202
g57
(g58
g59
NtRp2203
(dp2204
g62
(dp2205
g70
I4
ssg71
g2199
sg64
(lp2206
g57
(g66
g59
NtRp2207
(dp2208
g62
(dp2209
g70
I3
ssg71
Nsg64
(lp2210
g57
(g73
g59
NtRp2211
(dp2212
g62
(dp2213
sg71
g2207
sg64
(lp2214
g57
(g78
g59
NtRp2215
(dp2216
g62
(dp2217
sg71
g2211
sg64
(lp2218
g57
(g58
g59
NtRp2219
(dp2220
g62
(dp2221
g70
I3
ssg71
g2215
sg64
(lp2222
S'2'
asbasbasbag57
(g73
g59
NtRp2223
(dp2224
g62
(dp2225
sg71
g2207
sg64
(lp2226
g57
(g78
g59
NtRp2227
(dp2228
g62
(dp2229
sg71
g2223
sg64
(lp2230
g57
(g58
g59
NtRp2231
(dp2232
g62
(dp2233
g70
I3
ssg71
g2227
sg64
(lp2234
S'0'
asbasbasbag57
(g73
g59
NtRp2235
(dp2236
g62
(dp2237
sg71
g2207
sg64
(lp2238
g57
(g78
g59
NtRp2239
(dp2240
g62
(dp2241
sg71
g2235
sg64
(lp2242
g57
(g58
g59
NtRp2243
(dp2244
g62
(dp2245
g70
I3
ssg71
g2239
sg64
(lp2246
S'9'
asbasbasbag57
(g73
g59
NtRp2247
(dp2248
g62
(dp2249
sg71
g2207
sg64
(lp2250
g57
(g78
g59
NtRp2251
(dp2252
g62
(dp2253
sg71
g2247
sg64
(lp2254
g57
(g58
g59
NtRp2255
(dp2256
g62
(dp2257
g70
I3
ssg71
g2251
sg64
(lp2258
S'datetime.datetime(2012, 9, 13, 23, 51, 30)'
p2259
asbasbasbag57
(g73
g59
NtRp2260
(dp2261
g62
(dp2262
sg71
g2207
sg64
(lp2263
g57
(g78
g59
NtRp2264
(dp2265
g62
(dp2266
sg71
g2260
sg64
(lp2267
g57
(g58
g59
NtRp2268
(dp2269
g62
(dp2270
g70
I3
ssg71
g2264
sg64
(lp2271
g1662
asbasbasbasbasbasbasbasbasbasbasbag57
(g73
g59
NtRp2272
(dp2273
g62
(dp2274
sg71
g67
sg64
(lp2275
g57
(g78
g59
NtRp2276
(dp2277
g62
(dp2278
g82
g83
ssg71
g2272
sg64
(lp2279
S'is_https'
p2280
asbag57
(g78
g59
NtRp2281
(dp2282
g62
(dp2283
g89
g90
ssg71
g2272
sg64
(lp2284
S':'
asbag57
(g78
g59
NtRp2285
(dp2286
g62
(dp2287
sg71
g2272
sg64
(lp2288
g57
(g58
g59
NtRp2289
(dp2290
g62
(dp2291
g70
I5
ssg71
g2285
sg64
(lp2292
g100
asbasbasbag57
(g73
g59
NtRp2293
(dp2294
g62
(dp2295
sg71
g67
sg64
(lp2296
g57
(g78
g59
NtRp2297
(dp2298
g62
(dp2299
g82
g83
ssg71
g2293
sg64
(lp2300
S'is_local'
p2301
asbag57
(g78
g59
NtRp2302
(dp2303
g62
(dp2304
g89
g90
ssg71
g2293
sg64
(lp2305
S':'
asbag57
(g78
g59
NtRp2306
(dp2307
g62
(dp2308
sg71
g2293
sg64
(lp2309
g57
(g58
g59
NtRp2310
(dp2311
g62
(dp2312
g70
I5
ssg71
g2306
sg64
(lp2313
g1771
asbasbasbag57
(g73
g59
NtRp2314
(dp2315
g62
(dp2316
sg71
g67
sg64
(lp2317
g57
(g78
g59
NtRp2318
(dp2319
g62
(dp2320
g82
g83
ssg71
g2314
sg64
(lp2321
S'is_restful'
p2322
asbag57
(g78
g59
NtRp2323
(dp2324
g62
(dp2325
g89
g90
ssg71
g2314
sg64
(lp2326
S':'
asbag57
(g78
g59
NtRp2327
(dp2328
g62
(dp2329
sg71
g2314
sg64
(lp2330
g57
(g58
g59
NtRp2331
(dp2332
g62
(dp2333
g70
I5
ssg71
g2327
sg64
(lp2334
g100
asbasbasbag57
(g73
g59
NtRp2335
(dp2336
g62
(dp2337
sg71
g67
sg64
(lp2338
g57
(g78
g59
NtRp2339
(dp2340
g62
(dp2341
g82
g83
ssg71
g2335
sg64
(lp2342
S'now'
p2343
asbag57
(g78
g59
NtRp2344
(dp2345
g62
(dp2346
g89
g90
ssg71
g2335
sg64
(lp2347
S':'
asbag57
(g78
g59
NtRp2348
(dp2349
g62
(dp2350
sg71
g2335
sg64
(lp2351
g57
(g58
g59
NtRp2352
(dp2353
g62
(dp2354
g70
I5
ssg71
g2348
sg64
(lp2355
S'datetime.datetime(2012, 10, 16, 11, 35, 56, 511554)'
p2356
asbasbasbag57
(g73
g59
NtRp2357
(dp2358
g62
(dp2359
sg71
g67
sg64
(lp2360
g57
(g78
g59
NtRp2361
(dp2362
g62
(dp2363
g82
g83
ssg71
g2357
sg64
(lp2364
S'post_vars'
p2365
asbag57
(g78
g59
NtRp2366
(dp2367
g62
(dp2368
g89
g90
ssg71
g2357
sg64
(lp2369
S':'
asbag57
(g78
g59
NtRp2370
(dp2371
g62
(dp2372
sg71
g2357
sg64
(lp2373
g57
(g58
g59
NtRp2374
(dp2375
g62
(dp2376
g70
I5
ssg71
g2370
sg64
(lp2377
g57
(g66
g59
NtRp2378
(dp2379
g62
(dp2380
g70
I4
ssg71
Nsg64
(lp2381
sbasbasbasbag57
(g73
g59
NtRp2382
(dp2383
g62
(dp2384
sg71
g67
sg64
(lp2385
g57
(g78
g59
NtRp2386
(dp2387
g62
(dp2388
g82
g83
ssg71
g2382
sg64
(lp2389
S'raw_args'
p2390
asbag57
(g78
g59
NtRp2391
(dp2392
g62
(dp2393
g89
g90
ssg71
g2382
sg64
(lp2394
S':'
asbag57
(g78
g59
NtRp2395
(dp2396
g62
(dp2397
sg71
g2382
sg64
(lp2398
g57
(g58
g59
NtRp2399
(dp2400
g62
(dp2401
g70
I5
ssg71
g2395
sg64
(lp2402
S'new/correspondencia'
p2403
asbasbasbag57
(g73
g59
NtRp2404
(dp2405
g62
(dp2406
sg71
g67
sg64
(lp2407
g57
(g78
g59
NtRp2408
(dp2409
g62
(dp2410
g82
g83
ssg71
g2404
sg64
(lp2411
S'raw_extension'
p2412
asbag57
(g78
g59
NtRp2413
(dp2414
g62
(dp2415
g89
g90
ssg71
g2404
sg64
(lp2416
S':'
asbag57
(g78
g59
NtRp2417
(dp2418
g62
(dp2419
sg71
g2404
sg64
(lp2420
g57
(g58
g59
NtRp2421
(dp2422
g62
(dp2423
g70
I5
ssg71
g2417
sg64
(lp2424
S'None'
p2425
asbasbasbag57
(g73
g59
NtRp2426
(dp2427
g62
(dp2428
sg71
g67
sg64
(lp2429
g57
(g78
g59
NtRp2430
(dp2431
g62
(dp2432
g82
g83
ssg71
g2426
sg64
(lp2433
S'url'
p2434
asbag57
(g78
g59
NtRp2435
(dp2436
g62
(dp2437
g89
g90
ssg71
g2426
sg64
(lp2438
S':'
asbag57
(g78
g59
NtRp2439
(dp2440
g62
(dp2441
sg71
g2426
sg64
(lp2442
g57
(g58
g59
NtRp2443
(dp2444
g62
(dp2445
g70
I5
ssg71
g2439
sg64
(lp2446
g1316
asbasbasbag57
(g73
g59
NtRp2447
(dp2448
g62
(dp2449
sg71
g67
sg64
(lp2450
g57
(g78
g59
NtRp2451
(dp2452
g62
(dp2453
g82
g83
ssg71
g2447
sg64
(lp2454
S'utcnow'
p2455
asbag57
(g78
g59
NtRp2456
(dp2457
g62
(dp2458
g89
g90
ssg71
g2447
sg64
(lp2459
S':'
asbag57
(g78
g59
NtRp2460
(dp2461
g62
(dp2462
sg71
g2447
sg64
(lp2463
g57
(g58
g59
NtRp2464
(dp2465
g62
(dp2466
g70
I5
ssg71
g2460
sg64
(lp2467
S'datetime.datetime(2012, 10, 16, 16, 5, 56, 511598)'
p2468
asbasbasbag57
(g73
g59
NtRp2469
(dp2470
g62
(dp2471
sg71
g67
sg64
(lp2472
g57
(g78
g59
NtRp2473
(dp2474
g62
(dp2475
g82
g83
ssg71
g2469
sg64
(lp2476
S'uuid'
p2477
asbag57
(g78
g59
NtRp2478
(dp2479
g62
(dp2480
g89
g90
ssg71
g2469
sg64
(lp2481
S':'
asbag57
(g78
g59
NtRp2482
(dp2483
g62
(dp2484
sg71
g2469
sg64
(lp2485
g57
(g58
g59
NtRp2486
(dp2487
g62
(dp2488
g70
I5
ssg71
g2482
sg64
(lp2489
S'sicoin/127.0.0.1.2012-10-16.11-35-56.88c26872-0771-4640-a5fa-8f2a18fd1ab9'
p2490
asbasbasbag57
(g73
g59
NtRp2491
(dp2492
g62
(dp2493
sg71
g67
sg64
(lp2494
g57
(g78
g59
NtRp2495
(dp2496
g62
(dp2497
g82
g83
ssg71
g2491
sg64
(lp2498
S'vars'
p2499
asbag57
(g78
g59
NtRp2500
(dp2501
g62
(dp2502
g89
g90
ssg71
g2491
sg64
(lp2503
S':'
asbag57
(g78
g59
NtRp2504
(dp2505
g62
(dp2506
sg71
g2491
sg64
(lp2507
g57
(g58
g59
NtRp2508
(dp2509
g62
(dp2510
g70
I5
ssg71
g2504
sg64
(lp2511
g57
(g66
g59
NtRp2512
(dp2513
g62
(dp2514
g70
I4
ssg71
Nsg64
(lp2515
sbasbasbasbag57
(g73
g59
NtRp2516
(dp2517
g62
(dp2518
sg71
g67
sg64
(lp2519
g57
(g78
g59
NtRp2520
(dp2521
g62
(dp2522
g82
g83
ssg71
g2516
sg64
(lp2523
S'wsgi'
p2524
asbag57
(g78
g59
NtRp2525
(dp2526
g62
(dp2527
g89
g90
ssg71
g2516
sg64
(lp2528
S':'
asbag57
(g78
g59
NtRp2529
(dp2530
g62
(dp2531
sg71
g2516
sg64
(lp2532
g57
(g58
g59
NtRp2533
(dp2534
g62
(dp2535
g70
I5
ssg71
g2529
sg64
(lp2536
g57
(g66
g59
NtRp2537
(dp2538
g62
(dp2539
g70
I4
ssg71
Nsg64
(lp2540
g57
(g73
g59
NtRp2541
(dp2542
g62
(dp2543
sg71
g2537
sg64
(lp2544
g57
(g78
g59
NtRp2545
(dp2546
g62
(dp2547
g82
g83
ssg71
g2541
sg64
(lp2548
S'environ'
p2549
asbag57
(g78
g59
NtRp2550
(dp2551
g62
(dp2552
g89
g90
ssg71
g2541
sg64
(lp2553
S':'
asbag57
(g78
g59
NtRp2554
(dp2555
g62
(dp2556
sg71
g2541
sg64
(lp2557
g57
(g58
g59
NtRp2558
(dp2559
g62
(dp2560
g70
I4
ssg71
g2554
sg64
(lp2561
g57
(g66
g59
NtRp2562
(dp2563
g62
(dp2564
g70
I3
ssg71
Nsg64
(lp2565
g57
(g73
g59
NtRp2566
(dp2567
g62
(dp2568
sg71
g2562
sg64
(lp2569
g57
(g78
g59
NtRp2570
(dp2571
g62
(dp2572
g82
g83
ssg71
g2566
sg64
(lp2573
S'HTTP_ACCEPT'
p2574
asbag57
(g78
g59
NtRp2575
(dp2576
g62
(dp2577
g89
g90
ssg71
g2566
sg64
(lp2578
S':'
asbag57
(g78
g59
NtRp2579
(dp2580
g62
(dp2581
sg71
g2566
sg64
(lp2582
g57
(g58
g59
NtRp2583
(dp2584
g62
(dp2585
g70
I3
ssg71
g2579
sg64
(lp2586
g1054
asbasbasbag57
(g73
g59
NtRp2587
(dp2588
g62
(dp2589
sg71
g2562
sg64
(lp2590
g57
(g78
g59
NtRp2591
(dp2592
g62
(dp2593
g82
g83
ssg71
g2587
sg64
(lp2594
S'HTTP_ACCEPT_CHARSET'
p2595
asbag57
(g78
g59
NtRp2596
(dp2597
g62
(dp2598
g89
g90
ssg71
g2587
sg64
(lp2599
S':'
asbag57
(g78
g59
NtRp2600
(dp2601
g62
(dp2602
sg71
g2587
sg64
(lp2603
g57
(g58
g59
NtRp2604
(dp2605
g62
(dp2606
g70
I3
ssg71
g2600
sg64
(lp2607
g1076
asbasbasbag57
(g73
g59
NtRp2608
(dp2609
g62
(dp2610
sg71
g2562
sg64
(lp2611
g57
(g78
g59
NtRp2612
(dp2613
g62
(dp2614
g82
g83
ssg71
g2608
sg64
(lp2615
S'HTTP_ACCEPT_ENCODING'
p2616
asbag57
(g78
g59
NtRp2617
(dp2618
g62
(dp2619
g89
g90
ssg71
g2608
sg64
(lp2620
S':'
asbag57
(g78
g59
NtRp2621
(dp2622
g62
(dp2623
sg71
g2608
sg64
(lp2624
g57
(g58
g59
NtRp2625
(dp2626
g62
(dp2627
g70
I3
ssg71
g2621
sg64
(lp2628
g1098
asbasbasbag57
(g73
g59
NtRp2629
(dp2630
g62
(dp2631
sg71
g2562
sg64
(lp2632
g57
(g78
g59
NtRp2633
(dp2634
g62
(dp2635
g82
g83
ssg71
g2629
sg64
(lp2636
S'HTTP_ACCEPT_LANGUAGE'
p2637
asbag57
(g78
g59
NtRp2638
(dp2639
g62
(dp2640
g89
g90
ssg71
g2629
sg64
(lp2641
S':'
asbag57
(g78
g59
NtRp2642
(dp2643
g62
(dp2644
sg71
g2629
sg64
(lp2645
g57
(g58
g59
NtRp2646
(dp2647
g62
(dp2648
g70
I3
ssg71
g2642
sg64
(lp2649
g1120
asbasbasbag57
(g73
g59
NtRp2650
(dp2651
g62
(dp2652
sg71
g2562
sg64
(lp2653
g57
(g78
g59
NtRp2654
(dp2655
g62
(dp2656
g82
g83
ssg71
g2650
sg64
(lp2657
S'HTTP_CACHE_CONTROL'
p2658
asbag57
(g78
g59
NtRp2659
(dp2660
g62
(dp2661
g89
g90
ssg71
g2650
sg64
(lp2662
S':'
asbag57
(g78
g59
NtRp2663
(dp2664
g62
(dp2665
sg71
g2650
sg64
(lp2666
g57
(g58
g59
NtRp2667
(dp2668
g62
(dp2669
g70
I3
ssg71
g2663
sg64
(lp2670
g1142
asbasbasbag57
(g73
g59
NtRp2671
(dp2672
g62
(dp2673
sg71
g2562
sg64
(lp2674
g57
(g78
g59
NtRp2675
(dp2676
g62
(dp2677
g82
g83
ssg71
g2671
sg64
(lp2678
S'HTTP_CONNECTION'
p2679
asbag57
(g78
g59
NtRp2680
(dp2681
g62
(dp2682
g89
g90
ssg71
g2671
sg64
(lp2683
S':'
asbag57
(g78
g59
NtRp2684
(dp2685
g62
(dp2686
sg71
g2671
sg64
(lp2687
g57
(g58
g59
NtRp2688
(dp2689
g62
(dp2690
g70
I3
ssg71
g2684
sg64
(lp2691
g1164
asbasbasbag57
(g73
g59
NtRp2692
(dp2693
g62
(dp2694
sg71
g2562
sg64
(lp2695
g57
(g78
g59
NtRp2696
(dp2697
g62
(dp2698
g82
g83
ssg71
g2692
sg64
(lp2699
S'HTTP_COOKIE'
p2700
asbag57
(g78
g59
NtRp2701
(dp2702
g62
(dp2703
g89
g90
ssg71
g2692
sg64
(lp2704
S':'
asbag57
(g78
g59
NtRp2705
(dp2706
g62
(dp2707
sg71
g2692
sg64
(lp2708
g57
(g58
g59
NtRp2709
(dp2710
g62
(dp2711
g70
I3
ssg71
g2705
sg64
(lp2712
g1186
asbasbasbag57
(g73
g59
NtRp2713
(dp2714
g62
(dp2715
sg71
g2562
sg64
(lp2716
g57
(g78
g59
NtRp2717
(dp2718
g62
(dp2719
g82
g83
ssg71
g2713
sg64
(lp2720
S'HTTP_HOST'
p2721
asbag57
(g78
g59
NtRp2722
(dp2723
g62
(dp2724
g89
g90
ssg71
g2713
sg64
(lp2725
S':'
asbag57
(g78
g59
NtRp2726
(dp2727
g62
(dp2728
sg71
g2713
sg64
(lp2729
g57
(g58
g59
NtRp2730
(dp2731
g62
(dp2732
g70
I3
ssg71
g2726
sg64
(lp2733
g1208
asbasbasbag57
(g73
g59
NtRp2734
(dp2735
g62
(dp2736
sg71
g2562
sg64
(lp2737
g57
(g78
g59
NtRp2738
(dp2739
g62
(dp2740
g82
g83
ssg71
g2734
sg64
(lp2741
S'HTTP_REFERER'
p2742
asbag57
(g78
g59
NtRp2743
(dp2744
g62
(dp2745
g89
g90
ssg71
g2734
sg64
(lp2746
S':'
asbag57
(g78
g59
NtRp2747
(dp2748
g62
(dp2749
sg71
g2734
sg64
(lp2750
g57
(g58
g59
NtRp2751
(dp2752
g62
(dp2753
g70
I3
ssg71
g2747
sg64
(lp2754
g1230
asbasbasbag57
(g73
g59
NtRp2755
(dp2756
g62
(dp2757
sg71
g2562
sg64
(lp2758
g57
(g78
g59
NtRp2759
(dp2760
g62
(dp2761
g82
g83
ssg71
g2755
sg64
(lp2762
S'HTTP_USER_AGENT'
p2763
asbag57
(g78
g59
NtRp2764
(dp2765
g62
(dp2766
g89
g90
ssg71
g2755
sg64
(lp2767
S':'
asbag57
(g78
g59
NtRp2768
(dp2769
g62
(dp2770
sg71
g2755
sg64
(lp2771
g57
(g58
g59
NtRp2772
(dp2773
g62
(dp2774
g70
I3
ssg71
g2768
sg64
(lp2775
g1252
asbasbasbag57
(g73
g59
NtRp2776
(dp2777
g62
(dp2778
sg71
g2562
sg64
(lp2779
g57
(g78
g59
NtRp2780
(dp2781
g62
(dp2782
g82
g83
ssg71
g2776
sg64
(lp2783
S'PATH_INFO'
p2784
asbag57
(g78
g59
NtRp2785
(dp2786
g62
(dp2787
g89
g90
ssg71
g2776
sg64
(lp2788
S':'
asbag57
(g78
g59
NtRp2789
(dp2790
g62
(dp2791
sg71
g2776
sg64
(lp2792
g57
(g58
g59
NtRp2793
(dp2794
g62
(dp2795
g70
I3
ssg71
g2789
sg64
(lp2796
g1316
asbasbasbag57
(g73
g59
NtRp2797
(dp2798
g62
(dp2799
sg71
g2562
sg64
(lp2800
g57
(g78
g59
NtRp2801
(dp2802
g62
(dp2803
g82
g83
ssg71
g2797
sg64
(lp2804
S'QUERY_STRING'
p2805
asbag57
(g78
g59
NtRp2806
(dp2807
g62
(dp2808
g89
g90
ssg71
g2797
sg64
(lp2809
S':'
asbag57
(g78
g59
NtRp2810
(dp2811
g62
(dp2812
sg71
g2797
sg64
(lp2813
g57
(g58
g59
NtRp2814
(dp2815
g62
(dp2816
g70
I3
ssg71
g2810
sg64
(lp2817
S''
asbasbasbag57
(g73
g59
NtRp2818
(dp2819
g62
(dp2820
sg71
g2562
sg64
(lp2821
g57
(g78
g59
NtRp2822
(dp2823
g62
(dp2824
g82
g83
ssg71
g2818
sg64
(lp2825
S'REMOTE_ADDR'
p2826
asbag57
(g78
g59
NtRp2827
(dp2828
g62
(dp2829
g89
g90
ssg71
g2818
sg64
(lp2830
S':'
asbag57
(g78
g59
NtRp2831
(dp2832
g62
(dp2833
sg71
g2818
sg64
(lp2834
g57
(g58
g59
NtRp2835
(dp2836
g62
(dp2837
g70
I3
ssg71
g2831
sg64
(lp2838
g238
asbasbasbag57
(g73
g59
NtRp2839
(dp2840
g62
(dp2841
sg71
g2562
sg64
(lp2842
g57
(g78
g59
NtRp2843
(dp2844
g62
(dp2845
g82
g83
ssg71
g2839
sg64
(lp2846
S'REMOTE_PORT'
p2847
asbag57
(g78
g59
NtRp2848
(dp2849
g62
(dp2850
g89
g90
ssg71
g2839
sg64
(lp2851
S':'
asbag57
(g78
g59
NtRp2852
(dp2853
g62
(dp2854
sg71
g2839
sg64
(lp2855
g57
(g58
g59
NtRp2856
(dp2857
g62
(dp2858
g70
I3
ssg71
g2852
sg64
(lp2859
g1380
asbasbasbag57
(g73
g59
NtRp2860
(dp2861
g62
(dp2862
sg71
g2562
sg64
(lp2863
g57
(g78
g59
NtRp2864
(dp2865
g62
(dp2866
g82
g83
ssg71
g2860
sg64
(lp2867
S'REQUEST_METHOD'
p2868
asbag57
(g78
g59
NtRp2869
(dp2870
g62
(dp2871
g89
g90
ssg71
g2860
sg64
(lp2872
S':'
asbag57
(g78
g59
NtRp2873
(dp2874
g62
(dp2875
sg71
g2860
sg64
(lp2876
g57
(g58
g59
NtRp2877
(dp2878
g62
(dp2879
g70
I3
ssg71
g2873
sg64
(lp2880
g1402
asbasbasbag57
(g73
g59
NtRp2881
(dp2882
g62
(dp2883
sg71
g2562
sg64
(lp2884
g57
(g78
g59
NtRp2885
(dp2886
g62
(dp2887
g82
g83
ssg71
g2881
sg64
(lp2888
S'REQUEST_URI'
p2889
asbag57
(g78
g59
NtRp2890
(dp2891
g62
(dp2892
g89
g90
ssg71
g2881
sg64
(lp2893
S':'
asbag57
(g78
g59
NtRp2894
(dp2895
g62
(dp2896
sg71
g2881
sg64
(lp2897
g57
(g58
g59
NtRp2898
(dp2899
g62
(dp2900
g70
I3
ssg71
g2894
sg64
(lp2901
g1316
asbasbasbag57
(g73
g59
NtRp2902
(dp2903
g62
(dp2904
sg71
g2562
sg64
(lp2905
g57
(g78
g59
NtRp2906
(dp2907
g62
(dp2908
g82
g83
ssg71
g2902
sg64
(lp2909
S'SCRIPT_NAME'
p2910
asbag57
(g78
g59
NtRp2911
(dp2912
g62
(dp2913
g89
g90
ssg71
g2902
sg64
(lp2914
S':'
asbag57
(g78
g59
NtRp2915
(dp2916
g62
(dp2917
sg71
g2902
sg64
(lp2918
g57
(g58
g59
NtRp2919
(dp2920
g62
(dp2921
g70
I3
ssg71
g2915
sg64
(lp2922
S''
asbasbasbag57
(g73
g59
NtRp2923
(dp2924
g62
(dp2925
sg71
g2562
sg64
(lp2926
g57
(g78
g59
NtRp2927
(dp2928
g62
(dp2929
g82
g83
ssg71
g2923
sg64
(lp2930
S'SERVER_NAME'
p2931
asbag57
(g78
g59
NtRp2932
(dp2933
g62
(dp2934
g89
g90
ssg71
g2923
sg64
(lp2935
S':'
asbag57
(g78
g59
NtRp2936
(dp2937
g62
(dp2938
sg71
g2923
sg64
(lp2939
g57
(g58
g59
NtRp2940
(dp2941
g62
(dp2942
g70
I3
ssg71
g2936
sg64
(lp2943
g1466
asbasbasbag57
(g73
g59
NtRp2944
(dp2945
g62
(dp2946
sg71
g2562
sg64
(lp2947
g57
(g78
g59
NtRp2948
(dp2949
g62
(dp2950
g82
g83
ssg71
g2944
sg64
(lp2951
S'SERVER_PORT'
p2952
asbag57
(g78
g59
NtRp2953
(dp2954
g62
(dp2955
g89
g90
ssg71
g2944
sg64
(lp2956
S':'
asbag57
(g78
g59
NtRp2957
(dp2958
g62
(dp2959
sg71
g2944
sg64
(lp2960
g57
(g58
g59
NtRp2961
(dp2962
g62
(dp2963
g70
I3
ssg71
g2957
sg64
(lp2964
g1488
asbasbasbag57
(g73
g59
NtRp2965
(dp2966
g62
(dp2967
sg71
g2562
sg64
(lp2968
g57
(g78
g59
NtRp2969
(dp2970
g62
(dp2971
g82
g83
ssg71
g2965
sg64
(lp2972
S'SERVER_PROTOCOL'
p2973
asbag57
(g78
g59
NtRp2974
(dp2975
g62
(dp2976
g89
g90
ssg71
g2965
sg64
(lp2977
S':'
asbag57
(g78
g59
NtRp2978
(dp2979
g62
(dp2980
sg71
g2965
sg64
(lp2981
g57
(g58
g59
NtRp2982
(dp2983
g62
(dp2984
g70
I3
ssg71
g2978
sg64
(lp2985
g1510
asbasbasbag57
(g73
g59
NtRp2986
(dp2987
g62
(dp2988
sg71
g2562
sg64
(lp2989
g57
(g78
g59
NtRp2990
(dp2991
g62
(dp2992
g82
g83
ssg71
g2986
sg64
(lp2993
S'SERVER_SOFTWARE'
p2994
asbag57
(g78
g59
NtRp2995
(dp2996
g62
(dp2997
g89
g90
ssg71
g2986
sg64
(lp2998
S':'
asbag57
(g78
g59
NtRp2999
(dp3000
g62
(dp3001
sg71
g2986
sg64
(lp3002
g57
(g58
g59
NtRp3003
(dp3004
g62
(dp3005
g70
I3
ssg71
g2999
sg64
(lp3006
g1532
asbasbasbag57
(g73
g59
NtRp3007
(dp3008
g62
(dp3009
sg71
g2562
sg64
(lp3010
g57
(g78
g59
NtRp3011
(dp3012
g62
(dp3013
g82
g83
ssg71
g3007
sg64
(lp3014
S'wsgi.errors'
p3015
asbag57
(g78
g59
NtRp3016
(dp3017
g62
(dp3018
g89
g90
ssg71
g3007
sg64
(lp3019
S':'
asbag57
(g78
g59
NtRp3020
(dp3021
g62
(dp3022
sg71
g3007
sg64
(lp3023
g57
(g58
g59
NtRp3024
(dp3025
g62
(dp3026
g70
I3
ssg71
g3020
sg64
(lp3027
S"<open file '<stderr>', mode 'w' at 0xb76d90d0>"
p3028
asbasbasbag57
(g73
g59
NtRp3029
(dp3030
g62
(dp3031
sg71
g2562
sg64
(lp3032
g57
(g78
g59
NtRp3033
(dp3034
g62
(dp3035
g82
g83
ssg71
g3029
sg64
(lp3036
S'wsgi.file_wrapper'
p3037
asbag57
(g78
g59
NtRp3038
(dp3039
g62
(dp3040
g89
g90
ssg71
g3029
sg64
(lp3041
S':'
asbag57
(g78
g59
NtRp3042
(dp3043
g62
(dp3044
sg71
g3029
sg64
(lp3045
g57
(g58
g59
NtRp3046
(dp3047
g62
(dp3048
g70
I3
ssg71
g3042
sg64
(lp3049
S'<class wsgiref.util.FileWrapper at 0x943386c>'
p3050
asbasbasbag57
(g73
g59
NtRp3051
(dp3052
g62
(dp3053
sg71
g2562
sg64
(lp3054
g57
(g78
g59
NtRp3055
(dp3056
g62
(dp3057
g82
g83
ssg71
g3051
sg64
(lp3058
S'wsgi.input'
p3059
asbag57
(g78
g59
NtRp3060
(dp3061
g62
(dp3062
g89
g90
ssg71
g3051
sg64
(lp3063
S':'
asbag57
(g78
g59
NtRp3064
(dp3065
g62
(dp3066
sg71
g3051
sg64
(lp3067
g57
(g58
g59
NtRp3068
(dp3069
g62
(dp3070
g70
I3
ssg71
g3064
sg64
(lp3071
S'<cStringIO.StringO object at 0xa6bd5e0>'
p3072
asbasbasbag57
(g73
g59
NtRp3073
(dp3074
g62
(dp3075
sg71
g2562
sg64
(lp3076
g57
(g78
g59
NtRp3077
(dp3078
g62
(dp3079
g82
g83
ssg71
g3073
sg64
(lp3080
S'wsgi.multiprocess'
p3081
asbag57
(g78
g59
NtRp3082
(dp3083
g62
(dp3084
g89
g90
ssg71
g3073
sg64
(lp3085
S':'
asbag57
(g78
g59
NtRp3086
(dp3087
g62
(dp3088
sg71
g3073
sg64
(lp3089
g57
(g58
g59
NtRp3090
(dp3091
g62
(dp3092
g70
I3
ssg71
g3086
sg64
(lp3093
g100
asbasbasbag57
(g73
g59
NtRp3094
(dp3095
g62
(dp3096
sg71
g2562
sg64
(lp3097
g57
(g78
g59
NtRp3098
(dp3099
g62
(dp3100
g82
g83
ssg71
g3094
sg64
(lp3101
S'wsgi.multithread'
p3102
asbag57
(g78
g59
NtRp3103
(dp3104
g62
(dp3105
g89
g90
ssg71
g3094
sg64
(lp3106
S':'
asbag57
(g78
g59
NtRp3107
(dp3108
g62
(dp3109
sg71
g3094
sg64
(lp3110
g57
(g58
g59
NtRp3111
(dp3112
g62
(dp3113
g70
I3
ssg71
g3107
sg64
(lp3114
g1771
asbasbasbag57
(g73
g59
NtRp3115
(dp3116
g62
(dp3117
sg71
g2562
sg64
(lp3118
g57
(g78
g59
NtRp3119
(dp3120
g62
(dp3121
g82
g83
ssg71
g3115
sg64
(lp3122
S'wsgi.run_once'
p3123
asbag57
(g78
g59
NtRp3124
(dp3125
g62
(dp3126
g89
g90
ssg71
g3115
sg64
(lp3127
S':'
asbag57
(g78
g59
NtRp3128
(dp3129
g62
(dp3130
sg71
g3115
sg64
(lp3131
g57
(g58
g59
NtRp3132
(dp3133
g62
(dp3134
g70
I3
ssg71
g3128
sg64
(lp3135
g100
asbasbasbag57
(g73
g59
NtRp3136
(dp3137
g62
(dp3138
sg71
g2562
sg64
(lp3139
g57
(g78
g59
NtRp3140
(dp3141
g62
(dp3142
g82
g83
ssg71
g3136
sg64
(lp3143
S'wsgi.url_scheme'
p3144
asbag57
(g78
g59
NtRp3145
(dp3146
g62
(dp3147
g89
g90
ssg71
g3136
sg64
(lp3148
S':'
asbag57
(g78
g59
NtRp3149
(dp3150
g62
(dp3151
sg71
g3136
sg64
(lp3152
g57
(g58
g59
NtRp3153
(dp3154
g62
(dp3155
g70
I3
ssg71
g3149
sg64
(lp3156
g1814
asbasbasbag57
(g73
g59
NtRp3157
(dp3158
g62
(dp3159
sg71
g2562
sg64
(lp3160
g57
(g78
g59
NtRp3161
(dp3162
g62
(dp3163
g82
g83
ssg71
g3157
sg64
(lp3164
S'wsgi.version'
p3165
asbag57
(g78
g59
NtRp3166
(dp3167
g62
(dp3168
g89
g90
ssg71
g3157
sg64
(lp3169
S':'
asbag57
(g78
g59
NtRp3170
(dp3171
g62
(dp3172
sg71
g3157
sg64
(lp3173
g57
(g58
g59
NtRp3174
(dp3175
g62
(dp3176
g70
I3
ssg71
g3170
sg64
(lp3177
S'1'
asbasbasbasbasbasbasbasbasbasbasbasbasbsS'frames'
p3178
(lp3179
(dp3180
S'file'
p3181
S'/home/perdomor/web2py/gluon/restricted.py'
p3182
sS'dump'
p3183
(dp3184
S'environment'
p3185
S"{'A': <class 'gluon.html.A'>, 'Auth': <class 'gluon.tools.Auth'>, 'B': <class 'gluon.html.B'>, 'BEAUTIFY': <class 'gluon.html.BEAUTIFY'>, 'BODY': <class 'gluon.html.BODY'>, 'BR': <class 'gluon.html.BR'>, 'BUTTON': <class 'gluon.html.BUTTON'>, 'CAT': <class 'gluon.html.CAT'>, 'CENTER': <class 'gluon.html.CENTER'>, 'CLEANUP': <class 'gluon.validators.CLEANUP'>, ...}"
p3186
sS'ccode'
p3187
S'<code object <module> at 0xaa03068, file "/home/...eb2py/applications/sicoin/models/db.py", line 12>'
p3188
ssS'lnum'
p3189
I209
sS'lines'
p3190
(dp3191
I204
S'    try:'
p3192
sI205
S'        if type(code) == types.CodeType:'
p3193
sI206
S'            ccode = code'
p3194
sI207
S'        else:'
p3195
sI208
S'            ccode = compile2(code,layer)'
p3196
sI209
S'        exec ccode in environment'
p3197
sI210
S'    except HTTP:'
p3198
sI211
S'        raise'
p3199
sI212
S'    except RestrictedError:'
p3200
sI213
S'        # do not encapsulate (obfuscate) the original RestrictedError'
p3201
ssS'call'
p3202
S'(code="# -*- coding: utf-8 -*-\\n\\n#######################...query(\'read\',db.client)),\'client.id\',\'%(name)s\')\\n", environment={\'A\': <class \'gluon.html.A\'>, \'Auth\': <class \'gluon.tools.Auth\'>, \'B\': <class \'gluon.html.B\'>, \'BEAUTIFY\': <class \'gluon.html.BEAUTIFY\'>, \'BODY\': <class \'gluon.html.BODY\'>, \'BR\': <class \'gluon.html.BR\'>, \'BUTTON\': <class \'gluon.html.BUTTON\'>, \'CAT\': <class \'gluon.html.CAT\'>, \'CENTER\': <class \'gluon.html.CENTER\'>, \'CLEANUP\': <class \'gluon.validators.CLEANUP\'>, ...}, layer=\'/home/perdomor/web2py/applications/sicoin/models/db.py\')'
p3203
sS'func'
p3204
S'restricted'
p3205
sa(dp3206
g3181
S'/home/perdomor/web2py/applications/sicoin/models/db.py'
p3207
sg3183
(dp3208
S'db.auth_user.departamento'
p3209
S'<gluon.dal.Field object>'
p3210
sS'db.correspondencia.asignado_a'
p3211
S'<gluon.dal.Field object>'
p3212
sS'session.auth'
p3213
S"<Storage {'hmac_key': '2b016245-ede1-4c56-8463-7...user_groups': {5: 'recepcionista', 6: 'user_2'}}>"
p3214
sS'db'
p3215
S'<DAL mysql://root:12345@localhost/db_sicoin>'
p3216
sS'IS_IN_DB'
p3217
S"<class 'gluon.validators.IS_IN_DB'>"
p3218
sS'session.auth.user'
p3219
S"<Row {'first_name': 'Leonardo', 'last_name': 'Sa...a0bdf1954ecfd', 'registration_key': '', 'id': 2}>"
p3220
sS'session'
p3221
S'<Storage {\'_Session__hash\': "\\xfd\\x1f\\xfc\\x91&Z\\...sicoin/correspondencia/listar_correspondencias\'}>'
p3222
sS'session.auth.user.departamento'
p3223
S'2'
sS'db.auth_user'
p3224
S'<Table auth_user (id,first_name,last_name,email,...reset_password_key,registration_id,departamento)>'
p3225
sS'db.correspondencia'
p3226
S'<Table correspondencia (id,nro_oficio,fecha_regi...amento_destino,motivo,asignado_a,registrado_por)>'
p3227
sS'db.correspondencia.asignado_a.requires'
p3228
S'<gluon.validators.IS_IN_DB object>'
p3229
ssg3189
I166
sg3190
(dp3230
I160
S'    plural = "Dependencias",'
p3231
sI161
S')'
sI162
S''
sI163
S'#db.correspondencia.asignado_a.requires = IS_IN_DB(db(db.auth_user.departamento==session.auth.user.departamento), db.auth_user.id) if auth.is_logged_in() else None'
p3232
sI164
S''
sI165
S'if auth.is_logged_in():'
p3233
sI166
S"    db.correspondencia.asignado_a.requires=IS_IN_DB(db(db.auth_user.departamento==session.auth.user.departamento), 'db.auth_user.id','%(first_name)s')"
p3234
sI167
S''
sI168
S"#db.address.id_client.requires=IS_IN_DB(db(auth.accessible_query('read',db.client)),'client.id','%(name)s')"
p3235
sI159
S'    singular = "Dependencia",'
p3236
ssg3202
S'()'
p3237
sg3204
S'<module>'
p3238
sa(dp3239
g3181
S'/home/perdomor/web2py/gluon/validators.py'
p3240
sg3183
(dp3241
S'builtinstr'
p3242
S"<type 'str'>"
p3243
sS'field'
p3244
S"'db.auth_user.id'"
p3245
sS'kfield'
p3246
S'undefined'
p3247
sS').split'
p3248
S'<built-in method split of str object>'
p3249
sS'ktable'
p3250
g3247
ssg3189
I421
sg3190
(dp3251
I416
S''
sI417
S"        if hasattr(dbset, 'define_table'):"
p3252
sI418
S'            self.dbset = dbset()'
p3253
sI419
S'        else:'
p3254
sI420
S'            self.dbset = dbset'
p3255
sI421
S"        (ktable, kfield) = str(field).split('.')"
p3256
sI422
S'        if not label:'
p3257
sI423
S"            label = '%%(%s)s' % kfield"
p3258
sI424
S'        if isinstance(label,str):'
p3259
sI425
S'            if regex1.match(str(label)):'
p3260
ssg3202
S"(self=<gluon.validators.IS_IN_DB object>, dbset=<Set (auth_user.departamento = 2)>, field='db.auth_user.id', label='%(first_name)s', error_message='value not in database', orderby=None, groupby=None, distinct=None, cache=None, multiple=False, zero='', sort=False, _and=None)"
p3261
sg3204
g50
sasS'pyver'
p3262
S'Python 2.7.2+: /usr/bin/python'
p3263
sS'session'
p3264
g57
(g58
g59
NtRp3265
(dp3266
g62
(dp3267
sg64
(lp3268
g57
(g66
g59
NtRp3269
(dp3270
g62
(dp3271
g70
I5
ssg71
Nsg64
(lp3272
g57
(g73
g59
NtRp3273
(dp3274
g62
(dp3275
sg71
g3269
sg64
(lp3276
g57
(g78
g59
NtRp3277
(dp3278
g62
(dp3279
g82
g83
ssg71
g3273
sg64
(lp3280
S'auth'
p3281
asbag57
(g78
g59
NtRp3282
(dp3283
g62
(dp3284
g89
g90
ssg71
g3273
sg64
(lp3285
S':'
asbag57
(g78
g59
NtRp3286
(dp3287
g62
(dp3288
sg71
g3273
sg64
(lp3289
g57
(g58
g59
NtRp3290
(dp3291
g62
(dp3292
g70
I5
ssg71
g3286
sg64
(lp3293
g57
(g66
g59
NtRp3294
(dp3295
g62
(dp3296
g70
I4
ssg71
Nsg64
(lp3297
g57
(g73
g59
NtRp3298
(dp3299
g62
(dp3300
sg71
g3294
sg64
(lp3301
g57
(g78
g59
NtRp3302
(dp3303
g62
(dp3304
g82
g83
ssg71
g3298
sg64
(lp3305
S'expiration'
p3306
asbag57
(g78
g59
NtRp3307
(dp3308
g62
(dp3309
g89
g90
ssg71
g3298
sg64
(lp3310
S':'
asbag57
(g78
g59
NtRp3311
(dp3312
g62
(dp3313
sg71
g3298
sg64
(lp3314
g57
(g58
g59
NtRp3315
(dp3316
g62
(dp3317
g70
I4
ssg71
g3311
sg64
(lp3318
S'3600'
p3319
asbasbasbag57
(g73
g59
NtRp3320
(dp3321
g62
(dp3322
sg71
g3294
sg64
(lp3323
g57
(g78
g59
NtRp3324
(dp3325
g62
(dp3326
g82
g83
ssg71
g3320
sg64
(lp3327
S'hmac_key'
p3328
asbag57
(g78
g59
NtRp3329
(dp3330
g62
(dp3331
g89
g90
ssg71
g3320
sg64
(lp3332
S':'
asbag57
(g78
g59
NtRp3333
(dp3334
g62
(dp3335
sg71
g3320
sg64
(lp3336
g57
(g58
g59
NtRp3337
(dp3338
g62
(dp3339
g70
I4
ssg71
g3333
sg64
(lp3340
S'2b016245-ede1-4c56-8463-70652dd31323'
p3341
asbasbasbag57
(g73
g59
NtRp3342
(dp3343
g62
(dp3344
sg71
g3294
sg64
(lp3345
g57
(g78
g59
NtRp3346
(dp3347
g62
(dp3348
g82
g83
ssg71
g3342
sg64
(lp3349
S'last_visit'
p3350
asbag57
(g78
g59
NtRp3351
(dp3352
g62
(dp3353
g89
g90
ssg71
g3342
sg64
(lp3354
S':'
asbag57
(g78
g59
NtRp3355
(dp3356
g62
(dp3357
sg71
g3342
sg64
(lp3358
g57
(g58
g59
NtRp3359
(dp3360
g62
(dp3361
g70
I4
ssg71
g3355
sg64
(lp3362
S'datetime.datetime(2012, 10, 16, 11, 35, 56, 511554)'
p3363
asbasbasbag57
(g73
g59
NtRp3364
(dp3365
g62
(dp3366
sg71
g3294
sg64
(lp3367
g57
(g78
g59
NtRp3368
(dp3369
g62
(dp3370
g82
g83
ssg71
g3364
sg64
(lp3371
S'remember'
p3372
asbag57
(g78
g59
NtRp3373
(dp3374
g62
(dp3375
g89
g90
ssg71
g3364
sg64
(lp3376
S':'
asbag57
(g78
g59
NtRp3377
(dp3378
g62
(dp3379
sg71
g3364
sg64
(lp3380
g57
(g58
g59
NtRp3381
(dp3382
g62
(dp3383
g70
I4
ssg71
g3377
sg64
(lp3384
g100
asbasbasbag57
(g73
g59
NtRp3385
(dp3386
g62
(dp3387
sg71
g3294
sg64
(lp3388
g57
(g78
g59
NtRp3389
(dp3390
g62
(dp3391
g82
g83
ssg71
g3385
sg64
(lp3392
S'user'
p3393
asbag57
(g78
g59
NtRp3394
(dp3395
g62
(dp3396
g89
g90
ssg71
g3385
sg64
(lp3397
S':'
asbag57
(g78
g59
NtRp3398
(dp3399
g62
(dp3400
sg71
g3385
sg64
(lp3401
g57
(g58
g59
NtRp3402
(dp3403
g62
(dp3404
g70
I4
ssg71
g3398
sg64
(lp3405
g57
(g66
g59
NtRp3406
(dp3407
g62
(dp3408
g70
I3
ssg71
Nsg64
(lp3409
g57
(g73
g59
NtRp3410
(dp3411
g62
(dp3412
sg71
g3406
sg64
(lp3413
g57
(g78
g59
NtRp3414
(dp3415
g62
(dp3416
g82
g83
ssg71
g3410
sg64
(lp3417
S'departamento'
p3418
asbag57
(g78
g59
NtRp3419
(dp3420
g62
(dp3421
g89
g90
ssg71
g3410
sg64
(lp3422
S':'
asbag57
(g78
g59
NtRp3423
(dp3424
g62
(dp3425
sg71
g3410
sg64
(lp3426
g57
(g58
g59
NtRp3427
(dp3428
g62
(dp3429
g70
I3
ssg71
g3423
sg64
(lp3430
S'2'
asbasbasbag57
(g73
g59
NtRp3431
(dp3432
g62
(dp3433
sg71
g3406
sg64
(lp3434
g57
(g78
g59
NtRp3435
(dp3436
g62
(dp3437
g82
g83
ssg71
g3431
sg64
(lp3438
S'email'
p3439
asbag57
(g78
g59
NtRp3440
(dp3441
g62
(dp3442
g89
g90
ssg71
g3431
sg64
(lp3443
S':'
asbag57
(g78
g59
NtRp3444
(dp3445
g62
(dp3446
sg71
g3431
sg64
(lp3447
g57
(g58
g59
NtRp3448
(dp3449
g62
(dp3450
g70
I3
ssg71
g3444
sg64
(lp3451
S'saal@ucv.ve'
p3452
asbasbasbag57
(g73
g59
NtRp3453
(dp3454
g62
(dp3455
sg71
g3406
sg64
(lp3456
g57
(g78
g59
NtRp3457
(dp3458
g62
(dp3459
g82
g83
ssg71
g3453
sg64
(lp3460
S'first_name'
p3461
asbag57
(g78
g59
NtRp3462
(dp3463
g62
(dp3464
g89
g90
ssg71
g3453
sg64
(lp3465
S':'
asbag57
(g78
g59
NtRp3466
(dp3467
g62
(dp3468
sg71
g3453
sg64
(lp3469
g57
(g58
g59
NtRp3470
(dp3471
g62
(dp3472
g70
I3
ssg71
g3466
sg64
(lp3473
S'Leonardo'
p3474
asbasbasbag57
(g73
g59
NtRp3475
(dp3476
g62
(dp3477
sg71
g3406
sg64
(lp3478
g57
(g78
g59
NtRp3479
(dp3480
g62
(dp3481
g82
g83
ssg71
g3475
sg64
(lp3482
S'id'
p3483
asbag57
(g78
g59
NtRp3484
(dp3485
g62
(dp3486
g89
g90
ssg71
g3475
sg64
(lp3487
S':'
asbag57
(g78
g59
NtRp3488
(dp3489
g62
(dp3490
sg71
g3475
sg64
(lp3491
g57
(g58
g59
NtRp3492
(dp3493
g62
(dp3494
g70
I3
ssg71
g3488
sg64
(lp3495
S'2'
asbasbasbag57
(g73
g59
NtRp3496
(dp3497
g62
(dp3498
sg71
g3406
sg64
(lp3499
g57
(g78
g59
NtRp3500
(dp3501
g62
(dp3502
g82
g83
ssg71
g3496
sg64
(lp3503
S'last_name'
p3504
asbag57
(g78
g59
NtRp3505
(dp3506
g62
(dp3507
g89
g90
ssg71
g3496
sg64
(lp3508
S':'
asbag57
(g78
g59
NtRp3509
(dp3510
g62
(dp3511
sg71
g3496
sg64
(lp3512
g57
(g58
g59
NtRp3513
(dp3514
g62
(dp3515
g70
I3
ssg71
g3509
sg64
(lp3516
S'Saa'
p3517
asbasbasbag57
(g73
g59
NtRp3518
(dp3519
g62
(dp3520
sg71
g3406
sg64
(lp3521
g57
(g78
g59
NtRp3522
(dp3523
g62
(dp3524
g82
g83
ssg71
g3518
sg64
(lp3525
S'password'
p3526
asbag57
(g78
g59
NtRp3527
(dp3528
g62
(dp3529
g89
g90
ssg71
g3518
sg64
(lp3530
S':'
asbag57
(g78
g59
NtRp3531
(dp3532
g62
(dp3533
sg71
g3518
sg64
(lp3534
g57
(g58
g59
NtRp3535
(dp3536
g62
(dp3537
g70
I3
ssg71
g3531
sg64
(lp3538
S'pbkdf2(1000,20,sha512)$82a075200765ae7e$59782faf9be17e441a838c42477a0bdf1954ecfd'
p3539
asbasbasbag57
(g73
g59
NtRp3540
(dp3541
g62
(dp3542
sg71
g3406
sg64
(lp3543
g57
(g78
g59
NtRp3544
(dp3545
g62
(dp3546
g82
g83
ssg71
g3540
sg64
(lp3547
S'registration_id'
p3548
asbag57
(g78
g59
NtRp3549
(dp3550
g62
(dp3551
g89
g90
ssg71
g3540
sg64
(lp3552
S':'
asbag57
(g78
g59
NtRp3553
(dp3554
g62
(dp3555
sg71
g3540
sg64
(lp3556
g57
(g58
g59
NtRp3557
(dp3558
g62
(dp3559
g70
I3
ssg71
g3553
sg64
(lp3560
S''
asbasbasbag57
(g73
g59
NtRp3561
(dp3562
g62
(dp3563
sg71
g3406
sg64
(lp3564
g57
(g78
g59
NtRp3565
(dp3566
g62
(dp3567
g82
g83
ssg71
g3561
sg64
(lp3568
S'registration_key'
p3569
asbag57
(g78
g59
NtRp3570
(dp3571
g62
(dp3572
g89
g90
ssg71
g3561
sg64
(lp3573
S':'
asbag57
(g78
g59
NtRp3574
(dp3575
g62
(dp3576
sg71
g3561
sg64
(lp3577
g57
(g58
g59
NtRp3578
(dp3579
g62
(dp3580
g70
I3
ssg71
g3574
sg64
(lp3581
S''
asbasbasbag57
(g73
g59
NtRp3582
(dp3583
g62
(dp3584
sg71
g3406
sg64
(lp3585
g57
(g78
g59
NtRp3586
(dp3587
g62
(dp3588
g82
g83
ssg71
g3582
sg64
(lp3589
S'reset_password_key'
p3590
asbag57
(g78
g59
NtRp3591
(dp3592
g62
(dp3593
g89
g90
ssg71
g3582
sg64
(lp3594
S':'
asbag57
(g78
g59
NtRp3595
(dp3596
g62
(dp3597
sg71
g3582
sg64
(lp3598
g57
(g58
g59
NtRp3599
(dp3600
g62
(dp3601
g70
I3
ssg71
g3595
sg64
(lp3602
S''
asbasbasbasbasbasbasbag57
(g73
g59
NtRp3603
(dp3604
g62
(dp3605
sg71
g3294
sg64
(lp3606
g57
(g78
g59
NtRp3607
(dp3608
g62
(dp3609
g82
g83
ssg71
g3603
sg64
(lp3610
S'user_groups'
p3611
asbag57
(g78
g59
NtRp3612
(dp3613
g62
(dp3614
g89
g90
ssg71
g3603
sg64
(lp3615
S':'
asbag57
(g78
g59
NtRp3616
(dp3617
g62
(dp3618
sg71
g3603
sg64
(lp3619
g57
(g58
g59
NtRp3620
(dp3621
g62
(dp3622
g70
I4
ssg71
g3616
sg64
(lp3623
g57
(g66
g59
NtRp3624
(dp3625
g62
(dp3626
g70
I3
ssg71
Nsg64
(lp3627
g57
(g73
g59
NtRp3628
(dp3629
g62
(dp3630
sg71
g3624
sg64
(lp3631
g57
(g78
g59
NtRp3632
(dp3633
g62
(dp3634
g82
g83
ssg71
g3628
sg64
(lp3635
S'5'
asbag57
(g78
g59
NtRp3636
(dp3637
g62
(dp3638
g89
g90
ssg71
g3628
sg64
(lp3639
S':'
asbag57
(g78
g59
NtRp3640
(dp3641
g62
(dp3642
sg71
g3628
sg64
(lp3643
g57
(g58
g59
NtRp3644
(dp3645
g62
(dp3646
g70
I3
ssg71
g3640
sg64
(lp3647
S'recepcionista'
p3648
asbasbasbag57
(g73
g59
NtRp3649
(dp3650
g62
(dp3651
sg71
g3624
sg64
(lp3652
g57
(g78
g59
NtRp3653
(dp3654
g62
(dp3655
g82
g83
ssg71
g3649
sg64
(lp3656
S'6'
asbag57
(g78
g59
NtRp3657
(dp3658
g62
(dp3659
g89
g90
ssg71
g3649
sg64
(lp3660
S':'
asbag57
(g78
g59
NtRp3661
(dp3662
g62
(dp3663
sg71
g3649
sg64
(lp3664
g57
(g58
g59
NtRp3665
(dp3666
g62
(dp3667
g70
I3
ssg71
g3661
sg64
(lp3668
S'user_2'
p3669
asbasbasbasbasbasbasbasbasbasbasbag57
(g73
g59
NtRp3670
(dp3671
g62
(dp3672
sg71
g3269
sg64
(lp3673
g57
(g78
g59
NtRp3674
(dp3675
g62
(dp3676
g82
g83
ssg71
g3670
sg64
(lp3677
S'flash'
p3678
asbag57
(g78
g59
NtRp3679
(dp3680
g62
(dp3681
g89
g90
ssg71
g3670
sg64
(lp3682
S':'
asbag57
(g78
g59
NtRp3683
(dp3684
g62
(dp3685
sg71
g3670
sg64
(lp3686
g57
(g58
g59
NtRp3687
(dp3688
g62
(dp3689
g70
I5
ssg71
g3683
sg64
(lp3690
S'None'
p3691
asbasbasbasbasbsS'etype'
p3692
S"<type 'exceptions.ValueError'>"
p3693
sS'date'
p3694
S'Tue Oct 16 11:35:56 2012'
p3695
sS'response'
p3696
g57
(g58
g59
NtRp3697
(dp3698
g62
(dp3699
sg64
(lp3700
g57
(g66
g59
NtRp3701
(dp3702
g62
(dp3703
g70
I5
ssg71
Nsg64
(lp3704
g57
(g73
g59
NtRp3705
(dp3706
g62
(dp3707
sg71
g3701
sg64
(lp3708
g57
(g78
g59
NtRp3709
(dp3710
g62
(dp3711
g82
g83
ssg71
g3705
sg64
(lp3712
g181
asbag57
(g78
g59
NtRp3713
(dp3714
g62
(dp3715
g89
g90
ssg71
g3705
sg64
(lp3716
S':'
asbag57
(g78
g59
NtRp3717
(dp3718
g62
(dp3719
sg71
g3705
sg64
(lp3720
g57
(g58
g59
NtRp3721
(dp3722
g62
(dp3723
g70
I5
ssg71
g3717
sg64
(lp3724
S'<cStringIO.StringO object at 0xa6bdec0>'
p3725
asbasbasbag57
(g73
g59
NtRp3726
(dp3727
g62
(dp3728
sg71
g3701
sg64
(lp3729
g57
(g78
g59
NtRp3730
(dp3731
g62
(dp3732
g82
g83
ssg71
g3726
sg64
(lp3733
g269
asbag57
(g78
g59
NtRp3734
(dp3735
g62
(dp3736
g89
g90
ssg71
g3726
sg64
(lp3737
S':'
asbag57
(g78
g59
NtRp3738
(dp3739
g62
(dp3740
sg71
g3726
sg64
(lp3741
g57
(g58
g59
NtRp3742
(dp3743
g62
(dp3744
g70
I5
ssg71
g3738
sg64
(lp3745
g57
(g66
g59
NtRp3746
(dp3747
g62
(dp3748
g70
I4
ssg71
Nsg64
(lp3749
g57
(g73
g59
NtRp3750
(dp3751
g62
(dp3752
sg71
g3746
sg64
(lp3753
g57
(g78
g59
NtRp3754
(dp3755
g62
(dp3756
g82
g83
ssg71
g3750
sg64
(lp3757
S'session_id_sicoin'
p3758
asbag57
(g78
g59
NtRp3759
(dp3760
g62
(dp3761
g89
g90
ssg71
g3750
sg64
(lp3762
S':'
asbag57
(g78
g59
NtRp3763
(dp3764
g62
(dp3765
sg71
g3750
sg64
(lp3766
g57
(g58
g59
NtRp3767
(dp3768
g62
(dp3769
g70
I4
ssg71
g3763
sg64
(lp3770
g501
ag57
(g66
g59
NtRp3771
(dp3772
g62
(dp3773
g70
I3
ssg71
Nsg64
(lp3774
g57
(g73
g59
NtRp3775
(dp3776
g62
(dp3777
sg71
g3771
sg64
(lp3778
g57
(g78
g59
NtRp3779
(dp3780
g62
(dp3781
g82
g83
ssg71
g3775
sg64
(lp3782
g320
asbag57
(g78
g59
NtRp3783
(dp3784
g62
(dp3785
g89
g90
ssg71
g3775
sg64
(lp3786
S':'
asbag57
(g78
g59
NtRp3787
(dp3788
g62
(dp3789
sg71
g3775
sg64
(lp3790
g57
(g58
g59
NtRp3791
(dp3792
g62
(dp3793
g70
I3
ssg71
g3787
sg64
(lp3794
S''
asbasbasbag57
(g73
g59
NtRp3795
(dp3796
g62
(dp3797
sg71
g3771
sg64
(lp3798
g57
(g78
g59
NtRp3799
(dp3800
g62
(dp3801
g82
g83
ssg71
g3795
sg64
(lp3802
g341
asbag57
(g78
g59
NtRp3803
(dp3804
g62
(dp3805
g89
g90
ssg71
g3795
sg64
(lp3806
S':'
asbag57
(g78
g59
NtRp3807
(dp3808
g62
(dp3809
sg71
g3795
sg64
(lp3810
g57
(g58
g59
NtRp3811
(dp3812
g62
(dp3813
g70
I3
ssg71
g3807
sg64
(lp3814
S''
asbasbasbag57
(g73
g59
NtRp3815
(dp3816
g62
(dp3817
sg71
g3771
sg64
(lp3818
g57
(g78
g59
NtRp3819
(dp3820
g62
(dp3821
g82
g83
ssg71
g3815
sg64
(lp3822
g362
asbag57
(g78
g59
NtRp3823
(dp3824
g62
(dp3825
g89
g90
ssg71
g3815
sg64
(lp3826
S':'
asbag57
(g78
g59
NtRp3827
(dp3828
g62
(dp3829
sg71
g3815
sg64
(lp3830
g57
(g58
g59
NtRp3831
(dp3832
g62
(dp3833
g70
I3
ssg71
g3827
sg64
(lp3834
S''
asbasbasbag57
(g73
g59
NtRp3835
(dp3836
g62
(dp3837
sg71
g3771
sg64
(lp3838
g57
(g78
g59
NtRp3839
(dp3840
g62
(dp3841
g82
g83
ssg71
g3835
sg64
(lp3842
g383
asbag57
(g78
g59
NtRp3843
(dp3844
g62
(dp3845
g89
g90
ssg71
g3835
sg64
(lp3846
S':'
asbag57
(g78
g59
NtRp3847
(dp3848
g62
(dp3849
sg71
g3835
sg64
(lp3850
g57
(g58
g59
NtRp3851
(dp3852
g62
(dp3853
g70
I3
ssg71
g3847
sg64
(lp3854
S''
asbasbasbag57
(g73
g59
NtRp3855
(dp3856
g62
(dp3857
sg71
g3771
sg64
(lp3858
g57
(g78
g59
NtRp3859
(dp3860
g62
(dp3861
g82
g83
ssg71
g3855
sg64
(lp3862
g404
asbag57
(g78
g59
NtRp3863
(dp3864
g62
(dp3865
g89
g90
ssg71
g3855
sg64
(lp3866
S':'
asbag57
(g78
g59
NtRp3867
(dp3868
g62
(dp3869
sg71
g3855
sg64
(lp3870
g57
(g58
g59
NtRp3871
(dp3872
g62
(dp3873
g70
I3
ssg71
g3867
sg64
(lp3874
S''
asbasbasbag57
(g73
g59
NtRp3875
(dp3876
g62
(dp3877
sg71
g3771
sg64
(lp3878
g57
(g78
g59
NtRp3879
(dp3880
g62
(dp3881
g82
g83
ssg71
g3875
sg64
(lp3882
g425
asbag57
(g78
g59
NtRp3883
(dp3884
g62
(dp3885
g89
g90
ssg71
g3875
sg64
(lp3886
S':'
asbag57
(g78
g59
NtRp3887
(dp3888
g62
(dp3889
sg71
g3875
sg64
(lp3890
g57
(g58
g59
NtRp3891
(dp3892
g62
(dp3893
g70
I3
ssg71
g3887
sg64
(lp3894
S'/'
asbasbasbag57
(g73
g59
NtRp3895
(dp3896
g62
(dp3897
sg71
g3771
sg64
(lp3898
g57
(g78
g59
NtRp3899
(dp3900
g62
(dp3901
g82
g83
ssg71
g3895
sg64
(lp3902
g446
asbag57
(g78
g59
NtRp3903
(dp3904
g62
(dp3905
g89
g90
ssg71
g3895
sg64
(lp3906
S':'
asbag57
(g78
g59
NtRp3907
(dp3908
g62
(dp3909
sg71
g3895
sg64
(lp3910
g57
(g58
g59
NtRp3911
(dp3912
g62
(dp3913
g70
I3
ssg71
g3907
sg64
(lp3914
S''
asbasbasbag57
(g73
g59
NtRp3915
(dp3916
g62
(dp3917
sg71
g3771
sg64
(lp3918
g57
(g78
g59
NtRp3919
(dp3920
g62
(dp3921
g82
g83
ssg71
g3915
sg64
(lp3922
g467
asbag57
(g78
g59
NtRp3923
(dp3924
g62
(dp3925
g89
g90
ssg71
g3915
sg64
(lp3926
S':'
asbag57
(g78
g59
NtRp3927
(dp3928
g62
(dp3929
sg71
g3915
sg64
(lp3930
g57
(g58
g59
NtRp3931
(dp3932
g62
(dp3933
g70
I3
ssg71
g3927
sg64
(lp3934
S''
asbasbasbasbasbasbasbasbasbasbasbag57
(g73
g59
NtRp3935
(dp3936
g62
(dp3937
sg71
g3701
sg64
(lp3938
g57
(g78
g59
NtRp3939
(dp3940
g62
(dp3941
g82
g83
ssg71
g3935
sg64
(lp3942
S'delimiters'
p3943
asbag57
(g78
g59
NtRp3944
(dp3945
g62
(dp3946
g89
g90
ssg71
g3935
sg64
(lp3947
S':'
asbag57
(g78
g59
NtRp3948
(dp3949
g62
(dp3950
sg71
g3935
sg64
(lp3951
g57
(g58
g59
NtRp3952
(dp3953
g62
(dp3954
g70
I5
ssg71
g3948
sg64
(lp3955
g57
(g66
g59
NtRp3956
(dp3957
g62
(dp3958
g70
I4
ssg71
Nsg64
(lp3959
g57
(g73
g59
NtRp3960
(dp3961
g62
(dp3962
sg71
g3956
sg64
(lp3963
g57
(g78
g59
NtRp3964
(dp3965
g62
(dp3966
sg71
g3960
sg64
(lp3967
g57
(g58
g59
NtRp3968
(dp3969
g62
(dp3970
g70
I4
ssg71
g3964
sg64
(lp3971
S'{{'
p3972
asbasbasbag57
(g73
g59
NtRp3973
(dp3974
g62
(dp3975
sg71
g3956
sg64
(lp3976
g57
(g78
g59
NtRp3977
(dp3978
g62
(dp3979
sg71
g3973
sg64
(lp3980
g57
(g58
g59
NtRp3981
(dp3982
g62
(dp3983
g70
I4
ssg71
g3977
sg64
(lp3984
S'}}'
p3985
asbasbasbasbasbasbasbag57
(g73
g59
NtRp3986
(dp3987
g62
(dp3988
sg71
g3701
sg64
(lp3989
g57
(g78
g59
NtRp3990
(dp3991
g62
(dp3992
g82
g83
ssg71
g3986
sg64
(lp3993
S'files'
p3994
asbag57
(g78
g59
NtRp3995
(dp3996
g62
(dp3997
g89
g90
ssg71
g3986
sg64
(lp3998
S':'
asbag57
(g78
g59
NtRp3999
(dp4000
g62
(dp4001
sg71
g3986
sg64
(lp4002
g57
(g58
g59
NtRp4003
(dp4004
g62
(dp4005
g70
I5
ssg71
g3999
sg64
(lp4006
g57
(g66
g59
NtRp4007
(dp4008
g62
(dp4009
g70
I4
ssg71
Nsg64
(lp4010
sbasbasbasbag57
(g73
g59
NtRp4011
(dp4012
g62
(dp4013
sg71
g3701
sg64
(lp4014
g57
(g78
g59
NtRp4015
(dp4016
g62
(dp4017
g82
g83
ssg71
g4011
sg64
(lp4018
S'flash'
p4019
asbag57
(g78
g59
NtRp4020
(dp4021
g62
(dp4022
g89
g90
ssg71
g4011
sg64
(lp4023
S':'
asbag57
(g78
g59
NtRp4024
(dp4025
g62
(dp4026
sg71
g4011
sg64
(lp4027
g57
(g58
g59
NtRp4028
(dp4029
g62
(dp4030
g70
I5
ssg71
g4024
sg64
(lp4031
S''
asbasbasbag57
(g73
g59
NtRp4032
(dp4033
g62
(dp4034
sg71
g3701
sg64
(lp4035
g57
(g78
g59
NtRp4036
(dp4037
g62
(dp4038
g82
g83
ssg71
g4032
sg64
(lp4039
S'generic_patterns'
p4040
asbag57
(g78
g59
NtRp4041
(dp4042
g62
(dp4043
g89
g90
ssg71
g4032
sg64
(lp4044
S':'
asbag57
(g78
g59
NtRp4045
(dp4046
g62
(dp4047
sg71
g4032
sg64
(lp4048
g57
(g58
g59
NtRp4049
(dp4050
g62
(dp4051
g70
I5
ssg71
g4045
sg64
(lp4052
g57
(g66
g59
NtRp4053
(dp4054
g62
(dp4055
g70
I4
ssg71
Nsg64
(lp4056
g57
(g73
g59
NtRp4057
(dp4058
g62
(dp4059
sg71
g4053
sg64
(lp4060
g57
(g78
g59
NtRp4061
(dp4062
g62
(dp4063
sg71
g4057
sg64
(lp4064
g57
(g58
g59
NtRp4065
(dp4066
g62
(dp4067
g70
I4
ssg71
g4061
sg64
(lp4068
S'*'
asbasbasbasbasbasbasbag57
(g73
g59
NtRp4069
(dp4070
g62
(dp4071
sg71
g3701
sg64
(lp4072
g57
(g78
g59
NtRp4073
(dp4074
g62
(dp4075
g82
g83
ssg71
g4069
sg64
(lp4076
S'headers'
p4077
asbag57
(g78
g59
NtRp4078
(dp4079
g62
(dp4080
g89
g90
ssg71
g4069
sg64
(lp4081
S':'
asbag57
(g78
g59
NtRp4082
(dp4083
g62
(dp4084
sg71
g4069
sg64
(lp4085
g57
(g58
g59
NtRp4086
(dp4087
g62
(dp4088
g70
I5
ssg71
g4082
sg64
(lp4089
g57
(g66
g59
NtRp4090
(dp4091
g62
(dp4092
g70
I4
ssg71
Nsg64
(lp4093
g57
(g73
g59
NtRp4094
(dp4095
g62
(dp4096
sg71
g4090
sg64
(lp4097
g57
(g78
g59
NtRp4098
(dp4099
g62
(dp4100
g82
g83
ssg71
g4094
sg64
(lp4101
S'X-Powered-By'
p4102
asbag57
(g78
g59
NtRp4103
(dp4104
g62
(dp4105
g89
g90
ssg71
g4094
sg64
(lp4106
S':'
asbag57
(g78
g59
NtRp4107
(dp4108
g62
(dp4109
sg71
g4094
sg64
(lp4110
g57
(g58
g59
NtRp4111
(dp4112
g62
(dp4113
g70
I4
ssg71
g4107
sg64
(lp4114
S'web2py'
p4115
asbasbasbasbasbasbasbag57
(g73
g59
NtRp4116
(dp4117
g62
(dp4118
sg71
g3701
sg64
(lp4119
g57
(g78
g59
NtRp4120
(dp4121
g62
(dp4122
g82
g83
ssg71
g4116
sg64
(lp4123
S'menu'
p4124
asbag57
(g78
g59
NtRp4125
(dp4126
g62
(dp4127
g89
g90
ssg71
g4116
sg64
(lp4128
S':'
asbag57
(g78
g59
NtRp4129
(dp4130
g62
(dp4131
sg71
g4116
sg64
(lp4132
g57
(g58
g59
NtRp4133
(dp4134
g62
(dp4135
g70
I5
ssg71
g4129
sg64
(lp4136
g57
(g66
g59
NtRp4137
(dp4138
g62
(dp4139
g70
I4
ssg71
Nsg64
(lp4140
sbasbasbasbag57
(g73
g59
NtRp4141
(dp4142
g62
(dp4143
sg71
g3701
sg64
(lp4144
g57
(g78
g59
NtRp4145
(dp4146
g62
(dp4147
g82
g83
ssg71
g4141
sg64
(lp4148
S'meta'
p4149
asbag57
(g78
g59
NtRp4150
(dp4151
g62
(dp4152
g89
g90
ssg71
g4141
sg64
(lp4153
S':'
asbag57
(g78
g59
NtRp4154
(dp4155
g62
(dp4156
sg71
g4141
sg64
(lp4157
g57
(g58
g59
NtRp4158
(dp4159
g62
(dp4160
g70
I5
ssg71
g4154
sg64
(lp4161
g57
(g66
g59
NtRp4162
(dp4163
g62
(dp4164
g70
I4
ssg71
Nsg64
(lp4165
sbasbasbasbag57
(g73
g59
NtRp4166
(dp4167
g62
(dp4168
sg71
g3701
sg64
(lp4169
g57
(g78
g59
NtRp4170
(dp4171
g62
(dp4172
g82
g83
ssg71
g4166
sg64
(lp4173
S'models_to_run'
p4174
asbag57
(g78
g59
NtRp4175
(dp4176
g62
(dp4177
g89
g90
ssg71
g4166
sg64
(lp4178
S':'
asbag57
(g78
g59
NtRp4179
(dp4180
g62
(dp4181
sg71
g4166
sg64
(lp4182
g57
(g58
g59
NtRp4183
(dp4184
g62
(dp4185
g70
I5
ssg71
g4179
sg64
(lp4186
g57
(g66
g59
NtRp4187
(dp4188
g62
(dp4189
g70
I4
ssg71
Nsg64
(lp4190
g57
(g73
g59
NtRp4191
(dp4192
g62
(dp4193
sg71
g4187
sg64
(lp4194
g57
(g78
g59
NtRp4195
(dp4196
g62
(dp4197
sg71
g4191
sg64
(lp4198
g57
(g58
g59
NtRp4199
(dp4200
g62
(dp4201
g70
I4
ssg71
g4195
sg64
(lp4202
S'^\\w+\\.py$'
p4203
asbasbasbag57
(g73
g59
NtRp4204
(dp4205
g62
(dp4206
sg71
g4187
sg64
(lp4207
g57
(g78
g59
NtRp4208
(dp4209
g62
(dp4210
sg71
g4204
sg64
(lp4211
g57
(g58
g59
NtRp4212
(dp4213
g62
(dp4214
g70
I4
ssg71
g4208
sg64
(lp4215
S'^correspondencia/\\w+\\.py$'
p4216
asbasbasbag57
(g73
g59
NtRp4217
(dp4218
g62
(dp4219
sg71
g4187
sg64
(lp4220
g57
(g78
g59
NtRp4221
(dp4222
g62
(dp4223
sg71
g4217
sg64
(lp4224
g57
(g58
g59
NtRp4225
(dp4226
g62
(dp4227
g70
I4
ssg71
g4221
sg64
(lp4228
S'^correspondencia/listar_correspondencias/\\w+\\.py$'
p4229
asbasbasbasbasbasbasbag57
(g73
g59
NtRp4230
(dp4231
g62
(dp4232
sg71
g3701
sg64
(lp4233
g57
(g78
g59
NtRp4234
(dp4235
g62
(dp4236
g82
g83
ssg71
g4230
sg64
(lp4237
S'postprocessing'
p4238
asbag57
(g78
g59
NtRp4239
(dp4240
g62
(dp4241
g89
g90
ssg71
g4230
sg64
(lp4242
S':'
asbag57
(g78
g59
NtRp4243
(dp4244
g62
(dp4245
sg71
g4230
sg64
(lp4246
g57
(g58
g59
NtRp4247
(dp4248
g62
(dp4249
g70
I5
ssg71
g4243
sg64
(lp4250
g57
(g66
g59
NtRp4251
(dp4252
g62
(dp4253
g70
I4
ssg71
Nsg64
(lp4254
sbasbasbasbag57
(g73
g59
NtRp4255
(dp4256
g62
(dp4257
sg71
g3701
sg64
(lp4258
g57
(g78
g59
NtRp4259
(dp4260
g62
(dp4261
g82
g83
ssg71
g4255
sg64
(lp4262
S'session_file'
p4263
asbag57
(g78
g59
NtRp4264
(dp4265
g62
(dp4266
g89
g90
ssg71
g4255
sg64
(lp4267
S':'
asbag57
(g78
g59
NtRp4268
(dp4269
g62
(dp4270
sg71
g4255
sg64
(lp4271
g57
(g58
g59
NtRp4272
(dp4273
g62
(dp4274
g70
I5
ssg71
g4268
sg64
(lp4275
S"<open file '/home/perdomor/web2py/applications/sicoin/sessions/127.0.0.1-9e81c5b9-74a6-4cb3-a080-38c8aad87ca9', mode 'rb+' at 0xa9ee5f8>"
p4276
asbasbasbag57
(g73
g59
NtRp4277
(dp4278
g62
(dp4279
sg71
g3701
sg64
(lp4280
g57
(g78
g59
NtRp4281
(dp4282
g62
(dp4283
g82
g83
ssg71
g4277
sg64
(lp4284
S'session_filename'
p4285
asbag57
(g78
g59
NtRp4286
(dp4287
g62
(dp4288
g89
g90
ssg71
g4277
sg64
(lp4289
S':'
asbag57
(g78
g59
NtRp4290
(dp4291
g62
(dp4292
sg71
g4277
sg64
(lp4293
g57
(g58
g59
NtRp4294
(dp4295
g62
(dp4296
g70
I5
ssg71
g4290
sg64
(lp4297
S'/home/perdomor/web2py/applications/sicoin/sessions/127.0.0.1-9e81c5b9-74a6-4cb3-a080-38c8aad87ca9'
p4298
asbasbasbag57
(g73
g59
NtRp4299
(dp4300
g62
(dp4301
sg71
g3701
sg64
(lp4302
g57
(g78
g59
NtRp4303
(dp4304
g62
(dp4305
g82
g83
ssg71
g4299
sg64
(lp4306
S'session_id'
p4307
asbag57
(g78
g59
NtRp4308
(dp4309
g62
(dp4310
g89
g90
ssg71
g4299
sg64
(lp4311
S':'
asbag57
(g78
g59
NtRp4312
(dp4313
g62
(dp4314
sg71
g4299
sg64
(lp4315
g57
(g58
g59
NtRp4316
(dp4317
g62
(dp4318
g70
I5
ssg71
g4312
sg64
(lp4319
g501
asbasbasbag57
(g73
g59
NtRp4320
(dp4321
g62
(dp4322
sg71
g3701
sg64
(lp4323
g57
(g78
g59
NtRp4324
(dp4325
g62
(dp4326
g82
g83
ssg71
g4320
sg64
(lp4327
S'session_id_name'
p4328
asbag57
(g78
g59
NtRp4329
(dp4330
g62
(dp4331
g89
g90
ssg71
g4320
sg64
(lp4332
S':'
asbag57
(g78
g59
NtRp4333
(dp4334
g62
(dp4335
sg71
g4320
sg64
(lp4336
g57
(g58
g59
NtRp4337
(dp4338
g62
(dp4339
g70
I5
ssg71
g4333
sg64
(lp4340
g3758
asbasbasbag57
(g73
g59
NtRp4341
(dp4342
g62
(dp4343
sg71
g3701
sg64
(lp4344
g57
(g78
g59
NtRp4345
(dp4346
g62
(dp4347
g82
g83
ssg71
g4341
sg64
(lp4348
S'session_locked'
p4349
asbag57
(g78
g59
NtRp4350
(dp4351
g62
(dp4352
g89
g90
ssg71
g4341
sg64
(lp4353
S':'
asbag57
(g78
g59
NtRp4354
(dp4355
g62
(dp4356
sg71
g4341
sg64
(lp4357
g57
(g58
g59
NtRp4358
(dp4359
g62
(dp4360
g70
I5
ssg71
g4354
sg64
(lp4361
g1771
asbasbasbag57
(g73
g59
NtRp4362
(dp4363
g62
(dp4364
sg71
g3701
sg64
(lp4365
g57
(g78
g59
NtRp4366
(dp4367
g62
(dp4368
g82
g83
ssg71
g4362
sg64
(lp4369
S'session_new'
p4370
asbag57
(g78
g59
NtRp4371
(dp4372
g62
(dp4373
g89
g90
ssg71
g4362
sg64
(lp4374
S':'
asbag57
(g78
g59
NtRp4375
(dp4376
g62
(dp4377
sg71
g4362
sg64
(lp4378
g57
(g58
g59
NtRp4379
(dp4380
g62
(dp4381
g70
I5
ssg71
g4375
sg64
(lp4382
g100
asbasbasbag57
(g73
g59
NtRp4383
(dp4384
g62
(dp4385
sg71
g3701
sg64
(lp4386
g57
(g78
g59
NtRp4387
(dp4388
g62
(dp4389
g82
g83
ssg71
g4383
sg64
(lp4390
S'status'
p4391
asbag57
(g78
g59
NtRp4392
(dp4393
g62
(dp4394
g89
g90
ssg71
g4383
sg64
(lp4395
S':'
asbag57
(g78
g59
NtRp4396
(dp4397
g62
(dp4398
sg71
g4383
sg64
(lp4399
g57
(g58
g59
NtRp4400
(dp4401
g62
(dp4402
g70
I5
ssg71
g4396
sg64
(lp4403
S'200'
p4404
asbasbasbag57
(g73
g59
NtRp4405
(dp4406
g62
(dp4407
sg71
g3701
sg64
(lp4408
g57
(g78
g59
NtRp4409
(dp4410
g62
(dp4411
g82
g83
ssg71
g4405
sg64
(lp4412
S'view'
p4413
asbag57
(g78
g59
NtRp4414
(dp4415
g62
(dp4416
g89
g90
ssg71
g4405
sg64
(lp4417
S':'
asbag57
(g78
g59
NtRp4418
(dp4419
g62
(dp4420
sg71
g4405
sg64
(lp4421
g57
(g58
g59
NtRp4422
(dp4423
g62
(dp4424
g70
I5
ssg71
g4418
sg64
(lp4425
S'correspondencia/listar_correspondencias.html'
p4426
asbasbasbasbasbsS'locals'
p4427
(dp4428
S'sort'
p4429
g100
sS'orderby'
p4430
S'None'
p4431
sS'cache'
p4432
S'None'
p4433
sS'multiple'
p4434
g100
sS'distinct'
p4435
S'None'
p4436
sS'self'
p4437
S'<gluon.validators.IS_IN_DB object>'
p4438
sS'error_message'
p4439
S"'value not in database'"
p4440
sS'_and'
p4441
S'None'
p4442
sS'label'
p4443
S"'%(first_name)s'"
p4444
sS'field'
p4445
S"'db.auth_user.id'"
p4446
sS'zero'
p4447
S"''"
p4448
sS'Table'
p4449
S"<class 'gluon.dal.Table'>"
p4450
sS'dbset'
p4451
S'<Set (auth_user.departamento = 2)>'
p4452
sS'groupby'
p4453
S'None'
p4454
sssS'traceback'
p4455
S'Traceback (most recent call last):\n  File "/home/perdomor/web2py/gluon/restricted.py", line 209, in restricted\n    exec ccode in environment\n  File "/home/perdomor/web2py/applications/sicoin/models/db.py", line 166, in <module>\n    db.correspondencia.asignado_a.requires=IS_IN_DB(db(db.auth_user.departamento==session.auth.user.departamento), \'db.auth_user.id\',\'%(first_name)s\')\n  File "/home/perdomor/web2py/gluon/validators.py", line 421, in __init__\n    (ktable, kfield) = str(field).split(\'.\')\nValueError: too many values to unpack\n'
p4456
s.