(dp1
S'output'
p2
S'<class \'gluon.contrib.pymysql.err.InternalError\'> (1025, u"Error on rename of \'./db_sicoin/#sql-474_232\' to \'./db_sicoin/correspondencia\' (errno: 150)")'
p3
sS'layer'
p4
S'/home/perdomor/web2py/applications/sicoin/models/db.py'
p5
sS'code'
p6
S'# -*- coding: utf-8 -*-\n\n#########################################################################\n## This scaffolding model makes your app work on Google App Engine too\n## File is released under public domain and you can use without limitations\n#########################################################################\n\n## if SSL/HTTPS is properly configured and you want all HTTP requests to\n## be redirected to HTTPS, uncomment the line below:\n# request.requires_https()\n\nif not request.env.web2py_runtime_gae:\n    ## if NOT running on Google App Engine use SQLite or other DB\n    db = DAL(\'mysql://root:12345@localhost/db_sicoin\')\nelse:\n    ## connect to Google BigTable (optional \'google:datastore://namespace\')\n    db = DAL(\'google:datastore\')\n    ## store sessions and tickets there\n    session.connect(request, response, db = db)\n    ## or store session in Memcache, Redis, etc.\n    ## from gluon.contrib.memdb import MEMDB\n    ## from google.appengine.api.memcache import Client\n    ## session.connect(request, response, db = MEMDB(Client()))\n\n## by default give a view/generic.extension to all actions from localhost\n## none otherwise. a pattern can be \'controller/function.extension\'\nresponse.generic_patterns = [\'*\'] if request.is_local else []\n## (optional) optimize handling of static files\n# response.optimize_css = \'concat,minify,inline\'\n# response.optimize_js = \'concat,minify,inline\'\n\n#########################################################################\n## Here is sample code if you need for\n## - email capabilities\n## - authentication (registration, login, logout, ... )\n## - authorization (role based authorization)\n## - services (xml, csv, json, xmlrpc, jsonrpc, amf, rss)\n## - old style crud actions\n## (more options discussed in gluon/tools.py)\n#########################################################################\n\ndb.define_table(\'dependencia\',\n    Field(\'nombre\', \'string\', length=100, required= True, notnull=True, unique=True),\n    format = "%(nombre)s",\n    singular = "Dependencia",\n    plural = "Dependencias",    \n)\n\ndb.define_table(\'departamento\',\n    Field(\'nombre\', \'string\', length=100, required= True, notnull=True, unique=True),\n    Field(\'dependencia\', \'reference dependencia\'),\n    format = "%(nombre)s",\n    singular = "Departamento",\n    plural = "Departamentos",    \n)\n\n\nfrom gluon.tools import Auth, Crud, Service, PluginManager, prettydate\nauth = Auth(db)\ncrud, service, plugins = Crud(db), Service(), PluginManager()\n\n## create all tables needed by auth if not custom tables\n# after\n# auth = Auth(globals(),db)\n#db.define_table(\n#    auth.settings.table_user_name,\n#    Field(\'first_name\', length=128, label = \'nombre\'),\n#    Field(\'last_name\', length=128, label = \'apellido\'),\n#    Field(\'email\', length=128, unique=True),\n#    Field(\'password\', \'password\', length=512, readable=False, label=\'Password\'),\n#    Field(\'registration_key\', length=512, writable=False, readable=False, default=\'\'),\n#    Field(\'reset_password_key\', length=512, writable=False, readable=False, default=\'\'),\n#    Field(\'registration_id\', length=512, writable=False, readable=False, default=\'\'),\n#    Field(\'departamento\', \'reference departamento\'),\n#    )\n#    \n#custom_auth_table = db[auth.settings.table_user_name] # get the custom_auth_table\n#custom_auth_table.first_name.requires = IS_NOT_EMPTY(error_message=auth.messages.is_empty)\n#custom_auth_table.last_name.requires = IS_NOT_EMPTY(error_message=auth.messages.is_empty)\n#custom_auth_table.password.requires = [CRYPT()]\n#custom_auth_table.email.requires = [IS_EMAIL(error_message=auth.messages.invalid_email),\n#                                    IS_NOT_IN_DB(db, custom_auth_table.email)]\n#auth.settings.table_user = custom_auth_table # tell auth to use custom_auth_table\n# before\n# auth.define_tables()\nauth.settings.extra_fields[\'auth_user\'] = [Field(\'departamento\', \'reference departamento\')]\nauth.define_tables(username=False, signature=False)\n\n## configure email\nmail=auth.settings.mailer\nmail.settings.server = \'logging\' or \'smtp.gmail.com:587\'\nmail.settings.sender = \'you@gmail.com\'\nmail.settings.login = \'username:password\'\n\n## configure auth policy\nauth.settings.registration_requires_verification = False\nauth.settings.registration_requires_approval = False\nauth.settings.reset_password_requires_verification = True\ndb.auth_user._format = \'%(first_name)s %(last_name)s\'\n\n## if you need to use OpenID, Facebook, MySpace, Twitter, Linkedin, etc.\n## register with janrain.com, write your domain:api_key in private/janrain.key\nfrom gluon.contrib.login_methods.rpx_account import use_janrain\nuse_janrain(auth,filename=\'private/janrain.key\')\n\n#########################################################################\n## Define your tables below (or better in another model file) for example\n##\n## >>> db.define_table(\'mytable\',Field(\'myfield\',\'string\'))\n##\n## Fields can be \'string\',\'text\',\'password\',\'integer\',\'double\',\'boolean\'\n##       \'date\',\'time\',\'datetime\',\'blob\',\'upload\', \'reference TABLENAME\'\n## There is an implicit \'id integer autoincrement\' field\n## Consult manual for more options, validators, etc.\n##\n## More API examples for controllers:\n##\n## >>> db.mytable.insert(myfield=\'value\')\n## >>> rows=db(db.mytable.myfield==\'value\').select(db.mytable.ALL)\n## >>> for row in rows: print row.id, row.myfield\n#########################################################################\n\n## after defining tables, uncomment below to enable auditing\n# auth.enable_record_versioning(db)\n\nmail.settings.server = settings.email_server\nmail.settings.sender = settings.email_sender\nmail.settings.login = settings.email_login\n\ndb.define_table(\'estatus\',\n    Field(\'tipo_estatus\', \'string\', length=100, required= True, notnull=True, unique=True),\n    format = "%(tipo_estatus)s",\n    singular = "Estatus",\n    plural = "Estatus",    \n)\n\ndb.define_table(\'documento\',\n    Field(\'tipo_de_documento\', \'string\', length=100, required= True, notnull=True, unique=True),\n    format = "%(tipo_de_documento)s",\n    singular = "Tipo de documento",\n    plural = "Tipos de documentos",    \n)\n\ndb.define_table(\'correspondencia\',\n    Field(\'nro_de_documento\', \'string\', length=100, required= True, notnull=True),\n    Field(\'fecha_registro\', \'datetime\', default=request.now,writable=False,readable=False),\n    Field(\'fecha_correspondencia\', \'date\', required= True, notnull=True),\n    Field(\'tipo_de_documento\', \'reference documento\'),\n    Field(\'estatus\', \'reference estatus\'),\n    Field(\'remitente\', \'string\', length=100, required= True, notnull=True),\n    Field(\'departamento_origen\', \'reference departamento\'),\n    Field(\'destinatario\', \'string\', length=100, required= True, notnull=True),\n    Field(\'departamento_destino\', \'reference departamento\'),\n    Field(\'motivo\', \'text\', length=250, notnull=True),\n    Field(\'asignado_a\', db.auth_user),\n    #, \'auth_user.id\', \'%(first_name)s %(last_name)s\')),\n    Field(\'registrado_por\', db.auth_user, default = (auth.user.id) if auth.user else None, writable=False,readable=True),\n    #format = "%(nro_de_documento)s",\n    singular = "Dependencia",\n    plural = "Dependencias",    \n)\n\n#db.correspondencia.asignado_a.requires = IS_IN_DB(db(db.auth_user.departamento==session.auth.user.departamento), db.auth_user.id) if auth.is_logged_in() else None\n\ndb.correspondencia.id.readable = False\nif auth.is_logged_in():\n    db.correspondencia.asignado_a.requires = IS_IN_DB(db(db.auth_user.departamento==session.auth.user.departamento), db.auth_user.id,\'%(first_name)s %(last_name)s\')\n'
p7
sS'snapshot'
p8
(dp9
sS'traceback'
p10
S'Traceback (most recent call last):\n  File "/home/perdomor/web2py/gluon/restricted.py", line 209, in restricted\n    exec ccode in environment\n  File "/home/perdomor/web2py/applications/sicoin/models/db.py", line 160, in <module>\n    plural = "Dependencias",\n  File "/home/perdomor/web2py/gluon/dal.py", line 7095, in define_table\n    table = self.lazy_define_table(tablename,*fields,**args)\n  File "/home/perdomor/web2py/gluon/dal.py", line 7126, in lazy_define_table\n    polymodel=polymodel)\n  File "/home/perdomor/web2py/gluon/dal.py", line 933, in create_table\n    fake_migrate=fake_migrate)\n  File "/home/perdomor/web2py/gluon/dal.py", line 1039, in migrate_table\n    self.execute(sub_query)\n  File "/home/perdomor/web2py/gluon/dal.py", line 1671, in execute\n    return self.log_execute(*a, **b)\n  File "/home/perdomor/web2py/gluon/dal.py", line 1665, in log_execute\n    ret = self.cursor.execute(*a, **b)\n  File "/home/perdomor/web2py/gluon/contrib/pymysql/cursors.py", line 117, in execute\n    self.errorhandler(self, exc, value)\n  File "/home/perdomor/web2py/gluon/contrib/pymysql/connections.py", line 202, in defaulterrorhandler\n    raise errorclass, errorvalue\nInternalError: (1025, u"Error on rename of \'./db_sicoin/#sql-474_232\' to \'./db_sicoin/correspondencia\' (errno: 150)")\n'
p11
s.