(dp1
S'output'
p2
S''
sS'layer'
p3
S'Framework'
p4
sS'code'
p5
S''
sS'snapshot'
p6
(dp7
sS'traceback'
p8
S'Traceback (most recent call last):\n  File "/home/perdomor/web2py/gluon/main.py", line 514, in wsgibase\n    serve_controller(request, response, session)\n  File "/home/perdomor/web2py/gluon/main.py", line 222, in serve_controller\n    run_view_in(response._view_environment)\n  File "/home/perdomor/web2py/gluon/compileapp.py", line 653, in run_view_in\n    context=environment)\n  File "/home/perdomor/web2py/gluon/template.py", line 767, in parse_template\n    return str(TemplateParser(text, context=context, path=path, lexers=lexers, delimiters=delimiters))\n  File "/home/perdomor/web2py/gluon/template.py", line 303, in __init__\n    self.parse(text)\n  File "/home/perdomor/web2py/gluon/template.py", line 661, in parse\n    self.include(top, value)\n  File "/home/perdomor/web2py/gluon/template.py", line 442, in include\n    text = self._get_file_text(filename)\n  File "/home/perdomor/web2py/gluon/template.py", line 423, in _get_file_text\n    filename = eval(filename, context)\n  File "<string>", line 1, in <module>\nNameError: name \'reporte_entrega\' is not defined\n'
p9
s.