(dp1
S'output'
p2
S'missing "pass" in view'
p3
sS'layer'
p4
S'ParserContainer'
p5
sS'code'
p6
S'response.write(\'<!DOCTYPE html>\\n<!-- paulirish.com/2008/conditional-stylesheets-vs-css-hacks-answer-neither/ -->\\n<!--[if lt IE 7]><html class="ie ie6 ie-lte9 ie-lte8 ie-lte7 no-js" lang="\', escape=False)\nresponse.write(T.accepted_language or \'en\')\nresponse.write(\'"> <![endif]-->\\n<!--[if IE 7]><html class="ie ie7 ie-lte9 ie-lte8 ie-lte7 no-js" lang="\', escape=False)\nresponse.write(T.accepted_language or \'en\')\nresponse.write(\'"> <![endif]-->\\n<!--[if IE 8]><html class="ie ie8 ie-lte9 ie-lte8 no-js" lang="\', escape=False)\nresponse.write(T.accepted_language or \'en\')\nresponse.write(\'"> <![endif]-->\\n<!--[if IE 9]><html class="ie9 ie-lte9 no-js" lang="\', escape=False)\nresponse.write(T.accepted_language or \'en\')\nresponse.write(\'"> <![endif]-->\\n<!--[if (gt IE 9)|!(IE)]><!--> <html class="no-js" lang="\', escape=False)\nresponse.write(T.accepted_language or \'en\')\nresponse.write(\'"> <!--<![endif]-->\\n<head>\\n  <meta charset="utf-8" />\\n  <!-- www.phpied.com/conditional-comments-block-downloads/ -->\\n  <!-- Always force latest IE rendering engine\\n       (even in intranet) & Chrome Frame\\n       Remove this if you use the .htaccess -->\\n  <!--[if IE]>\\n      <meta http-equiv="X-UA-Compatible" content="IE=edge\', escape=False)\nresponse.write(not request.is_local and \',chrome=1\' or \'\')\nresponse.write(\'">\\n      <![endif]-->\\n\\n  <title>\', escape=False)\nresponse.write(response.title or request.application)\nresponse.write(\'</title>\\n\\n  <!-- http://dev.w3.org/html5/markup/meta.name.html -->\\n  <meta name="application-name" content="\', escape=False)\nresponse.write(request.application)\nresponse.write(\'" />\\n\\n  <!-- Speaking of Google, don\\\'t forget to set your site up:\\n       http://google.com/webmasters -->\\n  <meta name="google-site-verification" content="" />\\n\\n  <!--  Mobile Viewport Fix\\n        j.mp/mobileviewport & davidbcalhoun.com/2010/viewport-metatag\\n        device-width: Occupy full width of the screen in its current orientation\\n        initial-scale = 1.0 retains dimensions instead of zooming out if page height > device height\\n        user-scalable = yes allows the user to zoom in -->\\n  <meta name="viewport" content="width=device-width, initial-scale=1.0">\\n\\n  <link rel="shortcut icon" href="\', escape=False)\nresponse.write(URL(\'static\',\'images/favicon.ico\'))\nresponse.write(\'" type="image/x-icon">\\n  <link rel="apple-touch-icon" href="\', escape=False)\nresponse.write(URL(\'static\',\'images/favicon.png\'))\nresponse.write(\'">\\n\\n  <!-- All JavaScript at the bottom, except for Modernizr which enables\\n       HTML5 elements & feature detects -->\\n  <script src="\', escape=False)\nresponse.write(URL(\'static\',\'js/modernizr.custom.js\'))\nresponse.write(\'"></script>\\n\\n  <!-- include stylesheets -->\\n  \', escape=False)\nresponse.files.append(URL(\'static\',\'css/bootstrap.min.css\'))\nresponse.files.append(URL(\'static\',\'css/bootstrap-responsive.min.css\'))\nresponse.files.append(URL(\'static\',\'css/web2py.css\'))\nresponse.files.append(URL(\'static\',\'css/web2py_bootstrap.css\'))\nresponse.write(\'\\n\\n  \', escape=False)\nresponse.write(\'<script type="text/javascript"><!--\\n    // These variables are used by the web2py_ajax_init function in web2py_ajax.js (which is loaded below).\\n    var w2p_ajax_confirm_message = "\', escape=False)\nresponse.write(T(\'Are you sure you want to delete this object?\'))\nresponse.write(\'";\\n    var w2p_ajax_date_format = "\', escape=False)\nresponse.write(T(\'%Y-%m-%d\'))\nresponse.write(\'";\\n    var w2p_ajax_datetime_format = "\', escape=False)\nresponse.write(T(\'%Y-%m-%d %H:%M:%S\'))\nresponse.write(\'";\\n    //--></script>\\n\', escape=False)\nresponse.files.insert(0,URL(\'static\',\'js/jquery.js\'))\nresponse.files.insert(1,URL(\'static\',\'css/calendar.css\'))\nresponse.files.insert(2,URL(\'static\',\'js/calendar.js\'))\nresponse.files.insert(3,URL(\'static\',\'js/web2py.js\'))\nresponse.include_meta()\nresponse.include_files()\nresponse.write(\'\\n\', escape=False)\nresponse.write(\'\\n\\n  \', escape=False)\n# using sidebars need to know what sidebar you want to use\nleft_sidebar_enabled = globals().get(\'left_sidebar_enabled\',False)\nright_sidebar_enabled = globals().get(\'right_sidebar_enabled\',False)\nmiddle_columns = {0:\'span12\',1:\'span9\',2:\'span6\'}[\n(left_sidebar_enabled and 1 or 0)+(right_sidebar_enabled and 1 or 0)]\nresponse.write(\'\\n\\n  <!-- uncomment here to load jquery-ui\\n       <link rel="stylesheet" href="http://ajax.googleapis.com/ajax/libs/jqueryui/1.8.16/themes/base/jquery-ui.css" type="text/css" media="all" />\\n       <script src="http://ajax.googleapis.com/ajax/libs/jqueryui/1.8.16/jquery-ui.min.js" type="text/javascript"></script>\\n       uncomment to load jquery-ui //-->\\n  <noscript><link href="\', escape=False)\nresponse.write(URL(\'static\', \'css/web2py_bootstrap_nojs.css\'))\nresponse.write(\'" rel="stylesheet" type="text/css" /></noscript>\\n  \', escape=False)\nresponse.write(\'\\n</head>\\n\\n<body>\\n  <!-- Navbar ================================================== -->\\n  <div class="navbar navbar-fixed-top">\\n    <div class="flash">\', escape=False)\nresponse.write(response.flash or \'\')\nresponse.write(\'</div>\\n    <div class="navbar-inner">\\n\\t\', escape=False)\nresponse.write(IMG(_src=URL(\'static\', \'images/correspondencia-icon.png\'), _height="40", _width="40", _style="float:left; margin:5px 5px 0px 40px;"))\nresponse.write(\'\\n      <div class="container">\\n        <!-- the next tag is necessary for bootstrap menus, do not remove -->\\n        <a class="btn btn-navbar" data-toggle="collapse" data-target=".nav-collapse">\\n          <span class="icon-bar"></span>\\n          <span class="icon-bar"></span>\\n          <span class="icon-bar"></span>\\n        </a>\\n\\t\\t<a class="brand" href="#">&nbsp;&nbsp;SiCoIn DFIPU&nbsp;</a>\\n        \\t\\n        <ul id="navbar" class="nav pull-right">\', escape=False)\nresponse.write(\'auth\' in globals() and auth.navbar(mode="dropdown") or \'\')\nresponse.write(\'</ul>\\n        <div class="nav-collapse">\\n          \', escape=False)\nis_mobile=request.user_agent().is_mobile\nresponse.write(\'\\n          \', escape=False)\nif response.menu:\n    response.write(\'\\n          \', escape=False)\n    response.write(MENU(response.menu, _class=\'mobile-menu nav\' if is_mobile else \'nav\',mobile=is_mobile,li_class=\'dropdown\',ul_class=\'dropdown-menu\'))\n    response.write(\'\\n          \', escape=False)\n    pass\nresponse.write(\'\\n        </div><!--/.nav-collapse -->\\n      </div>\\n    </div>\\n  </div><!--/top navbar -->\\n\\n  <div class="container">\\n    <!-- Masthead ================================================== -->\\n    <header class="mastheader row" id="header">\\n        <div class="span12">\\n            <div class="page-header">\\n                    <center>\\n                    <table>\\n                    \\t<tr>\\n                    \\t\\t<td>\\n                                \', escape=False)\nresponse.write(IMG(_src=URL(\'static\', \'images/dfipu.png\'), _height="80", _width="80"))\nresponse.write(\'\\n                            </td>\\n                    \\t\\t<td style="vertical-align:middle">\\n                                <h1>\', escape=False)\nresponse.write(response.title or request.application)\nresponse.write(\'</h1>\\n                            </td>\\n                            <td style="vertical-align:bottom">\\n                                <small><p>\', escape=False)\nresponse.write(response.subtitle or \'\')\nresponse.write(\' <br />Direcci&oacute;n de Formaci&oacute;n Integral y Proyecci&oacute;n Universitaria</p></small>\\n                            </td>\\n                            <td>\\n                                \', escape=False)\nresponse.write(IMG(_src=URL(\'static\', \'images/tic-dfipu.png\'), _height="130", _width="120"))\nresponse.write(\'\\n                            </td>\\n                        </tr>\\n                    </table>\\n                </center>\\n            </div>\\n        </div>\\n    </header>\\n\\n    <section id="main" class="main row">\\n        \', escape=False)\nif left_sidebar_enabled:\n    response.write(\'\\n        <div class="span3 left-sidebar">\\n            \', escape=False)\n    response.write(\'\\n            <h3>Left Sidebar</h3>\\n            <p></p>\\n            \', escape=False)\n    response.write(\'\\n        </div>\\n        \', escape=False)\n    pass\nresponse.write(\'\\n\\n        <div class="\', escape=False)\nresponse.write(middle_columns)\nresponse.write(\'">\\n            \', escape=False)\nresponse.write(\'\\n            \', escape=False)\nresponse.write(\'\\n\', escape=False)\nresponse.write(grid)\nresponse.write(\'\\n<br />\\n<br />\\n\', escape=False)\nif session.reporte_movimiento:\n    response.write(\'\\n\\t<table>\\n\\t\\t<tr>\\n        \\t<td>\\n            \\t<img height="80" src="/sicoin/static/images/dfipu.png" width="80" />\\n            </td>\\n            <td style="vertical-align:middle">\\n            \\t<h1>SiCoIn</h1>\\n            </td>\\n            <td style="vertical-align:bottom">\\n            \\t<small>\\n                            <p>Sistema Integrado de Correspondencia Interna <br />Direcci&oacute;n de Formaci&oacute;n Integral y Proyecci&oacute;n Universitaria</p>\\n                </small>\\n            </td>\\n            <td>\\n            \\t<img height="130" src="/sicoin/static/images/tic-dfipu.png" width="120" />\\n            </td>\\n         </tr>\\n        <tr>\\n        \\t<td>\\n            \\t<div id="reporte">\\n\\t\\t\\t\\t\\t\', escape=False)\n    response.write(session.reporte_movimiento)\n    response.write(\'\\n\\t\\t\\t\\t\\t<script>\\n    \\t\\t\\t\\t\\t$("#reporte tr:first").append("<th>Firma</th><th>Fecha</th>");\\n    \\t\\t\\t\\t\\t$("#reporte tr:gt(0)").append("<td></td><td></td>");\\n    \\t\\t\\t\\t\\t$(\\\'#reporte table\\\').addClass("table table-striped table-bordered table-condensed");\\n    \\t\\t\\t\\t</script>\\n\\t\\t\\t\\t</div>\\n            </td>\\n        </tr>\\n\', escape=False)\n    session.reporte_movimiento = ""\n    response.write(\'\\n\', escape=False)\n    response.write(\'\\n            \', escape=False)\n    response.write(\'\\n        </div>\\n\\n        \', escape=False)\n    if right_sidebar_enabled:\n        response.write(\'\\n        <div class="span3">\\n            \', escape=False)\n        response.write(\'\\n            <h3>Right Sidebar</h3>\\n            <p></p>\\n            \', escape=False)\n        response.write(\'\\n        </div>\\n        \', escape=False)\n        pass\n    response.write(\'\\n    </section><!--/main-->\\n\\n    <!-- Footer ================================================== -->\\n    <div class="row">\\n        <footer class=" span12" id="footer">\\n            \', escape=False)\n    response.write(IMG(_src=URL(\'static\', \'images/ucv.png\'), _height="65", _width="65", _style="float:left;"))\n    response.write(\'\\n            <div class="">              \\n                \', escape=False)\n    response.write(\' <!-- this is default footer -->\\n                <div class="copyright pull-left">&nbsp;&nbsp;Desarrollado por el Departamento de Tecnolog&iacute;a de Informaci&oacute;n y Comunicaciones<br />\\n                    &nbsp;&nbsp;Direcci&oacute;n de Formaci&oacute;n Integral y Proyecci&oacute;n Universitaria<br />\\n                    &nbsp;&nbsp;Universidad Central de Venezuela - \', escape=False)\n    response.write(request.now.year)\n    response.write(\'</div>\\n                <div id="poweredBy" class="pull-right">\\n\\n                </div>\\n                \', escape=False)\n    response.write(\'\\n            </div>\\n        </footer>\\n    </div>\\n\\n  </div> <!-- /container -->\\n\\n  <!-- The javascript =============================================\\n       (Placed at the end of the document so the pages load faster) -->\\n  <script>\\n    // this code improves bootstrap menus and adds dropdown support\\n    jQuery(function(){\\n      jQuery(\\\'.nav>li>a\\\').each(function(){\\n        if(jQuery(this).parent().find(\\\'ul\\\').length)\\n          jQuery(this).attr({\\\'class\\\':\\\'dropdown-toggle\\\',\\\'data-toggle\\\':\\\'dropdown\\\'}).append(\\\'<b class="caret"></b>\\\');\\n      });\\n      jQuery(\\\'.nav li li\\\').each(function(){\\n        if(jQuery(this).find(\\\'ul\\\').length)\\n          jQuery(this).children(\\\'a\\\').contents().before(\\\'<i class="chevron-right"></i>\\\');\\n      });\\n      if(jQuery(document).width()>=980) {\\n        jQuery(\\\'ul.nav li.dropdown\\\').hover(function() {\\n          jQuery(this).find(\\\'.dropdown-menu\\\').stop(true, true).delay(200).fadeIn();\\n        }, function() {\\n          jQuery(this).find(\\\'.dropdown-menu\\\').stop(true, true).delay(200).fadeOut();\\n        });\\n      }\\n      jQuery(\\\'ul.nav li.dropdown a\\\').click(function(){window.location=jQuery(this).attr(\\\'href\\\');});\\n      // make all buttons bootstrap buttons\\n      jQuery(\\\'button, form input[type="submit"], form input[type="button"]\\\').addClass(\\\'btn\\\').css({\\\'margin-right\\\':\\\'2px\\\',\\\'margin-bottom\\\':\\\'2px\\\'});\\n    });\\n  </script>\\n  <script src="\', escape=False)\n    response.write(URL(\'static\',\'js/bootstrap.min.js\'))\n    response.write(\'"></script>\\n  <!--[if lt IE 7 ]>\\n      <script src="\', escape=False)\n    response.write(URL(\'static\',\'js/dd_belatedpng.js\'))\n    response.write(\'"></script>\\n      <script> DD_belatedPNG.fix(\\\'img, .png_bg\\\'); //fix any <img> or .png_bg background-images </script>\\n      <![endif]-->\\n  \', escape=False)\n    if response.google_analytics_id:\n        response.write(\'<script type="text/javascript"> var _gaq = _gaq || []; _gaq.push([\\\'_setAccount\\\', \\\'\', escape=False)\n        response.write(response.google_analytics_id)\n        response.write("\']); _gaq.push([\'_trackPageview\']); (function() { var ga = document.createElement(\'script\'); ga.type = \'text/javascript\'; ga.async = true; ga.src = (\'https:\' == document.location.protocol ? \'https://ssl\' : \'http://www\') + \'.google-analytics.com/ga.js\'; var s = document.getElementsByTagName(\'script\')[0]; s.parentNode.insertBefore(ga, s); })(); </script> ", escape=False)\n        pass\n    response.write(\'\\n  <script src="\', escape=False)\n    response.write(URL(\'static\',\'js/share.js\',vars=dict(static=URL(\'static\',\'images\'))))\n    response.write(\'"></script>\\n</body>\\n</html>\\n\', escape=False)'
p7
sS'snapshot'
p8
(dp9
S'exception'
p10
(dp11
S'__module__'
p12
S"'gluon.rocket'"
p13
sS'__getslice__'
p14
S"<method-wrapper '__getslice__' of SocketTimeout object>"
p15
sS'__str__'
p16
S"<method-wrapper '__str__' of SocketTimeout object>"
p17
sS'__reduce__'
p18
S'<built-in method __reduce__ of SocketTimeout object>'
p19
sS'__dict__'
p20
S'{}'
p21
sS'__sizeof__'
p22
S'<built-in method __sizeof__ of SocketTimeout object>'
p23
sS'__weakref__'
p24
S'None'
p25
sS'__init__'
p26
S"<method-wrapper '__init__' of SocketTimeout object>"
p27
sS'__setattr__'
p28
S"<method-wrapper '__setattr__' of SocketTimeout object>"
p29
sS'__reduce_ex__'
p30
S'<built-in method __reduce_ex__ of SocketTimeout object>'
p31
sS'__new__'
p32
S'<built-in method __new__ of type object>'
p33
sS'__format__'
p34
S'<built-in method __format__ of SocketTimeout object>'
p35
sS'__class__'
p36
S"<class 'gluon.rocket.SocketTimeout'>"
p37
sS'__doc__'
p38
S"'Exception for when a socket times out between requests.'"
p39
sS'__getitem__'
p40
S"<method-wrapper '__getitem__' of SocketTimeout object>"
p41
sS'__setstate__'
p42
S'<built-in method __setstate__ of SocketTimeout object>'
p43
sS'__getattribute__'
p44
S"<method-wrapper '__getattribute__' of SocketTimeout object>"
p45
sS'args'
p46
S"('Socket timed out before request.',)"
p47
sS'__subclasshook__'
p48
S'<built-in method __subclasshook__ of type object>'
p49
sS'__unicode__'
p50
S'<built-in method __unicode__ of SocketTimeout object>'
p51
sS'__delattr__'
p52
S"<method-wrapper '__delattr__' of SocketTimeout object>"
p53
sS'__repr__'
p54
S"<method-wrapper '__repr__' of SocketTimeout object>"
p55
sS'__hash__'
p56
S"<method-wrapper '__hash__' of SocketTimeout object>"
p57
ssS'evalue'
p58
S'Socket timed out before request.'
p59
sS'frames'
p60
(lp61
(dp62
S'file'
p63
S'/home/perdomor/web2py/gluon/rocket.py'
p64
sS'dump'
p65
(dp66
S'self'
p67
S'<WSGIWorker(Thread-8, started daemon -1290814608)>'
p68
sS'conn'
p69
S'<gluon.rocket.Connection object>'
p70
sS'self.run_app'
p71
S'<bound method WSGIWorker.run_app of <WSGIWorker(Thread-8, started daemon -1290814608)>>'
p72
ssS'lnum'
p73
I1302
sS'lines'
p74
(dp75
I1297
S'            # Enter connection serve loop'
p76
sI1298
S'            while True:'
p77
sI1299
S'                if __debug__:'
p78
sI1300
S"                    self.err_log.debug('Serving a request')"
p79
sI1301
S'                try:'
p80
sI1302
S'                    self.run_app(conn)'
p81
sI1303
S'                    log_info = dict(client_ip = conn.client_addr,'
p82
sI1304
S"                                    time = datetime.now().strftime('%c'),"
p83
sI1305
S"                                    status = self.status.split(' ')[0],"
p84
sI1306
S'                                    size = self.size,'
p85
ssS'call'
p86
S'(self=<WSGIWorker(Thread-8, started daemon -1290814608)>)'
p87
sS'func'
p88
S'run'
p89
sa(dp90
g63
S'/home/perdomor/web2py/gluon/rocket.py'
p91
sg65
(dp92
S'self'
p93
S'<WSGIWorker(Thread-8, started daemon -1290814608)>'
p94
sS'self.environ'
p95
S"{'HTTP_ACCEPT': 'text/html,application/xhtml+xml,application/xml;q=0.9,*/*;q=0.8', 'HTTP_ACCEPT_CHARSET': 'ISO-8859-1,utf-8;q=0.7,*;q=0.3', 'HTTP_ACCEPT_ENCODING': 'gzip,deflate,sdch', 'HTTP_ACCEPT_LANGUAGE': 'es-419,es;q=0.8', 'HTTP_CONNECTION': 'keep-alive', 'HTTP_COOKIE': 'session_id_welcome=127.0.0.1-399bc6c7-332a-459e-...in=127.0.0.1-f6cdd735-887a-49a8-9b06-c5bd0b214ad6', 'HTTP_HOST': '0.0.0.0:8080', 'HTTP_REFERER': 'http://0.0.0.0:8080/sicoin/correspondencia/ver_historico/21', 'HTTP_USER_AGENT': 'Mozilla/5.0 (X11; Linux i686) AppleWebKit/535.19.../18.0.1025.168 Chrome/18.0.1025.168 Safari/535.19', 'PATH_INFO': '/sicoin/correspondencia/listar_movimientos', ...}"
p96
sS'sock_file'
p97
S'<socket._fileobject object>'
p98
sS'environ'
p99
S'undefined'
p100
sS'self.build_environ'
p101
S'<bound method WSGIWorker.build_environ of <WSGIWorker(Thread-8, started daemon -1290814608)>>'
p102
sS'conn'
p103
S'<gluon.rocket.Connection object>'
p104
ssg73
I1995
sg74
(dp105
I1990
S'        else:'
p106
sI1991
S'            sock_file = conn.makefile(BUF_SIZE)'
p107
sI1992
S''
sI1993
S'        try:'
p108
sI1994
S'            # Read the headers and build our WSGI environment'
p109
sI1995
S'            self.environ = environ = self.build_environ(sock_file, conn)'
p110
sI1996
S''
sI1997
S'            # Handle 100 Continue'
p111
sI1998
S"            if environ.get('HTTP_EXPECT', '') == '100-continue':"
p112
sI1999
S"                res = environ['SERVER_PROTOCOL'] + ' 100 Continue\\r\\n\\r\\n'"
p113
ssg86
S'(self=<WSGIWorker(Thread-8, started daemon -1290814608)>, conn=<gluon.rocket.Connection object>)'
p114
sg88
S'run_app'
p115
sa(dp116
g63
S'/home/perdomor/web2py/gluon/rocket.py'
p117
sg65
(dp118
S'sock_file'
p119
S'<socket._fileobject object>'
p120
sS'self.read_request_line'
p121
S'<bound method WSGIWorker.read_request_line of <WSGIWorker(Thread-8, started daemon -1290814608)>>'
p122
sS'self'
p123
S'<WSGIWorker(Thread-8, started daemon -1290814608)>'
p124
sS'request'
p125
g100
ssg73
I1816
sg74
(dp126
I1811
S'                                      "wsgiorg.futures": executor.futures})'
p127
sI1812
S''
sI1813
S'    def build_environ(self, sock_file, conn):'
p128
sI1814
S'        """ Build the execution environment. """'
p129
sI1815
S'        # Grab the request line'
p130
sI1816
S'        request = self.read_request_line(sock_file)'
p131
sI1817
S''
sI1818
S'        # Copy the Base Environment'
p132
sI1819
S'        environ = self.base_environ.copy()'
p133
sI1820
S''
ssg86
S'(self=<WSGIWorker(Thread-8, started daemon -1290814608)>, sock_file=<socket._fileobject object>, conn=<gluon.rocket.Connection object>)'
p134
sg88
S'build_environ'
p135
sa(dp136
g63
S'/home/perdomor/web2py/gluon/rocket.py'
p137
sg65
(dp138
S'global SocketTimeout'
p139
S"<class 'gluon.rocket.SocketTimeout'>"
p140
ssg73
I1382
sg74
(dp141
I1377
S''
sI1378
S'                d = sock_file.readline()'
p142
sI1379
S'                if PY3K:'
p143
sI1380
S"                    d = d.decode('ISO-8859-1')"
p144
sI1381
S'        except socket.timeout:'
p145
sI1382
S'            raise SocketTimeout("Socket timed out before request.")'
p146
sI1383
S'        except TypeError:'
p147
sI1384
S'            raise SocketClosed("ssl bug caused closer of socket, upgrade to python 2.7")'
p148
sI1385
S''
sI1386
S'        d = d.strip()'
p149
ssg86
S'(self=<WSGIWorker(Thread-8, started daemon -1290814608)>, sock_file=<socket._fileobject object>)'
p150
sg88
S'read_request_line'
p151
sasS'pyver'
p152
S'Python 2.7.2+: /usr/bin/python'
p153
sS'etype'
p154
S"<class 'gluon.rocket.SocketTimeout'>"
p155
sS'date'
p156
S'Thu Oct 25 09:43:12 2012'
p157
sS'locals'
p158
(dp159
S'sock_file'
p160
S'<socket._fileobject object>'
p161
sS'self'
p162
S'<WSGIWorker(Thread-8, started daemon -1290814608)>'
p163
sssS'traceback'
p164
S'Traceback (most recent call last):\n  File "/home/perdomor/web2py/gluon/rocket.py", line 1302, in run\n    self.run_app(conn)\n  File "/home/perdomor/web2py/gluon/rocket.py", line 1995, in run_app\n    self.environ = environ = self.build_environ(sock_file, conn)\n  File "/home/perdomor/web2py/gluon/rocket.py", line 1816, in build_environ\n    request = self.read_request_line(sock_file)\n  File "/home/perdomor/web2py/gluon/rocket.py", line 1382, in read_request_line\n    raise SocketTimeout("Socket timed out before request.")\nSocketTimeout: Socket timed out before request.\n'
p165
s.