(dp1
S'output'
p2
S'<class \'gluon.contrib.pymysql.err.InternalError\'> (1050, u"Table \'auth_group\' already exists")'
p3
sS'layer'
p4
S'/home/perdomor/web2py/applications/sicoin/models/db.py'
p5
sS'code'
p6
S'# -*- coding: utf-8 -*-\n\n#########################################################################\n## This scaffolding model makes your app work on Google App Engine too\n## File is released under public domain and you can use without limitations\n#########################################################################\n\n## if SSL/HTTPS is properly configured and you want all HTTP requests to\n## be redirected to HTTPS, uncomment the line below:\n# request.requires_https()\n\nif not request.env.web2py_runtime_gae:\n    ## if NOT running on Google App Engine use SQLite or other DB\n    db = DAL(\'mysql://root:12345@localhost/db_sicoin\')\nelse:\n    ## connect to Google BigTable (optional \'google:datastore://namespace\')\n    db = DAL(\'google:datastore\')\n    ## store sessions and tickets there\n    session.connect(request, response, db = db)\n    ## or store session in Memcache, Redis, etc.\n    ## from gluon.contrib.memdb import MEMDB\n    ## from google.appengine.api.memcache import Client\n    ## session.connect(request, response, db = MEMDB(Client()))\n\n## by default give a view/generic.extension to all actions from localhost\n## none otherwise. a pattern can be \'controller/function.extension\'\nresponse.generic_patterns = [\'*\'] if request.is_local else []\n## (optional) optimize handling of static files\n# response.optimize_css = \'concat,minify,inline\'\n# response.optimize_js = \'concat,minify,inline\'\n\n#########################################################################\n## Here is sample code if you need for\n## - email capabilities\n## - authentication (registration, login, logout, ... )\n## - authorization (role based authorization)\n## - services (xml, csv, json, xmlrpc, jsonrpc, amf, rss)\n## - old style crud actions\n## (more options discussed in gluon/tools.py)\n#########################################################################\n\ndb.define_table(\'dependencia\',\n    Field(\'nombre\', \'string\', length=100, required= True, notnull=True, unique=True),\n    format = "%(nombre)s",\n    singular = "Dependencia",\n    plural = "Dependencias",    \n)\n\ndb.define_table(\'departamento\',\n    Field(\'nombre\', \'string\', length=100, required= True, notnull=True, unique=True),\n    Field(\'dependencia\', \'reference dependencia\'),\n    format = "%(nombre)s",\n    singular = "Departamento",\n    plural = "Departamentos",    \n)\n\n\nfrom gluon.tools import Auth, Crud, Service, PluginManager, prettydate\nauth = Auth(db)\ncrud, service, plugins = Crud(db), Service(), PluginManager()\n\n## create all tables needed by auth if not custom tables\n# after\n# auth = Auth(globals(),db)\ndb.define_table(\n    auth.settings.table_user_name,\n    Field(\'nombre\', length=128, default=\'\'),\n    Field(\'apellido\', length=128, default=\'\'),\n    Field(\'email\', length=128, default=\'\', unique=True),\n    Field(\'password\', \'password\', length=512, readable=False, label=\'Password\'),\n    Field(\'registration_key\', length=512, writable=False, readable=False, default=\'\'),\n    Field(\'reset_password_key\', length=512, writable=False, readable=False, default=\'\'),\n    Field(\'registration_id\', length=512, writable=False, readable=False, default=\'\'),\n    Field(\'departamento\', db.departamento),\n    )\n    \ncustom_auth_table = db[auth.settings.table_user_name] # get the custom_auth_table\ncustom_auth_table.nombre.requires = IS_NOT_EMPTY(error_message=auth.messages.is_empty)\ncustom_auth_table.apellido.requires = IS_NOT_EMPTY(error_message=auth.messages.is_empty)\ncustom_auth_table.password.requires = [CRYPT()]\ncustom_auth_table.email.requires = [IS_EMAIL(error_message=auth.messages.invalid_email),\n                                    IS_NOT_IN_DB(db, custom_auth_table.email)]\nauth.settings.table_user = custom_auth_table # tell auth to use custom_auth_table\n# before\n# auth.define_tables()\nauth.define_tables(username=False, signature=False)\n\n## configure email\nmail=auth.settings.mailer\nmail.settings.server = \'logging\' or \'smtp.gmail.com:587\'\nmail.settings.sender = \'you@gmail.com\'\nmail.settings.login = \'username:password\'\n\n## configure auth policy\nauth.settings.registration_requires_verification = False\nauth.settings.registration_requires_approval = False\nauth.settings.reset_password_requires_verification = True\n\n## if you need to use OpenID, Facebook, MySpace, Twitter, Linkedin, etc.\n## register with janrain.com, write your domain:api_key in private/janrain.key\nfrom gluon.contrib.login_methods.rpx_account import use_janrain\nuse_janrain(auth,filename=\'private/janrain.key\')\n\n#########################################################################\n## Define your tables below (or better in another model file) for example\n##\n## >>> db.define_table(\'mytable\',Field(\'myfield\',\'string\'))\n##\n## Fields can be \'string\',\'text\',\'password\',\'integer\',\'double\',\'boolean\'\n##       \'date\',\'time\',\'datetime\',\'blob\',\'upload\', \'reference TABLENAME\'\n## There is an implicit \'id integer autoincrement\' field\n## Consult manual for more options, validators, etc.\n##\n## More API examples for controllers:\n##\n## >>> db.mytable.insert(myfield=\'value\')\n## >>> rows=db(db.mytable.myfield==\'value\').select(db.mytable.ALL)\n## >>> for row in rows: print row.id, row.myfield\n#########################################################################\n\n## after defining tables, uncomment below to enable auditing\n# auth.enable_record_versioning(db)\n\nmail.settings.server = settings.email_server\nmail.settings.sender = settings.email_sender\nmail.settings.login = settings.email_login\n'
p7
sS'snapshot'
p8
(dp9
sS'traceback'
p10
S'Traceback (most recent call last):\n  File "/home/perdomor/web2py/gluon/restricted.py", line 209, in restricted\n    exec ccode in environment\n  File "/home/perdomor/web2py/applications/sicoin/models/db.py", line 86, in <module>\n    auth.define_tables(username=False, signature=False)\n  File "/home/perdomor/web2py/gluon/tools.py", line 1515, in define_tables\n    format = \'%(role)s (%(id)s)\'))\n  File "/home/perdomor/web2py/gluon/dal.py", line 7095, in define_table\n    table = self.lazy_define_table(tablename,*fields,**args)\n  File "/home/perdomor/web2py/gluon/dal.py", line 7126, in lazy_define_table\n    polymodel=polymodel)\n  File "/home/perdomor/web2py/gluon/dal.py", line 905, in create_table\n    self.create_sequence_and_triggers(query,table)\n  File "/home/perdomor/web2py/gluon/dal.py", line 1657, in create_sequence_and_triggers\n    self.execute(query)\n  File "/home/perdomor/web2py/gluon/dal.py", line 1671, in execute\n    return self.log_execute(*a, **b)\n  File "/home/perdomor/web2py/gluon/dal.py", line 1665, in log_execute\n    ret = self.cursor.execute(*a, **b)\n  File "/home/perdomor/web2py/gluon/contrib/pymysql/cursors.py", line 117, in execute\n    self.errorhandler(self, exc, value)\n  File "/home/perdomor/web2py/gluon/contrib/pymysql/connections.py", line 202, in defaulterrorhandler\n    raise errorclass, errorvalue\nInternalError: (1050, u"Table \'auth_group\' already exists")\n'
p11
s.