(dp1
S'output'
p2
S"<type 'exceptions.AttributeError'> 'Table' object has no attribute 'nombre'"
p3
sS'layer'
p4
S'/home/perdomor/Odesk/APR/web2py/applications/sicoin/controllers/correspondencia.py'
p5
sS'code'
p6
S'# coding: utf8\nT.force(\'es\')\nfrom plugin_solidform import SOLIDFORM\n\n@auth.requires(auth.has_membership(\'recepcionista\') or auth.has_membership(\'master\') or auth.has_membership(\'supervisor\') or auth.has_membership(\'analista\'))\ndef listar_correspondencias():\n    session.pag_editar = URL("editar_correspondencia")\n    session.pag_previa = URL(\'listar_correspondencias\')\n    db.correspondencia.fecha_registro.readable = True\n    db.correspondencia.modificado_por.readable = True\n    db.correspondencia.registrado_por.readable = True\n    links = None \n    fields = [db.correspondencia.nro_de_documento, db.correspondencia.fecha_registro, db.correspondencia.tipo_de_documento,\n              db.correspondencia.estatus,db.correspondencia.remitente,db.correspondencia.destinatario,db.correspondencia.asunto,  \n              db.correspondencia.registrado_por, db.correspondencia.modificado_por,]\n    orderby = [~db.correspondencia.fecha_registro,] \n    if auth.has_membership(\'recepcionista\'):\n        deletable = False\n        editable=True\n        details = True\n        create=True\n    if auth.has_membership(\'analista\'):\n        deletable = False\n        editable=True\n        details = True\n        create=True\n    if auth.has_membership(\'supervisor\'):\n        deletable = False\n        editable=True\n        details = True\n        create=False\n    query = ((db.correspondencia.registrado_por==auth.user.id) | (db.correspondencia.asignado_a==auth.user.id))\n    if auth.has_membership(\'master\'):\n        deletable = False\n        editable=False\n        details = True\n        create=True\n        query = ((db.correspondencia.registrado_por==auth.user.id) | (db.correspondencia.asignado_a==auth.user.id))\n    links = [lambda row: A(TAG[\'\'](SPAN(_class="icon icon-list"),SPAN(\'Hist\xc3\xb3rico\', _class="buttontext button", _title="Hist\xc3\xb3rico")), _class="w2p_trap button btn popup", _href=URL(\'ver_historico\', args=[row.id])),\n             lambda row: A(TAG[\'\'](SPAN(_class="icon icon-user"),SPAN(\'CC a\', _class="buttontext button", _title="CC a")), _class="w2p_trap button btn popup", _href=URL(\'agregarCorrespondenciaMultiple2\', args=[row.id]))]\n    grid = SQLFORM.grid(query, fields = fields, user_signature=False, selectable = lambda ids: reporte_entregas(ids),deletable=deletable, editable=editable, details = details,create=create, csv=False, orderby = orderby, links = links)\n    return dict(grid = grid)\n\n@auth.requires(auth.has_membership(\'recepcionista\') or auth.has_membership(\'supervisor\') or auth.has_membership(\'master\'))\ndef listar_correspondencias_departamento():\n    #Corrige las busquedas por nombre, devolviendo el id y reconstruyendo el request\n    #corregirBusquedas()\n    session.pag_editar = URL("editar_correspondencia_departamento")\n    session.pag_previa = URL(\'listar_correspondencias_departamento\') \n    db.correspondencia.modificado_por.readable = True\n    db.correspondencia.registrado_por.readable = True\n    fields = [db.correspondencia.nro_de_documento,db.correspondencia.fecha_registro,\n              db.correspondencia.estatus,db.correspondencia.remitente,\n              db.correspondencia.destinatario,db.correspondencia.asunto, \n              db.correspondencia.registrado_por, db.correspondencia.modificado_por,]\n    orderby = [~db.correspondencia.fecha_registro,] \n    deletable = False\n    editable=True\n    details = True\n    create=False\n    db.correspondencia.nro_de_documento.writable = False\n    db.correspondencia.fecha_registro.writable = False\n    db.correspondencia.tipo_de_documento.writable = False\n    db.correspondencia.remitente.writable = False\n    db.correspondencia.departamento_origen.writable = False\n    db.correspondencia.destinatario.writable = False\n    db.correspondencia.departamento_destino.writable = False\n    db.correspondencia.asunto.writable = False\n    db.correspondencia.registrado_por.writable = False\n    links = [lambda row: A(TAG[\'\'](SPAN(_class="icon icon-list"),SPAN(\'Hist\xc3\xb3rico\', _class="buttontext button", _title="Hist\xc3\xb3rico")), _class="w2p_trap button btn popup", _href=URL(\'ver_historico\', args=[row.id]))]\n    query = (db.correspondencia.departamento_destino==auth.user.departamento)|(db.correspondencia.departamento_origen==auth.user.departamento)\n    #estatus = db.estatus.tipo_estatus == "archivado"\n    #constraints = {\'db.correspondencia.departamento_destino\':auth.user.departamento,\n    #               \'db.correspondencia.departamento_origen\':auth.user.departamento}\n    grid = SQLFORM.grid(query, fields = fields, user_signature=False, deletable=deletable, editable=editable, \n                        details = details,create=create, csv=False, orderby = orderby, links = links)\n    return dict(grid = grid)      \n      \n@auth.requires(auth.has_membership(\'master\'))\ndef listar_correspondencias_master(): \n    session.pag_previa = URL(\'listar_correspondencias_master\') \n    fields = [db.correspondencia.nro_de_documento,db.correspondencia.fecha_registro,db.correspondencia.estatus,db.correspondencia.remitente,db.correspondencia.destinatario,db.correspondencia.asunto,db.correspondencia.registrado_por, db.correspondencia.modificado_por,]\n    orderby = [~db.correspondencia.fecha_registro, db.correspondencia.departamento_origen, db.correspondencia.departamento_origen] \n    deletable = False\n    editable=False\n    details = True\n    create=False\n    db.correspondencia.registrado_por.writable = False\n    db.correspondencia.modificado_por.writable = False\n    links = [lambda row: A(TAG[\'\'](SPAN(_class="icon icon-list"),SPAN(\'Hist\xc3\xb3rico\', _class="buttontext button", _title="Hist\xc3\xb3rico")), _class="w2p_trap button btn popup", _href=URL(\'ver_historico\', args=[row.id]))]\n    query =db.correspondencia \n    grid = SQLFORM.grid(query, fields = fields, user_signature=False, deletable=deletable, editable=editable, \n                        details = details,create=create, csv=False, orderby = orderby, links = links)\n    return dict(grid = grid)\n\n@auth.requires(auth.has_membership(\'recepcionista\') or auth.has_membership(\'master\') or auth.has_membership(\'supervisor\') or auth.has_membership(\'analista\'))\ndef agregar_correspondencia():\n    session.pag_previa = URL(\'agregar_correspondencia\') \n    request_fields = request.vars.fields or \'default\'\n    asignados = usuariosDepartamento()\n\n################################ The core ######################################\n    # Specify structured fields for the multi-line form layout.\n    # A "None" indicates an empty line over which the precedent line spans\n    if request_fields == \'default\':\n        fields = [\n                  [\'nro_de_documento\', \'fecha_correspondencia\'],\n                  [\'tipo_de_documento\', \'estatus\'],\n                  \'asunto\',\n                  [\'departamento_origen\', \'departamento_destino\'],\n                  [None, None],\n                  [\'remitente\', \'destinatario\'],\n                  [None, \'observaciones\'],\n                  \'asignado_a\'\n                  ]\n    \n    form = SOLIDFORM(db.correspondencia, fields=fields, tabla = auth.archive)\n    if form.process(onsuccess=auth.archive).accepted:\n        session.flash = \'registro procesado con \xc3\xa9xito\'\n        redirect(URL(\'/listar_correspondencias\'))\n    style = STYLE("""input[type="text"], textarea {width:100%; max-height: 50px;}\n                     .w2p_fw {padding-right: 10px; max-width:100%;}\n                     .w2p_fl {background: #eee;}\n                     .string {max-width: 300px;}\n                     .date {max-width: 80px;}""")\n    return dict(asignados = asignados,\n                form=DIV(style, form),\n                #form__factory=form_factory, form__readonly=form_readonly, form__edit=form_edit,\n                form_args=DIV(A(\'fields=default\', _href=URL(vars={\'fields\': \'default\'})), \' \',\n                               ))\n\n@auth.requires(auth.has_membership(\'recepcionista\') or auth.has_membership(\'master\') or auth.has_membership(\'supervisor\') or auth.has_membership(\'analista\'))\ndef ver_correspondencia():\n    id = request.args(1)\n    tabla = request.args(0)\n    fields = [\n                  [\'nro_de_documento\', \'fecha_correspondencia\'],\n                  [\'tipo_de_documento\', \'estatus\'],\n                  \'asunto\',\n                  [\'departamento_origen\', \'departamento_destino\'],\n                  [None, None],\n                  [\'remitente\', \'destinatario\'],\n                  [None, \'observaciones\'],\n                  [\'asignado_a\', \'registrado_por\'],\n                  [\'modificado_el\', \'modificado_por\'],\n                  ]\n\n    if (tabla == "activo"):\n        db.correspondencia.modificado_el.readable = True\n        db.correspondencia.modificado_por.readable = True\n        correspondencia = db(db.correspondencia.id==id).select().first()\n        form = SOLIDFORM(db.correspondencia, correspondencia, fields=fields, showid=False, readonly=True)\n    elif (tabla == "archivo"):\n        db.correspondencia_archive.modificado_el.readable = True\n        db.correspondencia_archive.modificado_por.readable = True\n        correspondencia = db(db.correspondencia_archive.id==id).select().first()\n        form = SOLIDFORM(db.correspondencia_archive, correspondencia, fields=fields, showid=False, readonly=True)\n    if form.accepts(request.vars, session):\n        session.flash = \'registro procesado con \xc3\xa9xito\'\n        redirect(URL(\'/listar_correspondencias\'))\n     \n    style = STYLE("""input[type="text"], textarea {width:100%; max-height: 50px;}\n                     .w2p_fw {padding-right: 10px; max-width:100%;}\n                     .w2p_fl {background: #eee;}\n                     .string {max-width: 300px;}\n                     .date {max-width: 80px;}""")\n    return dict(id = id, form=DIV(style, form),\n                #form__factory=form_factory, form__readonly=form_readonly, form__edit=form_edit,\n                form_args=DIV(A(\'fields=default\', _href=URL(vars={\'fields\': \'default\'})), \' \',\n\n                               ))\n                            \n@auth.requires(auth.has_membership(\'recepcionista\') or auth.has_membership(\'master\') or auth.has_membership(\'supervisor\') or auth.has_membership(\'analista\'))\ndef editar_correspondencia():\n    session.pag_previa = URL(\'editar_correspondencia\') \n    id = request.args(0)\n    asignados = usuariosDepartamento()\n    fields = [\n                  [\'nro_de_documento\', \'fecha_correspondencia\'],\n                  [\'tipo_de_documento\', \'estatus\'],\n                  \'asunto\',\n                  [\'departamento_origen\', \'departamento_destino\'],\n                  [None, None],\n                  [\'remitente\', \'destinatario\'],\n                  [None, \'observaciones\'],\n                  [\'asignado_a\'],\n                  \n                  ]\n    if auth.has_membership(\'analista\'):\n        db.correspondencia.nro_de_documento.readable = True\n        db.correspondencia.nro_de_documento.writable = False\n        db.correspondencia.fecha_correspondencia.readable = True\n        db.correspondencia.fecha_correspondencia.writable = False\n        db.correspondencia.tipo_de_documento.readable = True\n        db.correspondencia.tipo_de_documento.writable = False\n        db.correspondencia.asunto.readable = True\n        db.correspondencia.asunto.writable = False\n        db.correspondencia.departamento_origen.readable = True\n        db.correspondencia.departamento_origen.writable = False\n        db.correspondencia.departamento_destino.readable = True\n        db.correspondencia.departamento_destino.writable = False\n        db.correspondencia.remitente.readable = True\n        db.correspondencia.remitente.writable = False\n        db.correspondencia.destinatario.readable = True\n        db.correspondencia.destinatario.writable = False        \n        db.correspondencia.asignado_a.readable = True\n        db.correspondencia.asignado_a.writable = False\n    if auth.has_membership(\'supervisor\'):\n        db.correspondencia.nro_de_documento.readable = True\n        db.correspondencia.nro_de_documento.writable = False\n        db.correspondencia.fecha_correspondencia.readable = True\n        db.correspondencia.fecha_correspondencia.writable = False\n        db.correspondencia.tipo_de_documento.readable = True\n        db.correspondencia.tipo_de_documento.writable = False\n        db.correspondencia.asunto.readable = True\n        db.correspondencia.asunto.writable = False\n        db.correspondencia.departamento_origen.readable = True\n        db.correspondencia.departamento_origen.writable = False\n        db.correspondencia.departamento_destino.readable = True\n        db.correspondencia.departamento_destino.writable = False\n        db.correspondencia.remitente.readable = True\n        db.correspondencia.remitente.writable = False\n        db.correspondencia.destinatario.readable = True\n        db.correspondencia.destinatario.writable = False        \n        db.correspondencia.asignado_a.readable = True\n        db.correspondencia.asignado_a.writable = False\n    #db.correspondencia.modificado_por.writable = True\n    #db.correspondencia.modificado_el.writable = True\n    correspondencia = db(db.correspondencia.id==id).select().first()\n    form = SOLIDFORM(db.correspondencia, correspondencia, fields=fields, showid=False, readonly=False)\n    if form.process(onsuccess=auth.archive).accepted:\n        session.flash = \'registro modificado con \xc3\xa9xito\'\n        redirect(URL(\'/listar_correspondencias\'))\n     \n    style = STYLE("""input[type="text"], textarea {width:100%; max-height: 50px;}\n                     .w2p_fw {padding-right: 10px; max-width:100%;}\n                     .w2p_fl {background: #eee;}\n                     .string {max-width: 300px;}\n                     .date {max-width: 80px;}""")\n    return dict(asignados = asignados,\n                 form=DIV(style, form),\n                 #form__factory=form_factory, form__readonly=form_readonly, form__edit=form_edit,\n                 form_args=DIV(A(\'fields=default\', _href=URL(vars={\'fields\': \'default\'})), \' \',\n\n                               ))\n\n@auth.requires(auth.has_membership(\'recepcionista\') or auth.has_membership(\'supervisor\') or auth.has_membership(\'master\'))\ndef ver_correspondencia_departamento():\n    id = request.args(0)\n    fields = [\n                  [\'nro_de_documento\', \'fecha_correspondencia\'],\n                  [\'tipo_de_documento\', \'estatus\'],\n                  \'asunto\',\n                  [\'departamento_origen\', \'departamento_destino\'],\n                  [None, None],\n                  [\'remitente\', \'destinatario\'],\n                  [None, \'observaciones\'],\n                  [\'asignado_a\', \'registrado_por\'],\n                  [\'modificado_el\', \'modificado_por\'],\n                  ]\n    db.correspondencia.nro_de_documento.writable = False\n    db.correspondencia.fecha_registro.writable = False\n    db.correspondencia.tipo_de_documento.writable = False\n    db.correspondencia.remitente.writable = False\n    db.correspondencia.departamento_origen.writable = False\n    db.correspondencia.destinatario.writable = False\n    db.correspondencia.departamento_destino.writable = False\n    db.correspondencia.asunto.writable = False\n    db.correspondencia.registrado_por.writable = False\n    db.correspondencia.modificado_el.readable = True\n    db.correspondencia.modificado_por.readable = True\n    correspondencia = db(db.correspondencia.id==id).select().first()\n    form = SOLIDFORM(db.correspondencia, correspondencia, fields=fields, showid=False, readonly=True)\n\n    if form.accepts(request.vars, session):\n        session.flash = \'registro procesado con \xc3\xa9xito\'\n        redirect(URL(\'/listar_correspondencias\'))\n     \n    style = STYLE("""input[type="text"], textarea {width:100%; max-height: 50px;}\n                     .w2p_fw {padding-right: 10px; max-width:100%;}\n                     .w2p_fl {background: #eee;}\n                     .string {max-width: 300px;}\n                     .date {max-width: 80px;}""")\n    return dict(id = id, form=DIV(style, form),\n                #form__factory=form_factory, form__readonly=form_readonly, form__edit=form_edit,\n                form_args=DIV(A(\'fields=default\', _href=URL(vars={\'fields\': \'default\'})), \' \',\n                               ))\n                              \n@auth.requires(auth.has_membership(\'recepcionista\') or auth.has_membership(\'supervisor\') or auth.has_membership(\'master\'))\ndef editar_correspondencia_departamento():\n    session.pag_previa = URL(\'editar_correspondencias_departamento\') \n    id = request.args(0)\n    asignados = usuariosDepartamento()\n    fields = [\n                  [\'nro_de_documento\', \'fecha_correspondencia\'],\n                  [\'tipo_de_documento\', \'estatus\'],\n                  \'asunto\',\n                  [\'departamento_origen\', \'departamento_destino\'],\n                  [None, None],\n                  [\'remitente\', \'destinatario\'],\n                  [None, \'observaciones\'],\n                  \'asignado_a\'\n                  ]\n    db.correspondencia.nro_de_documento.readable = True\n    db.correspondencia.nro_de_documento.writable = False\n    db.correspondencia.fecha_correspondencia.readable = True\n    db.correspondencia.fecha_correspondencia.writable = False\n    db.correspondencia.tipo_de_documento.readable = True\n    db.correspondencia.tipo_de_documento.writable = False\n    db.correspondencia.asunto.readable = True\n    db.correspondencia.asunto.writable = False\n    db.correspondencia.departamento_origen.readable = True\n    db.correspondencia.departamento_origen.writable = False\n    db.correspondencia.departamento_destino.readable = True\n    db.correspondencia.departamento_destino.writable = False\n    db.correspondencia.remitente.readable = True\n    db.correspondencia.remitente.writable = False\n    db.correspondencia.destinatario.readable = True\n    db.correspondencia.destinatario.writable = False        \n    db.correspondencia.asignado_a.readable = True\n    db.correspondencia.asignado_a.writable = True\n    \n    correspondencia = db(db.correspondencia.id==id).select().first()\n    form = SOLIDFORM(db.correspondencia, correspondencia, fields=fields, showid=False, readonly=False)\n    \n    if form.process(onsuccess=auth.archive).accepted:\n        session.flash = \'registro procesado con \xc3\xa9xito\'\n        redirect(URL(\'/listar_correspondencias_departamento\'))     \n\n    style = STYLE("""input[type="text"], textarea {width:100%; max-height: 50px;}\n                     .w2p_fw {padding-right: 10px; max-width:100%;}\n                     .w2p_fl {background: #eee;}\n                     .string {max-width: 300px;}\n                     .date {max-width: 80px;}""")\n    return dict(asignados = asignados,\n                form=DIV(style, form),\n                #form__factory=form_factory, form__readonly=form_readonly, form__edit=form_edit,\n                form_args=DIV(A(\'fields=default\', _href=URL(vars={\'fields\': \'default\'})), \' \',\n                               ))\n                               \ndef ver_historico():\n    id_registro = request.args(0)\n    #<a href="/sicoin/correspondencia/ver_correspondencia/4" class="w2p_trap button btn"><span class="icon magnifier icon-zoom-in"></span><span title="View" class="buttontext button">Vista</span></a>\n    db.correspondencia.id.represent= lambda value, row: CENTER(A(TAG[\'\'](SPAN(_class="icon magnifier icon-zoom-in"),SPAN(\'\', _class="buttontext button")),_class="w2p_trap button btn", _href = URL(\'ver_correspondencia/activo\', args = str(value))))                                                                   \n                                                                          \n    rows_actual = db(db.correspondencia.id==id_registro).select(db.correspondencia.modificado_el,\n                                                                             db.correspondencia.modificado_por,\n                                                                             db.correspondencia.nro_de_documento,\n                                                                             db.correspondencia.tipo_de_documento,\n                                                                             db.estatus.tipo_estatus, \n                                                                             db.correspondencia.remitente,\n                                                                             db.correspondencia.departamento_origen,\n                                                                             db.correspondencia.destinatario,\n                                                                             db.correspondencia.departamento_destino,\n                                                                             db.correspondencia.asunto,\n                                                                             db.correspondencia.observaciones,\n                                                                             db.correspondencia.id,\n                                                                     left=[db.estatus.on(db.estatus.id==db.correspondencia.estatus)])\n    db.correspondencia_archive.id.represent= lambda value, row: CENTER(A(TAG[\'\'](SPAN(_class="icon magnifier icon-zoom-in"),SPAN(\'\', _class="buttontext button")),_class="w2p_trap button btn", _href = URL(\'ver_correspondencia/archivo\', args = str(value))))\n    rows = db(db.correspondencia_archive.current_record==id_registro).select(db.correspondencia_archive.modificado_el,\n                                                                             db.correspondencia_archive.modificado_por,\n                                                                             db.correspondencia_archive.nro_de_documento,\n                                                                             db.correspondencia_archive.tipo_de_documento,\n                                                                             db.estatus.tipo_estatus, \n                                                                             db.correspondencia_archive.remitente,\n                                                                             db.correspondencia_archive.departamento_origen,\n                                                                             db.correspondencia_archive.destinatario,\n                                                                             db.correspondencia_archive.departamento_destino,\n                                                                             db.correspondencia_archive.asunto,\n                                                                             db.correspondencia_archive.observaciones,\n                                                                             db.correspondencia_archive.id,\n                                                                     left=[db.estatus.on(db.estatus.id==db.correspondencia_archive.estatus)])\n\n    headers = {\'correspondencia_archive.modificado_el\':{\'label\':\'Modificado el\',\n                       \'class\':\'\', #class name of the header\n                       \'width\':\'\', #width in pixels or %\n                       \'truncate\': 16, #truncate the content to...\n                       \'selected\': False #agregate class selected to this column\n                       },\n               \'correspondencia_archive.modificado_por\':{\'label\':\'Modificado por\',\n                            \'class\':\'\', #class name of the header\n                            \'width\':\'\', #width in pixels or %\n                            \'truncate\': 16, #truncate the content to...\n                            \'selected\': False #agregate class selected to this column\n                            },\n               \'correspondencia_archive.nro_de_documento\':{\'label\':\'Nro Documento\',\n                            \'class\':\'\', #class name of the header\n                            \'width\':\'\', #width in pixels or %\n                            \'truncate\': 16, #truncate the content to...\n                            \'selected\': False #agregate class selected to this column\n                            },\n               \'correspondencia_archive.tipo_de_documento\':{\'label\':\'Tipo Documento\',\n                            \'class\':\'\', #class name of the header\n                            \'width\':\'\', #width in pixels or %\n                            \'truncate\': 16, #truncate the content to...\n                            \'selected\': False #agregate class selected to this column\n                            },\n               \'estatus.tipo_estatus\':{\'label\':\'Estatus\',\n                            \'class\':\'\', #class name of the header\n                            \'width\':\'\', #width in pixels or %\n                            \'truncate\': 16, #truncate the content to...\n                            \'selected\': False #agregate class selected to this column\n                            },\n               \'correspondencia_archive.remitente\':{\'label\':\'Remitente\',\n                            \'class\':\'\', #class name of the header\n                            \'width\':\'\', #width in pixels or %\n                            \'truncate\': 50, #truncate the content to...\n                            \'selected\': False #agregate class selected to this column\n                            },\n               \'correspondencia_archive.departamento_origen\':{\'label\':\'Dpto. Origen\',\n                            \'class\':\'\', #class name of the header\n                            \'width\':\'\', #width in pixels or %\n                            \'truncate\': 16, #truncate the content to...\n                            \'selected\': False #agregate class selected to this column\n                            },\n               \'correspondencia_archive.destinatario\':{\'label\':\'Destinatario\',\n                            \'class\':\'\', #class name of the header\n                            \'width\':\'\', #width in pixels or %\n                            \'truncate\': 60, #truncate the content to...\n                            \'selected\': False #agregate class selected to this column\n                            },\n               \'correspondencia_archive.departamento_destino\':{\'label\':\'Depto. Destino\',\n                            \'class\':\'\', #class name of the header\n                            \'width\':\'\', #width in pixels or %\n                            \'truncate\': 16, #truncate the content to...\n                            \'selected\': False #agregate class selected to this column\n                            },\n                \'correspondencia_archive.asunto\':{\'label\':\'Asunto\',\n                            \'class\':\'\', #class name of the header\n                            \'width\':\'15%\', #width in pixels or %\n                            \'truncate\': 50, #truncate the content to...\n                            \'selected\': False #agregate class selected to this column\n                            },\n                \'correspondencia_archive.observaciones\':{\'label\':\'Observaciones\',\n                            \'class\':\'\', #class name of the header\n                            \'width\':\'20%\', #width in pixels or %\n                            \'truncate\': 50, #truncate the content to...\n                            \'selected\': False #agregate class selected to this column\n                            },\n                \'correspondencia_archive.id\':{\'label\':\'Acci\xc3\xb3n\',\n                            \'class\':\'\', #class name of the header\n                            \'width\':\'10%\', #width in pixels or %\n                            \'truncate\': 50, #truncate the content to...\n                            \'selected\': False, #agregate class selected to this column\n                            \'align\': \'center\'\n                            },\n           }\n    tabla = SQLTABLE(rows, headers = headers)\n    tabla_actual = SQLTABLE(rows_actual, truncate = 100)\n    return dict(table=tabla, tabla_actual =tabla_actual,id = id)\n    \n@auth.requires(auth.has_membership(\'recepcionista\') or auth.has_membership(\'master\') or auth.has_membership(\'supervisor\') or auth.has_membership(\'analista\'))\ndef listar_movimientos():\n    session.pag_previa = URL(\'listar_movimientos\') \n    links = None \n    fields = [db.correspondencia.nro_de_documento, db.correspondencia.tipo_de_documento,db.correspondencia.fecha_registro,\n              db.correspondencia.estatus,db.correspondencia.remitente,db.correspondencia.destinatario,db.correspondencia.asunto,]\n    orderby = [\'correspondencia.fecha_registro\',] \n    deletable = False\n    editable=True\n    details = True\n    create=True\n    documento = db(db.documento.tipo_de_documento=="movimiento").select(db.documento.id).first()\n    id_documento_movimiento = documento[\'id\']\n    query = (((db.correspondencia.registrado_por==auth.user.id) | (db.correspondencia.asignado_a==auth.user.id)) & (db.correspondencia.tipo_de_documento==id_documento_movimiento))\n    links = [lambda row: A(TAG[\'\'](SPAN(_class="icon icon-list"),SPAN(\'Hist\xc3\xb3rico\', _class="buttontext button", _title="Hist\xc3\xb3rico")), _class="w2p_trap button btn popup", _href=URL(\'ver_historico\', args=[row.id]))\n            ]\n    grid = SQLFORM.grid(query, fields = fields, selectable= lambda ids: reporte_entrega_movimiento(ids), user_signature=False, deletable=deletable, editable=editable, details = details,create=create, csv=False, orderby = orderby, links = links)\n    return dict(grid = grid)\n    \ndef reporte_entrega_movimiento(ids):\n    if not ids:\n        session.flash=\'No has seleccionado ninguna correspondencia\'\n    else: \n        #import gluon.contenttype\n        al_reporte=db(db.correspondencia.id.belongs(ids)).select(db.correspondencia.nro_de_documento, db.correspondencia.departamento_destino)\n        headers = {\'correspondencia.nro_de_documento\':{\'label\':\'Nro. Documento\',\n                       \'class\':\'\', #class name of the header\n                       \'width\':\'\', #width in pixels or %\n                       \'truncate\': 16, #truncate the content to...\n                       \'selected\': False #agregate class selected to this column\n                       },\n               \'correspondencia.departamento_destino\':{\'label\':\'Departamento Destino\',\n                            \'class\':\'\', #class name of the header\n                            \'width\':\'\', #width in pixels or %\n                            \'truncate\': 16, #truncate the content to...\n                            \'selected\': False #agregate class selected to this column\n                            },           \n           }\n        tabla_actual = SQLTABLE(al_reporte, truncate = 100, headers = headers)\n        session.reporte_movimiento = tabla_actual\n        session.flash="Reporte Generado"\n        #response.headers[\'Content-Type\']=gluon.contenttype.contenttype(\'.js\')\n        #return \'alert("alerta en javascript");\'\n        #response.render();\n        #session.flash=al_reporte[1]        \n\treturn ()\n\t\ndef reporte_entregas(ids):\n    if not ids:\n        session.flash=\'No has seleccionado ninguna correspondencia\'\n    else: \n        #import gluon.contenttype\n\tfrom time import strftime\n\tdb.correspondencia.fecha_correspondencia.represent = lambda value, row : value.strftime(\'%d-%m-%Y\')\n        al_reporte=db(db.correspondencia.id.belongs(ids)).select(db.correspondencia.nro_de_documento, \n                                                                 db.correspondencia.departamento_destino,\n\t\t\t\t\t\t\t\t db.correspondencia.asunto, \n                                                                 db.correspondencia.fecha_correspondencia)\n        headers = {\'correspondencia.nro_de_documento\':{\'label\':\'Nro. Documento\',\n                       \'class\':\'\', #class name of the header\n                       \'width\':\'\', #width in pixels or %\n                       \'truncate\': 30, #truncate the content to...\n                       \'selected\': False #agregate class selected to this column\n                       },\n               \'correspondencia.departamento_destino\':{\'label\':\'Departamento Destino\',\n                            \'class\':\'\', #class name of the header\n                            \'width\':\'\', #width in pixels or %\n                            \'truncate\': 40, #truncate the content to...\n                            \'selected\': False #agregate class selected to this column\n                            },\n\t       \'correspondencia.asunto\':{\'label\':\'Asunto\',\n\t\t\t    \'class\':\'\',\n\t\t\t    \'width\':\'\',\n\t\t\t    \'truncate\':40,\n\t\t\t    \'selected\': False,\n\t  },\n\t       \'correspondencia.fecha_correspondencia\':{ \'label\': \'Fecha\',\n\t\t\t    \'class\': \'\',\n                            \'width\':\'\',\n                            \'truncate\':20,\n                            \'selected\': False\n\t\t\t},\n           }        \n\ttabla_actual = SQLTABLE(al_reporte, truncate = 100, headers = headers)\n        session.reporte = tabla_actual\n        #response.headers[\'Content-Type\']=gluon.contenttype.contenttype(\'.js\')\n        #return \'alert("alerta en javascript");\'\n        #response.render();\n        #session.flash=al_reporte[1]        \n\treturn ()\n\ndef devolver_mes(mes):\n    if mes == 1:\n        mes= "enero"\n    elif mes == 2:\n        mes= "febrero"\n    elif mes == 3:\n        mes= "marzo"\n    elif mes == 4:\n        mes= "abril"\n    elif mes == 5:\n        mes= "mayo"\n    elif mes == 6:\n        mes= "junio"\n    elif mes == 7:\n        mes= "julio"\n    elif mes == 8:\n        mes= "agosto"\n    elif mes == 9:\n        mes= "septiembre"    \n    elif mes == 10:\n        mes= "octubre"\n    elif mes == 11:\n        mes= "noviembre"\n    else:\n        mes = "diciembre"\n    return mes\n    \ndef usuariosDepartamento():\n    options = [OPTION(t.first_name + " " + t.last_name,_value=t.id) for t in db(db.auth_user.departamento==auth.user.departamento).select(db.auth_user.id, db.auth_user.first_name, db.auth_user.last_name)]\n    options.insert(0, OPTION(_value=""))\n    usuarios = SELECT(*options, _name="asignado_a", _id="correspondencia_asignados", _class="generic-widget")\n    #usuarios = db(db.auth_user.departamento==auth.user.departamento).select(db.auth_user.id, db.auth_user.first_name, db.auth_user.last_name)\n    return usuarios\n\ndef corregirBusquedas():\n    if (request.vars[\'keywords\']) and (\'correspondencia.tipo_de_documento =\' in request.vars[\'keywords\']):\n        documento = request.vars[\'keywords\'].split(\'= "\')[1].split(\'"\')[0]\n        id_tipodocumento = buscarTipoDocumento(documento)\n        if id_tipodocumento:\n            request.vars[\'keywords\'] = \'correspondencia.tipo_de_documento = "\' + id_tipodocumento + \'"\'\n        else:\n            request.vars[\'keywords\'] = \'correspondencia.tipo_de_documento = "0"\'\n    if (request.vars[\'keywords\']) and (\'correspondencia.estatus =\' in request.vars[\'keywords\']):\n        estatus = request.vars[\'keywords\'].split(\'= "\')[1].split(\'"\')[0]\n        id_estatus = buscarEstatus(estatus)\n        if id_estatus:\n            request.vars[\'keywords\'] = \'correspondencia.estatus = "\' + id_estatus + \'"\'\n        else:\n            request.vars[\'keywords\'] = \'correspondencia.estatus = "0"\'\n    if (request.vars[\'keywords\']) and (\'correspondencia.asignado_a =\' in request.vars[\'keywords\']):\n        usuario = request.vars[\'keywords\'].split(\'= "\')[1].split(\'"\')[0]\n        id_usuario = buscarUsuario(usuario)\n        if id_usuario:\n            request.vars[\'keywords\'] = \'correspondencia.asignado_a = "\' + id_usuario + \'"\'\n        else:\n            request.vars[\'keywords\'] = \'correspondencia.asignado_a = "0"\'\n    if (request.vars[\'keywords\']) and (\'correspondencia.departamento_origen =\' in request.vars[\'keywords\']):\n        departamento = request.vars[\'keywords\'].split(\'= "\')[1].split(\'"\')[0]\n        id_departamento = buscarDepartamento(departamento)\n        if id_departamento:\n            request.vars[\'keywords\'] = \'correspondencia.departamento_origen = "\' + id_departamento + \'"\'\n        else:\n            request.vars[\'keywords\'] = \'correspondencia.departamento_origen = "0"\'\n    if (request.vars[\'keywords\']) and (\'correspondencia.departamento_destino =\' in request.vars[\'keywords\']):\n        departamento = request.vars[\'keywords\'].split(\'= "\')[1].split(\'"\')[0]\n        id_departamento = buscarDepartamento(departamento)\n        if id_departamento:\n            request.vars[\'keywords\'] = \'correspondencia.departamento_destino = "\' + id_departamento + \'"\'\n        else:\n            request.vars[\'keywords\'] = \'correspondencia.departamento_destino = "0"\'\n    return None\n\ndef buscarTipoDocumento(tipodocumento):\n    busqueda = "%" + tipodocumento + "%"\n    try:\n        id_tipodocumento = db(db.documento.tipo_de_documento.like(busqueda)).select(db.documento.id).first()\n        if id_tipodocumento:\n            return str(id_tipodocumento[\'id\'])\n    except:\n        return None\n    \ndef buscarEstatus(estatus):\n    busqueda = "%" + estatus + "%"\n    try:\n        id_estatus = db(db.estatus.tipo_estatus.like(busqueda)).select(db.estatus.id).first()\n        if id_estatus:\n            return str(id_estatus[\'id\'])\n    except:\n        return None\n    \ndef buscarUsuario(usuario):\n    busqueda = "%" + usuario + "%"\n    try:\n        id_usuario = db((db.auth_user.first_name.like(busqueda)) | (db.auth_user.last_name.like(busqueda))).select(db.auth_user.id).first()\n        if id_usuario:\n            return str(id_usuario[\'id\'])\n    except:\n        return None\n    \ndef buscarDepartamento(departamento):\n    busqueda = "%" + departamento + "%"\n    try:\n        id_departamento = db(db.departamento.departamento.like(busqueda)).select(db.departamento.id).first()\n        if id_departamento:\n            return str(id_departamento[\'id\'])\n    except:\n        return None\n    \ndef correspondenciasDependencia():\n    session.documento = \'\'\n    session.dependencia = \'\'\n    form = SQLFORM.factory(Field(\'documento\',label = \'Tipo de Documento\', requires= IS_IN_DB(db, db.documento.id, \'%(tipo_de_documento)s\', \n                                                                                             zero =\'Seleccione un tipo de documento\')),\n                           Field(\'dependencia\', requires= IS_IN_DB(db, db.dependencia.id, \'%(dependencia)s\',\n                                                                   zero =\'Seleccione una dependencia\')),\n                           submit_button=\'Enviar\')\n    #form = SQLFORM.factory(db.documento, db.dependencia)\n    if form.process().accepted:\n        session.documento = form.vars.documento\n        session.dependencia = form.vars.dependencia\n        redirect(URL(\'/agregarCorrespondenciaMultiple\'))\n    else:\n        session.flash=\'Ha ocurrido un error\'\n    return dict(form = form)\n    \ndef agregarCorrespondenciaMultiple():\n    request_fields = request.vars.fields or \'default\'\n\n################################ The core ######################################\n    # Specify structured fields for the multi-line form layout.\n    # A "None" indicates an empty line over which the precedent line spans\n    if request_fields == \'default\':\n        fields = [\n                  [\'nro_de_documento\', \'fecha_correspondencia\'],\n                  [\'tipo_de_documento\', \'estatus\'],\n                  \'asunto\',\n                  [None, None],\n                  [\'remitente\', \'destinatario\'],\n                  [None, \'observaciones\'],\n                  ]\n    form = SOLIDFORM(db.correspondencia, fields=fields, tabla = auth.archive)\n    if form.process(onsuccess=auth.archive).accepted:\n        db.rollback()\n        usuario = db(db.auth_user.departamento==auth.user.departamento).select(db.auth_user.departamento).first()\n        departamentoUsuario = db(db.departamento.id==usuario[\'departamento\']).select(db.departamento.id).first()\n        documento = db(db.documento.id==session.documento).select(db.documento.tipo_de_documento).first()\n        dependencia = db(db.dependencia.id==session.dependencia).select(db.dependencia.id).first()\n        departamentos = db(db.departamento.dependencia==session.dependencia).select(db.departamento.id)\n        db.correspondencia.destinatario.readable = False\n        db.correspondencia.destinatario.writable = False\n        for departamento in departamentos:\n            if departamentoUsuario[\'id\'] == departamento[\'id\']:\n                continue\n            else:\n                db.correspondencia.insert(nro_de_documento = form.vars.nro_de_documento, fecha_correspondencia = form.vars.fecha_correspondencia,\n                                      tipo_de_documento = form.vars.tipo_de_documento, estatus = form.vars.estatus,\n                                      remitente = form.vars.remitente, departamento_origen = departamentoUsuario[\'id\'],\n                                      destinatario = form.vars.destinatario, departamento_destino = departamento[\'id\'],\n                                      asunto = form.vars.asunto, observaciones = form.vars.observaciones )\n        \n        session.flash = \'Han sido registrado los documento con \xc3\xa9xito\'\n        redirect(URL(\'/listar_correspondencias\'))\n    style = STYLE("""input[type="text"], textarea {width:100%; max-height: 50px;}\n                     .w2p_fw {padding-right: 10px; max-width:100%;}\n                     .w2p_fl {background: #eee;}\n                     .string {max-width: 300px;}\n                     .date {max-width: 80px;}""")\n    return dict(form=DIV(style, form),\n                #form__factory=form_factory, form__readonly=form_readonly, form__edit=form_edit,\n                form_args=DIV(A(\'fields=default\', _href=URL(vars={\'fields\': \'default\'})), \' \',\n                               ))\n\ndef agregarCorrespondenciaMultiple2():\n    options = [OPTION(t.first_name + " " + t.last_name,_value=t.id) for t in db(db.auth_user.departamento).select(db.auth_user.id, db.auth_user.first_name, db.auth_user.last_name)]\n    usuarios = SELECT(*options, _name="usuarios", _class="chzn-select", _multiple=\'\', _style="width:400px")\n    error = \'\'\n    if request.vars[\'formcc\'] and request.vars[\'usuarios\']:\n        usuarios = request.vars[\'usuarios\']\n        id_correspondencia = request.args(0)\n        correspondencia = db.correspondencia[id_correspondencia]  \n        for usuario in usuarios:\n            usuario = int(usuario)\n            registro_usuario = db(db.auth_user.id==usuario).select(db.auth_user.departamento).first()\n            correspondencia_nueva = db.correspondencia.insert(**db.correspondencia._filter_fields(correspondencia))\n            correspondencia_nueva.update_record(fecha_registro = request.now, asignado_a = usuario,\n                                                registrado_por = auth.user.id, modificado_por = auth.user.id,\n                                                departamento_destino = registro_usuario[\'departamento\'],\n                                                modificado_el = request.now)\n        session.flash = \'Copias creadas con \xc3\xa9xito\'\n        redirect(URL(\'/listar_correspondencias\'))\n    if request.vars[\'formcc\'] and not request.vars[\'usuarios\']:\n        error = DIV(\'Seleccione al menos un usuario\', _class="error", _style="display: inline-block; ")\n        print request.vars[\'usuarios\']\n    \n    return dict(usuarios = usuarios, error = error)\n\ndef ver_actual():\n    try:\n        id_registro = request.args(0)\n        rows = db(db.correspondencia.id==id_registro).select(db.correspondencia.modificado_el,\n                                                                                 db.correspondencia.modificado_por,\n                                                                                 db.correspondencia.nro_de_documento,\n                                                                                 db.correspondencia.tipo_de_documento,\n                                                                                 db.estatus.tipo_estatus, \n                                                                                 db.correspondencia.remitente,\n                                                                                 db.correspondencia.departamento_origen,\n                                                                                 db.correspondencia.destinatario,\n                                                                                 db.correspondencia.departamento_destino,\n                                                                                 db.correspondencia.asunto,\n                                                                                 db.correspondencia.observaciones,\n                                                                         left=[db.estatus.on(db.estatus.id==db.correspondencia.estatus)])\n    \n        headers = {\'correspondencia.modificado_el\':{\'label\':\'Modificado el\',\n                           \'class\':\'\', #class name of the header\n                           \'width\':\'\', #width in pixels or %\n                           \'truncate\': 16, #truncate the content to...\n                           \'selected\': False #agregate class selected to this column\n                           },\n                   \'correspondencia.modificado_por\':{\'label\':\'Modificado por\',\n                                \'class\':\'\', #class name of the header\n                                \'width\':\'\', #width in pixels or %\n                                \'truncate\': 16, #truncate the content to...\n                                \'selected\': False #agregate class selected to this column\n                                },\n                   \'correspondencia.nro_de_documento\':{\'label\':\'Nro Documento\',\n                                \'class\':\'\', #class name of the header\n                                \'width\':\'\', #width in pixels or %\n                                \'truncate\': 16, #truncate the content to...\n                                \'selected\': False #agregate class selected to this column\n                                },\n                   \'correspondencia.tipo_de_documento\':{\'label\':\'Tipo Documento\',\n                                \'class\':\'\', #class name of the header\n                                \'width\':\'\', #width in pixels or %\n                                \'truncate\': 16, #truncate the content to...\n                                \'selected\': False #agregate class selected to this column\n                                },\n                   \'estatus.tipo_estatus\':{\'label\':\'Estatus\',\n                                \'class\':\'\', #class name of the header\n                                \'width\':\'\', #width in pixels or %\n                                \'truncate\': 16, #truncate the content to...\n                                \'selected\': False #agregate class selected to this column\n                                },\n                   \'correspondencia.remitente\':{\'label\':\'Remitente\',\n                                \'class\':\'\', #class name of the header\n                                \'width\':\'\', #width in pixels or %\n                                \'truncate\': 50, #truncate the content to...\n                                \'selected\': False #agregate class selected to this column\n                                },\n                   \'correspondencia.departamento_origen\':{\'label\':\'Dpto. Origen\',\n                                \'class\':\'\', #class name of the header\n                                \'width\':\'\', #width in pixels or %\n                                \'truncate\': 16, #truncate the content to...\n                                \'selected\': False #agregate class selected to this column\n                                },\n                   \'correspondencia.destinatario\':{\'label\':\'Destinatario\',\n                                \'class\':\'\', #class name of the header\n                                \'width\':\'\', #width in pixels or %\n                                \'truncate\': 60, #truncate the content to...\n                                \'selected\': False #agregate class selected to this column\n                                },\n                   \'correspondencia.departamento_destino\':{\'label\':\'Depto. Destino\',\n                                \'class\':\'\', #class name of the header\n                                \'width\':\'\', #width in pixels or %\n                                \'truncate\': 16, #truncate the content to...\n                                \'selected\': False #agregate class selected to this column\n                                },\n                    \'correspondencia.asunto\':{\'label\':\'Asunto\',\n                                \'class\':\'\', #class name of the header\n                                \'width\':\'15%\', #width in pixels or %\n                                \'truncate\': 50, #truncate the content to...\n                                \'selected\': False #agregate class selected to this column\n                                },\n                    \'correspondencia.observaciones\':{\'label\':\'Observaciones\',\n                                \'class\':\'\', #class name of the header\n                                \'width\':\'20%\', #width in pixels or %\n                                \'truncate\': 50, #truncate the content to...\n                                \'selected\': False #agregate class selected to this column\n                                },\n               }\n        tabla_actual = SQLTABLE(rows, headers = headers)\n        return dict(tabla_actual = tabla_actual)\n    except:\n        return dict()\n\nresponse._vars=response._caller(listar_correspondencias)\n'
p7
sS'snapshot'
p8
(dp9
S'exception'
p10
(dp11
S'__hash__'
p12
S"<method-wrapper '__hash__' of exceptions.AttributeError object>"
p13
sS'__setattr__'
p14
S"<method-wrapper '__setattr__' of exceptions.AttributeError object>"
p15
sS'__reduce_ex__'
p16
S'<built-in method __reduce_ex__ of exceptions.AttributeError object>'
p17
sS'__getslice__'
p18
S"<method-wrapper '__getslice__' of exceptions.AttributeError object>"
p19
sS'__getitem__'
p20
S"<method-wrapper '__getitem__' of exceptions.AttributeError object>"
p21
sS'__setstate__'
p22
S'<built-in method __setstate__ of exceptions.AttributeError object>'
p23
sS'__reduce__'
p24
S'<built-in method __reduce__ of exceptions.AttributeError object>'
p25
sS'__str__'
p26
S"<method-wrapper '__str__' of exceptions.AttributeError object>"
p27
sS'__format__'
p28
S'<built-in method __format__ of exceptions.AttributeError object>'
p29
sS'__getattribute__'
p30
S"<method-wrapper '__getattribute__' of exceptions.AttributeError object>"
p31
sS'__class__'
p32
S"<type 'exceptions.AttributeError'>"
p33
sS'__unicode__'
p34
S'<built-in method __unicode__ of exceptions.AttributeError object>'
p35
sS'__delattr__'
p36
S"<method-wrapper '__delattr__' of exceptions.AttributeError object>"
p37
sS'__subclasshook__'
p38
S'<built-in method __subclasshook__ of type object>'
p39
sS'__repr__'
p40
S"<method-wrapper '__repr__' of exceptions.AttributeError object>"
p41
sS'args'
p42
S'("\'Table\' object has no attribute \'nombre\'",)'
p43
sS'__dict__'
p44
S'{}'
p45
sS'__sizeof__'
p46
S'<built-in method __sizeof__ of exceptions.AttributeError object>'
p47
sS'__doc__'
p48
S"'Attribute not found.'"
p49
sS'__init__'
p50
S"<method-wrapper '__init__' of exceptions.AttributeError object>"
p51
sS'__new__'
p52
S'<built-in method __new__ of type object>'
p53
ssS'evalue'
p54
S"'Table' object has no attribute 'nombre'"
p55
sS'request'
p56
cgluon.html
XML_unpickle
p57
(S's\r\x7f\x00\x00<div><table><tr><td style="font-weight:bold;vertical-align:top">ajax</td><td valign="top">:</td><td><div>False</div></td></tr><tr><td style="font-weight:bold;vertical-align:top">application</td><td valign="top">:</td><td><div>sicoin</div></td></tr><tr><td style="font-weight:bold;vertical-align:top">args</td><td valign="top">:</td><td><div><table></table></div></td></tr><tr><td style="font-weight:bold;vertical-align:top">body</td><td valign="top">:</td><td><div>&lt;cStringIO.StringO object at 0xafb15760&gt;</div></td></tr><tr><td style="font-weight:bold;vertical-align:top">cid</td><td valign="top">:</td><td><div>None</div></td></tr><tr><td style="font-weight:bold;vertical-align:top">client</td><td valign="top">:</td><td><div>127.0.0.1</div></td></tr><tr><td style="font-weight:bold;vertical-align:top">controller</td><td valign="top">:</td><td><div>correspondencia</div></td></tr><tr><td style="font-weight:bold;vertical-align:top">cookies</td><td valign="top">:</td><td><div><table><tr><td style="font-weight:bold;vertical-align:top">session_id_admin</td><td valign="top">:</td><td><div>127.0.0.1-1cb405f4-9779-4d01-a037-72944c286964<table><tr><td style="font-weight:bold;vertical-align:top">comment</td><td valign="top">:</td><td><div></div></td></tr><tr><td style="font-weight:bold;vertical-align:top">domain</td><td valign="top">:</td><td><div></div></td></tr><tr><td style="font-weight:bold;vertical-align:top">expires</td><td valign="top">:</td><td><div></div></td></tr><tr><td style="font-weight:bold;vertical-align:top">httponly</td><td valign="top">:</td><td><div></div></td></tr><tr><td style="font-weight:bold;vertical-align:top">max-age</td><td valign="top">:</td><td><div></div></td></tr><tr><td style="font-weight:bold;vertical-align:top">path</td><td valign="top">:</td><td><div></div></td></tr><tr><td style="font-weight:bold;vertical-align:top">secure</td><td valign="top">:</td><td><div></div></td></tr><tr><td style="font-weight:bold;vertical-align:top">version</td><td valign="top">:</td><td><div></div></td></tr></table></div></td></tr><tr><td style="font-weight:bold;vertical-align:top">session_id_sicoin</td><td valign="top">:</td><td><div>127.0.0.1-dbc17477-81da-4cbf-a754-12e9e18b9367<table><tr><td style="font-weight:bold;vertical-align:top">comment</td><td valign="top">:</td><td><div></div></td></tr><tr><td style="font-weight:bold;vertical-align:top">domain</td><td valign="top">:</td><td><div></div></td></tr><tr><td style="font-weight:bold;vertical-align:top">expires</td><td valign="top">:</td><td><div></div></td></tr><tr><td style="font-weight:bold;vertical-align:top">httponly</td><td valign="top">:</td><td><div></div></td></tr><tr><td style="font-weight:bold;vertical-align:top">max-age</td><td valign="top">:</td><td><div></div></td></tr><tr><td style="font-weight:bold;vertical-align:top">path</td><td valign="top">:</td><td><div></div></td></tr><tr><td style="font-weight:bold;vertical-align:top">secure</td><td valign="top">:</td><td><div></div></td></tr><tr><td style="font-weight:bold;vertical-align:top">version</td><td valign="top">:</td><td><div></div></td></tr></table></div></td></tr><tr><td style="font-weight:bold;vertical-align:top">session_id_siex</td><td valign="top">:</td><td><div>127.0.0.1-1a86a392-44ac-4239-a4ca-b02d0cd75d60<table><tr><td style="font-weight:bold;vertical-align:top">comment</td><td valign="top">:</td><td><div></div></td></tr><tr><td style="font-weight:bold;vertical-align:top">domain</td><td valign="top">:</td><td><div></div></td></tr><tr><td style="font-weight:bold;vertical-align:top">expires</td><td valign="top">:</td><td><div></div></td></tr><tr><td style="font-weight:bold;vertical-align:top">httponly</td><td valign="top">:</td><td><div></div></td></tr><tr><td style="font-weight:bold;vertical-align:top">max-age</td><td valign="top">:</td><td><div></div></td></tr><tr><td style="font-weight:bold;vertical-align:top">path</td><td valign="top">:</td><td><div></div></td></tr><tr><td style="font-weight:bold;vertical-align:top">secure</td><td valign="top">:</td><td><div></div></td></tr><tr><td style="font-weight:bold;vertical-align:top">version</td><td valign="top">:</td><td><div></div></td></tr></table></div></td></tr><tr><td style="font-weight:bold;vertical-align:top">session_id_siex2</td><td valign="top">:</td><td><div>127.0.0.1-6bb63e66-5e33-4140-be57-fa538130d0bd<table><tr><td style="font-weight:bold;vertical-align:top">comment</td><td valign="top">:</td><td><div></div></td></tr><tr><td style="font-weight:bold;vertical-align:top">domain</td><td valign="top">:</td><td><div></div></td></tr><tr><td style="font-weight:bold;vertical-align:top">expires</td><td valign="top">:</td><td><div></div></td></tr><tr><td style="font-weight:bold;vertical-align:top">httponly</td><td valign="top">:</td><td><div></div></td></tr><tr><td style="font-weight:bold;vertical-align:top">max-age</td><td valign="top">:</td><td><div></div></td></tr><tr><td style="font-weight:bold;vertical-align:top">path</td><td valign="top">:</td><td><div></div></td></tr><tr><td style="font-weight:bold;vertical-align:top">secure</td><td valign="top">:</td><td><div></div></td></tr><tr><td style="font-weight:bold;vertical-align:top">version</td><td valign="top">:</td><td><div></div></td></tr></table></div></td></tr><tr><td style="font-weight:bold;vertical-align:top">session_id_siex3</td><td valign="top">:</td><td><div>127.0.0.1-3f262f20-bf16-4711-b3f4-af73cc9af82a<table><tr><td style="font-weight:bold;vertical-align:top">comment</td><td valign="top">:</td><td><div></div></td></tr><tr><td style="font-weight:bold;vertical-align:top">domain</td><td valign="top">:</td><td><div></div></td></tr><tr><td style="font-weight:bold;vertical-align:top">expires</td><td valign="top">:</td><td><div></div></td></tr><tr><td style="font-weight:bold;vertical-align:top">httponly</td><td valign="top">:</td><td><div></div></td></tr><tr><td style="font-weight:bold;vertical-align:top">max-age</td><td valign="top">:</td><td><div></div></td></tr><tr><td style="font-weight:bold;vertical-align:top">path</td><td valign="top">:</td><td><div></div></td></tr><tr><td style="font-weight:bold;vertical-align:top">secure</td><td valign="top">:</td><td><div></div></td></tr><tr><td style="font-weight:bold;vertical-align:top">version</td><td valign="top">:</td><td><div></div></td></tr></table></div></td></tr><tr><td style="font-weight:bold;vertical-align:top">session_id_siex4</td><td valign="top">:</td><td><div>127.0.0.1-97066e42-1abc-4c2d-bd96-9afe5e97e777<table><tr><td style="font-weight:bold;vertical-align:top">comment</td><td valign="top">:</td><td><div></div></td></tr><tr><td style="font-weight:bold;vertical-align:top">domain</td><td valign="top">:</td><td><div></div></td></tr><tr><td style="font-weight:bold;vertical-align:top">expires</td><td valign="top">:</td><td><div></div></td></tr><tr><td style="font-weight:bold;vertical-align:top">httponly</td><td valign="top">:</td><td><div></div></td></tr><tr><td style="font-weight:bold;vertical-align:top">max-age</td><td valign="top">:</td><td><div></div></td></tr><tr><td style="font-weight:bold;vertical-align:top">path</td><td valign="top">:</td><td><div></div></td></tr><tr><td style="font-weight:bold;vertical-align:top">secure</td><td valign="top">:</td><td><div></div></td></tr><tr><td style="font-weight:bold;vertical-align:top">version</td><td valign="top">:</td><td><div></div></td></tr></table></div></td></tr><tr><td style="font-weight:bold;vertical-align:top">session_id_siex5</td><td valign="top">:</td><td><div>127.0.0.1-875eb9b8-9405-4cd4-9bb4-66f85660826a<table><tr><td style="font-weight:bold;vertical-align:top">comment</td><td valign="top">:</td><td><div></div></td></tr><tr><td style="font-weight:bold;vertical-align:top">domain</td><td valign="top">:</td><td><div></div></td></tr><tr><td style="font-weight:bold;vertical-align:top">expires</td><td valign="top">:</td><td><div></div></td></tr><tr><td style="font-weight:bold;vertical-align:top">httponly</td><td valign="top">:</td><td><div></div></td></tr><tr><td style="font-weight:bold;vertical-align:top">max-age</td><td valign="top">:</td><td><div></div></td></tr><tr><td style="font-weight:bold;vertical-align:top">path</td><td valign="top">:</td><td><div></div></td></tr><tr><td style="font-weight:bold;vertical-align:top">secure</td><td valign="top">:</td><td><div></div></td></tr><tr><td style="font-weight:bold;vertical-align:top">version</td><td valign="top">:</td><td><div></div></td></tr></table></div></td></tr><tr><td style="font-weight:bold;vertical-align:top">session_id_siex6</td><td valign="top">:</td><td><div>127.0.0.1-49a98fa5-abe1-441d-8e78-fe214d868ece<table><tr><td style="font-weight:bold;vertical-align:top">comment</td><td valign="top">:</td><td><div></div></td></tr><tr><td style="font-weight:bold;vertical-align:top">domain</td><td valign="top">:</td><td><div></div></td></tr><tr><td style="font-weight:bold;vertical-align:top">expires</td><td valign="top">:</td><td><div></div></td></tr><tr><td style="font-weight:bold;vertical-align:top">httponly</td><td valign="top">:</td><td><div></div></td></tr><tr><td style="font-weight:bold;vertical-align:top">max-age</td><td valign="top">:</td><td><div></div></td></tr><tr><td style="font-weight:bold;vertical-align:top">path</td><td valign="top">:</td><td><div></div></td></tr><tr><td style="font-weight:bold;vertical-align:top">secure</td><td valign="top">:</td><td><div></div></td></tr><tr><td style="font-weight:bold;vertical-align:top">version</td><td valign="top">:</td><td><div></div></td></tr></table></div></td></tr><tr><td style="font-weight:bold;vertical-align:top">session_id_siex7</td><td valign="top">:</td><td><div>127.0.0.1-105073ff-b316-4aad-b52a-3d12ccdd6e98<table><tr><td style="font-weight:bold;vertical-align:top">comment</td><td valign="top">:</td><td><div></div></td></tr><tr><td style="font-weight:bold;vertical-align:top">domain</td><td valign="top">:</td><td><div></div></td></tr><tr><td style="font-weight:bold;vertical-align:top">expires</td><td valign="top">:</td><td><div></div></td></tr><tr><td style="font-weight:bold;vertical-align:top">httponly</td><td valign="top">:</td><td><div></div></td></tr><tr><td style="font-weight:bold;vertical-align:top">max-age</td><td valign="top">:</td><td><div></div></td></tr><tr><td style="font-weight:bold;vertical-align:top">path</td><td valign="top">:</td><td><div></div></td></tr><tr><td style="font-weight:bold;vertical-align:top">secure</td><td valign="top">:</td><td><div></div></td></tr><tr><td style="font-weight:bold;vertical-align:top">version</td><td valign="top">:</td><td><div></div></td></tr></table></div></td></tr><tr><td style="font-weight:bold;vertical-align:top">session_id_siex_old</td><td valign="top">:</td><td><div>127.0.0.1-42070c80-499c-4e71-9440-ddea1e897817<table><tr><td style="font-weight:bold;vertical-align:top">comment</td><td valign="top">:</td><td><div></div></td></tr><tr><td style="font-weight:bold;vertical-align:top">domain</td><td valign="top">:</td><td><div></div></td></tr><tr><td style="font-weight:bold;vertical-align:top">expires</td><td valign="top">:</td><td><div></div></td></tr><tr><td style="font-weight:bold;vertical-align:top">httponly</td><td valign="top">:</td><td><div></div></td></tr><tr><td style="font-weight:bold;vertical-align:top">max-age</td><td valign="top">:</td><td><div></div></td></tr><tr><td style="font-weight:bold;vertical-align:top">path</td><td valign="top">:</td><td><div></div></td></tr><tr><td style="font-weight:bold;vertical-align:top">secure</td><td valign="top">:</td><td><div></div></td></tr><tr><td style="font-weight:bold;vertical-align:top">version</td><td valign="top">:</td><td><div></div></td></tr></table></div></td></tr><tr><td style="font-weight:bold;vertical-align:top">session_id_siex_pace</td><td valign="top">:</td><td><div>127.0.0.1-189cb6a4-9bcd-4118-bcd1-6dd8daa6b402<table><tr><td style="font-weight:bold;vertical-align:top">comment</td><td valign="top">:</td><td><div></div></td></tr><tr><td style="font-weight:bold;vertical-align:top">domain</td><td valign="top">:</td><td><div></div></td></tr><tr><td style="font-weight:bold;vertical-align:top">expires</td><td valign="top">:</td><td><div></div></td></tr><tr><td style="font-weight:bold;vertical-align:top">httponly</td><td valign="top">:</td><td><div></div></td></tr><tr><td style="font-weight:bold;vertical-align:top">max-age</td><td valign="top">:</td><td><div></div></td></tr><tr><td style="font-weight:bold;vertical-align:top">path</td><td valign="top">:</td><td><div></div></td></tr><tr><td style="font-weight:bold;vertical-align:top">secure</td><td valign="top">:</td><td><div></div></td></tr><tr><td style="font-weight:bold;vertical-align:top">version</td><td valign="top">:</td><td><div></div></td></tr></table></div></td></tr><tr><td style="font-weight:bold;vertical-align:top">session_id_test</td><td valign="top">:</td><td><div>127.0.0.1-4ba13c67-1095-4c02-8bb8-bc9fd5db2ac2<table><tr><td style="font-weight:bold;vertical-align:top">comment</td><td valign="top">:</td><td><div></div></td></tr><tr><td style="font-weight:bold;vertical-align:top">domain</td><td valign="top">:</td><td><div></div></td></tr><tr><td style="font-weight:bold;vertical-align:top">expires</td><td valign="top">:</td><td><div></div></td></tr><tr><td style="font-weight:bold;vertical-align:top">httponly</td><td valign="top">:</td><td><div></div></td></tr><tr><td style="font-weight:bold;vertical-align:top">max-age</td><td valign="top">:</td><td><div></div></td></tr><tr><td style="font-weight:bold;vertical-align:top">path</td><td valign="top">:</td><td><div></div></td></tr><tr><td style="font-weight:bold;vertical-align:top">secure</td><td valign="top">:</td><td><div></div></td></tr><tr><td style="font-weight:bold;vertical-align:top">version</td><td valign="top">:</td><td><div></div></td></tr></table></div></td></tr></table></div></td></tr><tr><td style="font-weight:bold;vertical-align:top">env</td><td valign="top">:</td><td><div><table><tr><td style="font-weight:bold;vertical-align:top">app_folders</td><td valign="top">:</td><td><div>set([&#x27;/home/perdomor/Odesk/APR/web2py/applications/sicoin/&#x27;])</div></td></tr><tr><td style="font-weight:bold;vertical-align:top">applications_parent</td><td valign="top">:</td><td><div>/home/perdomor/Odesk/APR/web2py</div></td></tr><tr><td style="font-weight:bold;vertical-align:top">cmd_args</td><td valign="top">:</td><td><div><table></table></div></td></tr><tr><td style="font-weight:bold;vertical-align:top">cmd_options</td><td valign="top">:</td><td><div>&lt;Values at 0x951874c: {&#x27;verbose&#x27;: False, &#x27;ip&#x27;: &#x27;127.0.0.1&#x27;, &#x27;with_scheduler&#x27;: False, &#x27;ips&#x27;: [&#x27;190.169.221.43&#x27;], &#x27;shutdown_timeout&#x27;: 5, &#x27;taskbar&#x27;: False, &#x27;with_coverage&#x27;: False, &#x27;port&#x27;: 8000, &#x27;maxthreads&#x27;: None, &#x27;softcron&#x27;: False, &#x27;server_name&#x27;: &#x27;perdomor&#x27;, &#x27;bpython&#x27;: False, &#x27;nogui&#x27;: False, &#x27;pid_filename&#x27;: &#x27;httpserver.pid&#x27;, &#x27;extcron&#x27;: False, &#x27;runcron&#x27;: False, &#x27;run_system_tests&#x27;: False, &#x27;test&#x27;: None, &#x27;folder&#x27;: &#x27;/home/perdomor/Odesk/APR/web2py&#x27;, &#x27;config&#x27;: &#x27;&#x27;, &#x27;import_models&#x27;: False, &#x27;winservice&#x27;: &#x27;&#x27;, &#x27;shell&#x27;: None, &#x27;run&#x27;: &#x27;&#x27;, &#x27;log_filename&#x27;: &#x27;httpserver.log&#x27;, &#x27;debuglevel&#x27;: 30, &#x27;args&#x27;: [&#x27;&#x27;], &#x27;socket_timeout&#x27;: 5, &#x27;ssl_ca_certificate&#x27;: None, &#x27;scheduler&#x27;: None, &#x27;profiler_filename&#x27;: None, &#x27;ssl_private_key&#x27;: &#x27;&#x27;, &#x27;scheduler_groups&#x27;: None, &#x27;password&#x27;: &#x27;12345&#x27;, &#x27;request_queue_size&#x27;: 5, &#x27;ssl_certificate&#x27;: &#x27;&#x27;, &#x27;cronjob&#x27;: False, &#x27;numthreads&#x27;: None, &#x27;quiet&#x27;: False, &#x27;interfaces&#x27;: None, &#x27;minthreads&#x27;: None, &#x27;timeout&#x27;: 10, &#x27;plain&#x27;: False, &#x27;nobanner&#x27;: False}&gt;</div></td></tr><tr><td style="font-weight:bold;vertical-align:top">db_sessions</td><td valign="top">:</td><td><div>set([])</div></td></tr><tr><td style="font-weight:bold;vertical-align:top">debugging</td><td valign="top">:</td><td><div>False</div></td></tr><tr><td style="font-weight:bold;vertical-align:top">gluon_parent</td><td valign="top">:</td><td><div>/home/perdomor/Odesk/APR/web2py</div></td></tr><tr><td style="font-weight:bold;vertical-align:top">http_accept</td><td valign="top">:</td><td><div>text/html,application/xhtml+xml,application/xml;q=0.9,*/*;q=0.8</div></td></tr><tr><td style="font-weight:bold;vertical-align:top">http_accept_encoding</td><td valign="top">:</td><td><div>gzip,deflate,sdch</div></td></tr><tr><td style="font-weight:bold;vertical-align:top">http_accept_language</td><td valign="top">:</td><td><div>es-419,es;q=0.8</div></td></tr><tr><td style="font-weight:bold;vertical-align:top">http_connection</td><td valign="top">:</td><td><div>keep-alive</div></td></tr><tr><td style="font-weight:bold;vertical-align:top">http_cookie</td><td valign="top">:</td><td><div>session_id_siex6=127.0.0.1-49a98fa5-abe1-441d-8e78-fe214d868ece; session_id_siex2=127.0.0.1-6bb63e66-5e33-4140-be57-fa538130d0bd; session_id_siex3=127.0.0.1-3f262f20-bf16-4711-b3f4-af73cc9af82a; session_id_siex4=127.0.0.1-97066e42-1abc-4c2d-bd96-9afe5e97e777; session_id_siex5=127.0.0.1-875eb9b8-9405-4cd4-9bb4-66f85660826a; session_id_siex_old=127.0.0.1-42070c80-499c-4e71-9440-ddea1e897817; session_id_siex7=127.0.0.1-105073ff-b316-4aad-b52a-3d12ccdd6e98; session_id_siex_pace=127.0.0.1-189cb6a4-9bcd-4118-bcd1-6dd8daa6b402; session_id_test=127.0.0.1-4ba13c67-1095-4c02-8bb8-bc9fd5db2ac2; session_id_admin=127.0.0.1-1cb405f4-9779-4d01-a037-72944c286964; session_id_siex=127.0.0.1-1a86a392-44ac-4239-a4ca-b02d0cd75d60; session_id_sicoin=127.0.0.1-dbc17477-81da-4cbf-a754-12e9e18b9367</div></td></tr><tr><td style="font-weight:bold;vertical-align:top">http_host</td><td valign="top">:</td><td><div>127.0.0.1:8000</div></td></tr><tr><td style="font-weight:bold;vertical-align:top">http_referer</td><td valign="top">:</td><td><div>http://127.0.0.1:8000/sicoin/default/index</div></td></tr><tr><td style="font-weight:bold;vertical-align:top">http_user_agent</td><td valign="top">:</td><td><div>Mozilla/5.0 (X11; Linux i686) AppleWebKit/537.36 (KHTML, like Gecko) Chrome/29.0.1547.57 Safari/537.36</div></td></tr><tr><td style="font-weight:bold;vertical-align:top">is_jython</td><td valign="top">:</td><td><div>False</div></td></tr><tr><td style="font-weight:bold;vertical-align:top">is_pypy</td><td valign="top">:</td><td><div>False</div></td></tr><tr><td style="font-weight:bold;vertical-align:top">local_hosts</td><td valign="top">:</td><td><div><table><tr><td><div>190.169.221.43</div></td></tr><tr><td><div>perdomor</div></td></tr><tr><td><div>::ffff:127.0.0.1</div></td></tr><tr><td><div>::1</div></td></tr><tr><td><div>perdomor.fipu.ucv.ve</div></td></tr><tr><td><div>127.0.0.1</div></td></tr></table></div></td></tr><tr><td style="font-weight:bold;vertical-align:top">path_info</td><td valign="top">:</td><td><div>/sicoin/correspondencia/listar_correspondencias</div></td></tr><tr><td style="font-weight:bold;vertical-align:top">query_string</td><td valign="top">:</td><td><div></div></td></tr><tr><td style="font-weight:bold;vertical-align:top">remote_addr</td><td valign="top">:</td><td><div>127.0.0.1</div></td></tr><tr><td style="font-weight:bold;vertical-align:top">remote_port</td><td valign="top">:</td><td><div>53806</div></td></tr><tr><td style="font-weight:bold;vertical-align:top">request_method</td><td valign="top">:</td><td><div>GET</div></td></tr><tr><td style="font-weight:bold;vertical-align:top">request_uri</td><td valign="top">:</td><td><div>/sicoin/correspondencia/listar_correspondencias</div></td></tr><tr><td style="font-weight:bold;vertical-align:top">script_name</td><td valign="top">:</td><td><div></div></td></tr><tr><td style="font-weight:bold;vertical-align:top">server_name</td><td valign="top">:</td><td><div>perdomor</div></td></tr><tr><td style="font-weight:bold;vertical-align:top">server_port</td><td valign="top">:</td><td><div>8000</div></td></tr><tr><td style="font-weight:bold;vertical-align:top">server_protocol</td><td valign="top">:</td><td><div>HTTP/1.1</div></td></tr><tr><td style="font-weight:bold;vertical-align:top">server_software</td><td valign="top">:</td><td><div>Rocket 1.2.6</div></td></tr><tr><td style="font-weight:bold;vertical-align:top">web2py_path</td><td valign="top">:</td><td><div>/home/perdomor/Odesk/APR/web2py</div></td></tr><tr><td style="font-weight:bold;vertical-align:top">web2py_version</td><td valign="top">:</td><td><div>2.5.1-stable+timestamp.2013.06.06.15.39.19</div></td></tr><tr><td style="font-weight:bold;vertical-align:top">wsgi_errors</td><td valign="top">:</td><td><div>&lt;open file &#x27;&lt;stderr&gt;&#x27;, mode &#x27;w&#x27; at 0xb75040d0&gt;</div></td></tr><tr><td style="font-weight:bold;vertical-align:top">wsgi_file_wrapper</td><td valign="top">:</td><td><div>&lt;class wsgiref.util.FileWrapper at 0x94587ac&gt;</div></td></tr><tr><td style="font-weight:bold;vertical-align:top">wsgi_input</td><td valign="top">:</td><td><div>&lt;socket._fileobject object at 0xb63ae52c&gt;</div></td></tr><tr><td style="font-weight:bold;vertical-align:top">wsgi_multiprocess</td><td valign="top">:</td><td><div>False</div></td></tr><tr><td style="font-weight:bold;vertical-align:top">wsgi_multithread</td><td valign="top">:</td><td><div>True</div></td></tr><tr><td style="font-weight:bold;vertical-align:top">wsgi_run_once</td><td valign="top">:</td><td><div>False</div></td></tr><tr><td style="font-weight:bold;vertical-align:top">wsgi_url_scheme</td><td valign="top">:</td><td><div>http</div></td></tr><tr><td style="font-weight:bold;vertical-align:top">wsgi_version</td><td valign="top">:</td><td><div><table><tr><td><div>1</div></td></tr><tr><td><div>0</div></td></tr></table></div></td></tr></table></div></td></tr><tr><td style="font-weight:bold;vertical-align:top">extension</td><td valign="top">:</td><td><div>html</div></td></tr><tr><td style="font-weight:bold;vertical-align:top">folder</td><td valign="top">:</td><td><div>/home/perdomor/Odesk/APR/web2py/applications/sicoin/</div></td></tr><tr><td style="font-weight:bold;vertical-align:top">function</td><td valign="top">:</td><td><div>listar_correspondencias</div></td></tr><tr><td style="font-weight:bold;vertical-align:top">get_vars</td><td valign="top">:</td><td><div><table></table></div></td></tr><tr><td style="font-weight:bold;vertical-align:top">global_settings</td><td valign="top">:</td><td><div><table><tr><td style="font-weight:bold;vertical-align:top">app_folders</td><td valign="top">:</td><td><div>set([&#x27;/home/perdomor/Odesk/APR/web2py/applications/sicoin/&#x27;])</div></td></tr><tr><td style="font-weight:bold;vertical-align:top">applications_parent</td><td valign="top">:</td><td><div>/home/perdomor/Odesk/APR/web2py</div></td></tr><tr><td style="font-weight:bold;vertical-align:top">cmd_args</td><td valign="top">:</td><td><div><table></table></div></td></tr><tr><td style="font-weight:bold;vertical-align:top">cmd_options</td><td valign="top">:</td><td><div>&lt;Values at 0x951874c: {&#x27;verbose&#x27;: False, &#x27;ip&#x27;: &#x27;127.0.0.1&#x27;, &#x27;with_scheduler&#x27;: False, &#x27;ips&#x27;: [&#x27;190.169.221.43&#x27;], &#x27;shutdown_timeout&#x27;: 5, &#x27;taskbar&#x27;: False, &#x27;with_coverage&#x27;: False, &#x27;port&#x27;: 8000, &#x27;maxthreads&#x27;: None, &#x27;softcron&#x27;: False, &#x27;server_name&#x27;: &#x27;perdomor&#x27;, &#x27;bpython&#x27;: False, &#x27;nogui&#x27;: False, &#x27;pid_filename&#x27;: &#x27;httpserver.pid&#x27;, &#x27;extcron&#x27;: False, &#x27;runcron&#x27;: False, &#x27;run_system_tests&#x27;: False, &#x27;test&#x27;: None, &#x27;folder&#x27;: &#x27;/home/perdomor/Odesk/APR/web2py&#x27;, &#x27;config&#x27;: &#x27;&#x27;, &#x27;import_models&#x27;: False, &#x27;winservice&#x27;: &#x27;&#x27;, &#x27;shell&#x27;: None, &#x27;run&#x27;: &#x27;&#x27;, &#x27;log_filename&#x27;: &#x27;httpserver.log&#x27;, &#x27;debuglevel&#x27;: 30, &#x27;args&#x27;: [&#x27;&#x27;], &#x27;socket_timeout&#x27;: 5, &#x27;ssl_ca_certificate&#x27;: None, &#x27;scheduler&#x27;: None, &#x27;profiler_filename&#x27;: None, &#x27;ssl_private_key&#x27;: &#x27;&#x27;, &#x27;scheduler_groups&#x27;: None, &#x27;password&#x27;: &#x27;12345&#x27;, &#x27;request_queue_size&#x27;: 5, &#x27;ssl_certificate&#x27;: &#x27;&#x27;, &#x27;cronjob&#x27;: False, &#x27;numthreads&#x27;: None, &#x27;quiet&#x27;: False, &#x27;interfaces&#x27;: None, &#x27;minthreads&#x27;: None, &#x27;timeout&#x27;: 10, &#x27;plain&#x27;: False, &#x27;nobanner&#x27;: False}&gt;</div></td></tr><tr><td style="font-weight:bold;vertical-align:top">db_sessions</td><td valign="top">:</td><td><div>set([])</div></td></tr><tr><td style="font-weight:bold;vertical-align:top">debugging</td><td valign="top">:</td><td><div>False</div></td></tr><tr><td style="font-weight:bold;vertical-align:top">gluon_parent</td><td valign="top">:</td><td><div>/home/perdomor/Odesk/APR/web2py</div></td></tr><tr><td style="font-weight:bold;vertical-align:top">is_jython</td><td valign="top">:</td><td><div>False</div></td></tr><tr><td style="font-weight:bold;vertical-align:top">is_pypy</td><td valign="top">:</td><td><div>False</div></td></tr><tr><td style="font-weight:bold;vertical-align:top">local_hosts</td><td valign="top">:</td><td><div><table><tr><td><div>190.169.221.43</div></td></tr><tr><td><div>perdomor</div></td></tr><tr><td><div>::ffff:127.0.0.1</div></td></tr><tr><td><div>::1</div></td></tr><tr><td><div>perdomor.fipu.ucv.ve</div></td></tr><tr><td><div>127.0.0.1</div></td></tr></table></div></td></tr><tr><td style="font-weight:bold;vertical-align:top">web2py_version</td><td valign="top">:</td><td><div>2.5.1-stable+timestamp.2013.06.06.15.39.19</div></td></tr></table></div></td></tr><tr><td style="font-weight:bold;vertical-align:top">is_https</td><td valign="top">:</td><td><div>False</div></td></tr><tr><td style="font-weight:bold;vertical-align:top">is_local</td><td valign="top">:</td><td><div>True</div></td></tr><tr><td style="font-weight:bold;vertical-align:top">is_restful</td><td valign="top">:</td><td><div>False</div></td></tr><tr><td style="font-weight:bold;vertical-align:top">now</td><td valign="top">:</td><td><div>datetime.datetime(2013, 9, 30, 22, 47, 29, 221958)</div></td></tr><tr><td style="font-weight:bold;vertical-align:top">post_vars</td><td valign="top">:</td><td><div><table></table></div></td></tr><tr><td style="font-weight:bold;vertical-align:top">raw_args</td><td valign="top">:</td><td><div></div></td></tr><tr><td style="font-weight:bold;vertical-align:top">raw_extension</td><td valign="top">:</td><td><div>None</div></td></tr><tr><td style="font-weight:bold;vertical-align:top">url</td><td valign="top">:</td><td><div>/sicoin/correspondencia/listar_correspondencias</div></td></tr><tr><td style="font-weight:bold;vertical-align:top">utcnow</td><td valign="top">:</td><td><div>datetime.datetime(2013, 10, 1, 3, 17, 29, 221997)</div></td></tr><tr><td style="font-weight:bold;vertical-align:top">uuid</td><td valign="top">:</td><td><div>sicoin/127.0.0.1.2013-09-30.22-47-29.a2b54c1b-869f-4db4-b4ca-c13a6b67dea5</div></td></tr><tr><td style="font-weight:bold;vertical-align:top">vars</td><td valign="top">:</td><td><div><table><tr><td style="font-weight:bold;vertical-align:top">records</td><td valign="top">:</td><td><div><table></table></div></td></tr></table></div></td></tr><tr><td style="font-weight:bold;vertical-align:top">wsgi</td><td valign="top">:</td><td><div><table><tr><td style="font-weight:bold;vertical-align:top">environ</td><td valign="top">:</td><td><div><table><tr><td style="font-weight:bold;vertical-align:top">HTTP_ACCEPT</td><td valign="top">:</td><td><div>text/html,application/xhtml+xml,application/xml;q=0.9,*/*;q=0.8</div></td></tr><tr><td style="font-weight:bold;vertical-align:top">HTTP_ACCEPT_ENCODING</td><td valign="top">:</td><td><div>gzip,deflate,sdch</div></td></tr><tr><td style="font-weight:bold;vertical-align:top">HTTP_ACCEPT_LANGUAGE</td><td valign="top">:</td><td><div>es-419,es;q=0.8</div></td></tr><tr><td style="font-weight:bold;vertical-align:top">HTTP_CONNECTION</td><td valign="top">:</td><td><div>keep-alive</div></td></tr><tr><td style="font-weight:bold;vertical-align:top">HTTP_COOKIE</td><td valign="top">:</td><td><div>session_id_siex6=127.0.0.1-49a98fa5-abe1-441d-8e78-fe214d868ece; session_id_siex2=127.0.0.1-6bb63e66-5e33-4140-be57-fa538130d0bd; session_id_siex3=127.0.0.1-3f262f20-bf16-4711-b3f4-af73cc9af82a; session_id_siex4=127.0.0.1-97066e42-1abc-4c2d-bd96-9afe5e97e777; session_id_siex5=127.0.0.1-875eb9b8-9405-4cd4-9bb4-66f85660826a; session_id_siex_old=127.0.0.1-42070c80-499c-4e71-9440-ddea1e897817; session_id_siex7=127.0.0.1-105073ff-b316-4aad-b52a-3d12ccdd6e98; session_id_siex_pace=127.0.0.1-189cb6a4-9bcd-4118-bcd1-6dd8daa6b402; session_id_test=127.0.0.1-4ba13c67-1095-4c02-8bb8-bc9fd5db2ac2; session_id_admin=127.0.0.1-1cb405f4-9779-4d01-a037-72944c286964; session_id_siex=127.0.0.1-1a86a392-44ac-4239-a4ca-b02d0cd75d60; session_id_sicoin=127.0.0.1-dbc17477-81da-4cbf-a754-12e9e18b9367</div></td></tr><tr><td style="font-weight:bold;vertical-align:top">HTTP_HOST</td><td valign="top">:</td><td><div>127.0.0.1:8000</div></td></tr><tr><td style="font-weight:bold;vertical-align:top">HTTP_REFERER</td><td valign="top">:</td><td><div>http://127.0.0.1:8000/sicoin/default/index</div></td></tr><tr><td style="font-weight:bold;vertical-align:top">HTTP_USER_AGENT</td><td valign="top">:</td><td><div>Mozilla/5.0 (X11; Linux i686) AppleWebKit/537.36 (KHTML, like Gecko) Chrome/29.0.1547.57 Safari/537.36</div></td></tr><tr><td style="font-weight:bold;vertical-align:top">PATH_INFO</td><td valign="top">:</td><td><div>/sicoin/correspondencia/listar_correspondencias</div></td></tr><tr><td style="font-weight:bold;vertical-align:top">QUERY_STRING</td><td valign="top">:</td><td><div></div></td></tr><tr><td style="font-weight:bold;vertical-align:top">REMOTE_ADDR</td><td valign="top">:</td><td><div>127.0.0.1</div></td></tr><tr><td style="font-weight:bold;vertical-align:top">REMOTE_PORT</td><td valign="top">:</td><td><div>53806</div></td></tr><tr><td style="font-weight:bold;vertical-align:top">REQUEST_METHOD</td><td valign="top">:</td><td><div>GET</div></td></tr><tr><td style="font-weight:bold;vertical-align:top">REQUEST_URI</td><td valign="top">:</td><td><div>/sicoin/correspondencia/listar_correspondencias</div></td></tr><tr><td style="font-weight:bold;vertical-align:top">SCRIPT_NAME</td><td valign="top">:</td><td><div></div></td></tr><tr><td style="font-weight:bold;vertical-align:top">SERVER_NAME</td><td valign="top">:</td><td><div>perdomor</div></td></tr><tr><td style="font-weight:bold;vertical-align:top">SERVER_PORT</td><td valign="top">:</td><td><div>8000</div></td></tr><tr><td style="font-weight:bold;vertical-align:top">SERVER_PROTOCOL</td><td valign="top">:</td><td><div>HTTP/1.1</div></td></tr><tr><td style="font-weight:bold;vertical-align:top">SERVER_SOFTWARE</td><td valign="top">:</td><td><div>Rocket 1.2.6</div></td></tr><tr><td style="font-weight:bold;vertical-align:top">wsgi.errors</td><td valign="top">:</td><td><div>&lt;open file &#x27;&lt;stderr&gt;&#x27;, mode &#x27;w&#x27; at 0xb75040d0&gt;</div></td></tr><tr><td style="font-weight:bold;vertical-align:top">wsgi.file_wrapper</td><td valign="top">:</td><td><div>&lt;class wsgiref.util.FileWrapper at 0x94587ac&gt;</div></td></tr><tr><td style="font-weight:bold;vertical-align:top">wsgi.input</td><td valign="top">:</td><td><div>&lt;cStringIO.StringO object at 0xafb15760&gt;</div></td></tr><tr><td style="font-weight:bold;vertical-align:top">wsgi.multiprocess</td><td valign="top">:</td><td><div>False</div></td></tr><tr><td style="font-weight:bold;vertical-align:top">wsgi.multithread</td><td valign="top">:</td><td><div>True</div></td></tr><tr><td style="font-weight:bold;vertical-align:top">wsgi.run_once</td><td valign="top">:</td><td><div>False</div></td></tr><tr><td style="font-weight:bold;vertical-align:top">wsgi.url_scheme</td><td valign="top">:</td><td><div>http</div></td></tr><tr><td style="font-weight:bold;vertical-align:top">wsgi.version</td><td valign="top">:</td><td><div>1</div></td></tr></table></div></td></tr></table></div></td></tr></table></div>'
tRp58
sS'frames'
p59
(lp60
(dp61
S'file'
p62
S'/home/perdomor/Odesk/APR/web2py/gluon/restricted.py'
p63
sS'dump'
p64
(dp65
S'environment'
p66
S"{'A': <class 'gluon.html.A'>, 'ANY_OF': <class 'gluon.validators.ANY_OF'>, 'Auth': <class 'gluon.tools.Auth'>, 'B': <class 'gluon.html.B'>, 'BEAUTIFY': <class 'gluon.html.BEAUTIFY'>, 'BODY': <class 'gluon.html.BODY'>, 'BR': <class 'gluon.html.BR'>, 'BUTTON': <class 'gluon.html.BUTTON'>, 'CAT': <class 'gluon.html.CAT'>, 'CENTER': <class 'gluon.html.CENTER'>, ...}"
p67
sS'ccode'
p68
S'<code object <module> at 0xafb2ea40, file "/home...s/sicoin/controllers/correspondencia.py", line 2>'
p69
ssS'lnum'
p70
I212
sS'lines'
p71
(dp72
I207
S'    try:'
p73
sI208
S'        if isinstance(code, types.CodeType):'
p74
sI209
S'            ccode = code'
p75
sI210
S'        else:'
p76
sI211
S'            ccode = compile2(code, layer)'
p77
sI212
S'        exec ccode in environment'
p78
sI213
S'    except HTTP:'
p79
sI214
S'        raise'
p80
sI215
S'    except RestrictedError:'
p81
sI216
S'        # do not encapsulate (obfuscate) the original RestrictedError'
p82
ssS'call'
p83
S'(code="# coding: utf8\\nT.force(\'es\')\\nfrom plugin_solidfo...._vars=response._caller(listar_correspondencias)\\n", environment={\'A\': <class \'gluon.html.A\'>, \'ANY_OF\': <class \'gluon.validators.ANY_OF\'>, \'Auth\': <class \'gluon.tools.Auth\'>, \'B\': <class \'gluon.html.B\'>, \'BEAUTIFY\': <class \'gluon.html.BEAUTIFY\'>, \'BODY\': <class \'gluon.html.BODY\'>, \'BR\': <class \'gluon.html.BR\'>, \'BUTTON\': <class \'gluon.html.BUTTON\'>, \'CAT\': <class \'gluon.html.CAT\'>, \'CENTER\': <class \'gluon.html.CENTER\'>, ...}, layer=\'/home/perdomor/Odesk/APR/web2py/applications/sicoin/controllers/correspondencia.py\')'
p84
sS'func'
p85
S'restricted'
p86
sa(dp87
g62
S'/home/perdomor/Odesk/APR/web2py/applications/sicoin/controllers/correspondencia.py'
p88
sg64
(dp89
sg70
I827
sg71
(dp90
I816
S"                                'class':'', #class name of the header"
p91
sI817
S"                                'width':'20%', #width in pixels or %"
p92
sI818
S"                                'truncate': 50, #truncate the content to..."
p93
sI819
S"                                'selected': False #agregate class selected to this column"
p94
sI820
S'                                },'
p95
sI821
S'               }'
p96
sI822
S'        tabla_actual = SQLTABLE(rows, headers = headers)'
p97
sI823
S'        return dict(tabla_actual = tabla_actual)'
p98
sI824
S'    except:'
p99
sI825
S'        return dict()'
p100
ssg83
S'()'
p101
sg85
S'<module>'
p102
sa(dp103
g62
S'/home/perdomor/Odesk/APR/web2py/gluon/globals.py'
p104
sg64
(dp105
S'self'
p106
S'undefined'
p107
sS'f'
S'<function listar_correspondencias>'
p108
ssg70
I194
sg71
(dp109
I192
S"        self.delimiters = ('{{', '}}')"
p110
sI193
S'        self._vars = None'
p111
sI194
S'        self._caller = lambda f: f()'
p112
sI195
S'        self._view_environment = None'
p113
sI196
S'        self._custom_commit = None'
p114
sI197
S'        self._custom_rollback = None'
p115
sI198
S''
sI189
S'        self.menu = []             # used by the default view layout'
p116
sI190
S'        self.files = []            # used by web2py_ajax.html'
p117
sI191
S'        self.generic_patterns = []  # patterns to allow generic views'
p118
ssg83
S'(f=<function listar_correspondencias>)'
p119
sg85
S'<lambda>'
p120
sa(dp121
g62
S'/home/perdomor/Odesk/APR/web2py/gluon/tools.py'
p122
sg64
(dp123
S'action'
p124
S'<function listar_correspondencias>'
p125
sS'a'
S'()'
p126
sS'b'
g45
ssg70
I3022
sg71
(dp127
I3017
S'                    flag = condition'
p128
sI3018
S'                if not flag:'
p129
sI3019
S'                    current.session.flash = self.messages.access_denied'
p130
sI3020
S'                    return call_or_redirect('
p131
sI3021
S'                        self.settings.on_failed_authorization)'
p132
sI3022
S'                return action(*a, **b)'
p133
sI3023
S'            f.__doc__ = action.__doc__'
p134
sI3024
S'            f.__name__ = action.__name__'
p135
sI3025
S'            f.__dict__.update(action.__dict__)'
p136
sI3026
S'            return f'
p137
ssg83
S'(*a=(), **b={})'
p138
sg85
S'f'
sa(dp139
g62
S'/home/perdomor/Odesk/APR/web2py/applications/sicoin/controllers/correspondencia.py'
p140
sg64
(dp141
S'orderby'
p142
S'[<gluon.dal.Expression object>]'
p143
sS'links'
p144
S'[<function <lambda>>, <function <lambda>>]'
p145
sS'csv'
p146
g107
sS'details'
p147
S'True'
p148
sS'builtinFalse'
p149
S'False'
p150
sS'SQLFORM.grid'
p151
S'<function grid>'
p152
sS'global SQLFORM'
p153
S"<class 'gluon.sqlhtml.SQLFORM'>"
p154
sS'create'
p155
g148
sS'editable'
p156
g148
sS'ids'
p157
g107
sS'user_signature'
p158
g107
sS'global reporte_entregas'
p159
S'<function reporte_entregas>'
p160
sS'fields'
p161
S'[<gluon.dal.Field object>, <gluon.dal.Field object>, <gluon.dal.Field object>, <gluon.dal.Field object>, <gluon.dal.Field object>, <gluon.dal.Field object>, <gluon.dal.Field object>, <gluon.dal.Field object>, <gluon.dal.Field object>]'
p162
sS'grid'
p163
g107
sS'selectable'
p164
g107
sS'query'
p165
S'<Query ((correspondencia.registrado_por = 1) OR (correspondencia.asignado_a = 1))>'
p166
sS'deletable'
p167
g150
ssg70
I41
sg71
(dp168
I36
S'        details = True'
p169
sI37
S'        create=True'
p170
sI38
S'        query = ((db.correspondencia.registrado_por==auth.user.id) | (db.correspondencia.asignado_a==auth.user.id))'
p171
sI39
S'    links = [lambda row: A(TAG[\'\'](SPAN(_class="icon icon-list"),SPAN(\'Hist\xc3\xb3rico\', _class="buttontext button", _title="Hist\xc3\xb3rico")), _class="w2p_trap button btn popup", _href=URL(\'ver_historico\', args=[row.id])),'
p172
sI40
S'             lambda row: A(TAG[\'\'](SPAN(_class="icon icon-user"),SPAN(\'CC a\', _class="buttontext button", _title="CC a")), _class="w2p_trap button btn popup", _href=URL(\'agregarCorrespondenciaMultiple2\', args=[row.id]))]'
p173
sI41
S'    grid = SQLFORM.grid(query, fields = fields, user_signature=False, selectable = lambda ids: reporte_entregas(ids),deletable=deletable, editable=editable, details = details,create=create, csv=False, orderby = orderby, links = links)'
p174
sI42
S'    return dict(grid = grid)'
p175
sI43
S''
sI44
S"@auth.requires(auth.has_membership('recepcionista') or auth.has_membership('supervisor') or auth.has_membership('master'))"
p176
sI45
S'def listar_correspondencias_departamento():'
p177
ssg83
S'()'
p178
sg85
S'listar_correspondencias'
p179
sa(dp180
g62
S'/home/perdomor/Odesk/APR/web2py/gluon/sqlhtml.py'
p181
sg64
(dp182
S'search_menu'
p183
g107
sS'prefix'
p184
S"'w2p'"
p185
sS'sfields'
p186
S'[<gluon.dal.Field object>, <gluon.dal.Field object>, <gluon.dal.Field object>, <gluon.dal.Field object>, <gluon.dal.Field object>, <gluon.dal.Field object>, <gluon.dal.Field object>, <gluon.dal.Field object>, <gluon.dal.Field object>, <gluon.dal.Field object>, <gluon.dal.Field object>, <gluon.dal.Field object>, <gluon.dal.Field object>, <gluon.dal.Field object>]'
p187
sS'SQLFORM.search_menu'
p188
S'<function search_menu>'
p189
sS'global SQLFORM'
p190
S"<class 'gluon.sqlhtml.SQLFORM'>"
p191
ssg70
I2181
sg71
(dp192
I2176
S'                             [[f for f in t if f.readable] for t in tables])'
p193
sI2177
S'            if isinstance(search_widget, dict):'
p194
sI2178
S'                search_widget = search_widget[tablename]'
p195
sI2179
S"            if search_widget == 'default':"
p196
sI2180
S"                prefix = formname == 'web2py_grid' and 'w2p' or 'w2p_%s' % formname"
p197
sI2181
S'                search_menu = SQLFORM.search_menu(sfields, prefix=prefix)'
p198
sI2182
S"                spanel_id = '%s_query_fields' % prefix"
p199
sI2183
S"                sfields_id = '%s_query_panel' % prefix"
p200
sI2184
S"                skeywords_id = '%s_keywords' % prefix"
p201
sI2185
S'                search_widget = lambda sfield, url: CAT(FORM('
p202
ssg83
S"(query=<Query ((correspondencia.registrado_por = 1) OR (correspondencia.asignado_a = 1))>, fields=[<gluon.dal.Field object>, <gluon.dal.Field object>, <gluon.dal.Field object>, <gluon.dal.Field object>, <gluon.dal.Field object>, <gluon.dal.Field object>, <gluon.dal.Field object>, <gluon.dal.Field object>, <gluon.dal.Field object>, <gluon.dal.Field object>], field_id=<gluon.dal.Field object>, left=None, headers={}, orderby=[<gluon.dal.Expression object>], groupby=None, searchable=True, sortable=True, paginate=20, deletable=False, editable=True, details=True, selectable=<function <lambda>>, create=True, csv=False, links=[<function <lambda>>, <function <lambda>>], links_in_grid=True, upload=<function <lambda>>, args=[], user_signature=False, maxtextlengths={}, maxtextlength=20, onvalidation=None, onfailure=None, oncreate=None, onupdate=None, ondelete=None, sorter_icons=(<gluon.html.XML object>, <gluon.html.XML object>), ui={'button': 'button btn', 'buttonadd': 'icon plus icon-plus', 'buttonback': 'icon leftarrow icon-arrow-left', 'buttondelete': 'icon trash icon-trash', 'buttonedit': 'icon pen icon-pencil', 'buttonexport': 'icon downarrow icon-download', 'buttontable': 'icon rightarrow icon-arrow-right', 'buttontext': 'buttontext button', 'buttonview': 'icon magnifier icon-zoom-in', 'content': '', ...}, showbuttontext=True, _class='web2py_grid', formname='web2py_grid', search_widget='default', ignore_rw=False, formstyle='table3cols', exportclasses=None, formargs={}, createargs={}, editargs={}, viewargs={}, selectable_submit_button='Submit', buttons_placement='right', links_placement='right', noconfirm=False, cache_count=None, client_side_delete=False)"
p203
sg85
S'grid'
p204
sa(dp205
g62
S'/home/perdomor/Odesk/APR/web2py/gluon/sqlhtml.py'
p206
sg64
(dp207
S'field'
p208
S'<gluon.dal.Field object>'
p209
sS'k'
S"'6'"
p210
sS'field.requires'
p211
S'<gluon.validators.IS_IN_DB object>'
p212
sS'field.requires.options'
p213
S'<bound method IS_IN_DB.options of <gluon.validators.IS_IN_DB object>>'
p214
sS'v'
S"'revisado'"
p215
ssg70
I1712
sg71
(dp216
I1707
S"                elif (field.type.startswith('reference ') or"
p217
sI1708
S"                      field.type.startswith('list:reference ')) and \\"
p218
sI1709
S"                      hasattr(field.requires,'options'):"
p219
sI1710
S'                    value_input = SELECT('
p220
sI1711
S'                        *[OPTION(v, _value=k)'
p221
sI1712
S'                          for k,v in field.requires.options()],'
p222
sI1713
S'                         **dict(_id=_id))'
p223
sI1714
S"                elif field.type == 'integer' or \\"
p224
sI1715
S"                        field.type.startswith('reference ') or \\"
p225
sI1716
S"                        field.type.startswith('list:integer') or \\"
p226
ssg83
S"(fields=[<gluon.dal.Field object>, <gluon.dal.Field object>, <gluon.dal.Field object>, <gluon.dal.Field object>, <gluon.dal.Field object>, <gluon.dal.Field object>, <gluon.dal.Field object>, <gluon.dal.Field object>, <gluon.dal.Field object>, <gluon.dal.Field object>, <gluon.dal.Field object>, <gluon.dal.Field object>, <gluon.dal.Field object>, <gluon.dal.Field object>], search_options={'boolean': ['=', '!='], 'date': ['=', '!=', '<', '>', '<=', '>='], 'datetime': ['=', '!=', '<', '>', '<=', '>='], 'double': ['=', '!=', '<', '>', '<=', '>='], 'id': ['=', '!=', '<', '>', '<=', '>=', 'in', 'not in'], 'integer': ['=', '!=', '<', '>', '<=', '>=', 'in', 'not in'], 'reference': ['=', '!='], 'string': ['=', '!=', '<', '>', '<=', '>=', 'starts with', 'contains', 'in', 'not in'], 'text': ['=', '!=', '<', '>', '<=', '>=', 'starts with', 'contains', 'in', 'not in'], 'time': ['=', '!=', '<', '>', '<=', '>=']}, prefix='w2p')"
p227
sg85
S'search_menu'
p228
sa(dp229
g62
S'/home/perdomor/Odesk/APR/web2py/gluon/validators.py'
p230
sg64
(dp231
S'self'
p232
S'<gluon.validators.IS_IN_DB object>'
p233
sS'self.build_set'
p234
S'<bound method IS_IN_DB.build_set of <gluon.validators.IS_IN_DB object>>'
p235
ssg70
I553
sg71
(dp236
I548
S'            self.labels = [self.label % r for r in records]'
p237
sI549
S'        else:'
p238
sI550
S'            self.labels = [self.label(r) for r in records]'
p239
sI551
S''
sI552
S'    def options(self, zero=True):'
p240
sI553
S'        self.build_set()'
p241
sI554
S'        items = [(k, self.labels[i]) for (i, k) in enumerate(self.theset)]'
p242
sI555
S'        if self.sort:'
p243
sI556
S'            items.sort(options_sorter)'
p244
sI557
S'        if zero and not self.zero is None and not self.multiple:'
p245
ssg83
S'(self=<gluon.validators.IS_IN_DB object>, zero=True)'
p246
sg85
S'options'
p247
sa(dp248
g62
S'/home/perdomor/Odesk/APR/web2py/gluon/validators.py'
p249
sg64
(dp250
S'self.fields'
p251
S"['nombre', 'id']"
p252
sS'fields'
p253
g107
sS'k'
S"'nombre'"
p254
sS'self'
p255
S'<gluon.validators.IS_IN_DB object>'
p256
sS'table'
p257
S'<Table departamento (id,departamento,dependencia)>'
p258
ssg70
I529
sg71
(dp259
I524
S'    def build_set(self):'
p260
sI525
S'        table = self.dbset.db[self.ktable]'
p261
sI526
S"        if self.fields == 'all':"
p262
sI527
S'            fields = [f for f in table]'
p263
sI528
S'        else:'
p264
sI529
S'            fields = [table[k] for k in self.fields]'
p265
sI530
S'        ignore = (FieldVirtual,FieldMethod)'
p266
sI531
S'        fields = filter(lambda f:not isinstance(f,ignore), fields)'
p267
sI532
S"        if self.dbset.db._dbname != 'gae':"
p268
sI533
S'            orderby = self.orderby or reduce(lambda a, b: a | b, fields)'
p269
ssg83
S'(self=<gluon.validators.IS_IN_DB object>)'
p270
sg85
S'build_set'
p271
sa(dp272
g62
S'/home/perdomor/Odesk/APR/web2py/gluon/dal.py'
p273
sg64
(dp274
S'builtinstr'
p275
S"<type 'str'>"
p276
sS'self'
p277
S'<Table departamento (id,departamento,dependencia)>'
p278
sS'global ogetattr'
p279
S"<slot wrapper '__getattribute__' of 'object' objects>"
p280
sS'key'
p281
S"'nombre'"
p282
ssg70
I8414
sg71
(dp283
I8416
S'    def __call__(self, key=DEFAULT, **kwargs):'
p284
sI8417
S"        for_update = kwargs.get('_for_update',False)"
p285
sI8418
S"        if '_for_update' in kwargs: del kwargs['_for_update']"
p286
sI8409
S'                return rows[0]'
p287
sI8410
S'            return None'
p288
sI8411
S"        elif str(key).isdigit() or 'google' in DRIVERS and isinstance(key, Key):"
p289
sI8412
S'            return self._db(self._id == key).select(limitby=(0,1), orderby_on_limitby=False).first()'
p290
sI8413
S'        elif key:'
p291
sI8414
S'            return ogetattr(self, str(key))'
p292
sI8415
S''
ssg83
S"(self=<Table departamento (id,departamento,dependencia)>, key='nombre')"
p293
sg85
g20
sasS'pyver'
p294
S'Python 2.7.5+: /usr/bin/python (prefix: /usr)'
p295
sS'session'
p296
g57
(S's\x04\x0b\x00\x00<div><table><tr><td style="font-weight:bold;vertical-align:top">auth</td><td valign="top">:</td><td><div><table><tr><td style="font-weight:bold;vertical-align:top">expiration</td><td valign="top">:</td><td><div>3600</div></td></tr><tr><td style="font-weight:bold;vertical-align:top">hmac_key</td><td valign="top">:</td><td><div>93ac8b1b-5094-4ef1-ae60-9fdf6f11fec7</div></td></tr><tr><td style="font-weight:bold;vertical-align:top">last_visit</td><td valign="top">:</td><td><div>datetime.datetime(2013, 9, 30, 22, 47, 26, 720775)</div></td></tr><tr><td style="font-weight:bold;vertical-align:top">remember</td><td valign="top">:</td><td><div>False</div></td></tr><tr><td style="font-weight:bold;vertical-align:top">user</td><td valign="top">:</td><td><div><table><tr><td style="font-weight:bold;vertical-align:top">departamento</td><td valign="top">:</td><td><div>7L</div></td></tr><tr><td style="font-weight:bold;vertical-align:top">email</td><td valign="top">:</td><td><div>perdomor@ucv.ve</div></td></tr><tr><td style="font-weight:bold;vertical-align:top">first_name</td><td valign="top">:</td><td><div>Roberto</div></td></tr><tr><td style="font-weight:bold;vertical-align:top">id</td><td valign="top">:</td><td><div>1L</div></td></tr><tr><td style="font-weight:bold;vertical-align:top">last_name</td><td valign="top">:</td><td><div>Perdomo</div></td></tr><tr><td style="font-weight:bold;vertical-align:top">registration_id</td><td valign="top">:</td><td><div></div></td></tr><tr><td style="font-weight:bold;vertical-align:top">registration_key</td><td valign="top">:</td><td><div></div></td></tr><tr><td style="font-weight:bold;vertical-align:top">reset_password_key</td><td valign="top">:</td><td><div></div></td></tr></table></div></td></tr><tr><td style="font-weight:bold;vertical-align:top">user_groups</td><td valign="top">:</td><td><div><table><tr><td style="font-weight:bold;vertical-align:top">1</td><td valign="top">:</td><td><div>user_1</div></td></tr><tr><td style="font-weight:bold;vertical-align:top">4</td><td valign="top">:</td><td><div>administrador</div></td></tr><tr><td style="font-weight:bold;vertical-align:top">7</td><td valign="top">:</td><td><div>recepcionista</div></td></tr><tr><td style="font-weight:bold;vertical-align:top">38</td><td valign="top">:</td><td><div>siex_admin</div></td></tr></table></div></td></tr></table></div></td></tr><tr><td style="font-weight:bold;vertical-align:top">flash</td><td valign="top">:</td><td><div>None</div></td></tr><tr><td style="font-weight:bold;vertical-align:top">pag_editar</td><td valign="top">:</td><td><div>/sicoin/correspondencia/editar_correspondencia</div></td></tr><tr><td style="font-weight:bold;vertical-align:top">pag_previa</td><td valign="top">:</td><td><div>/sicoin/correspondencia/listar_correspondencias</div></td></tr></table></div>'
tRp297
sS'etype'
p298
S"<type 'exceptions.AttributeError'>"
p299
sS'date'
p300
S'Mon Sep 30 22:47:29 2013'
p301
sS'response'
p302
g57
(S'sE\x1d\x00\x00<div><table><tr><td style="font-weight:bold;vertical-align:top">body</td><td valign="top">:</td><td><div>&lt;cStringIO.StringO object at 0xafb118c0&gt;</div></td></tr><tr><td style="font-weight:bold;vertical-align:top">cookies</td><td valign="top">:</td><td><div><table><tr><td style="font-weight:bold;vertical-align:top">session_id_sicoin</td><td valign="top">:</td><td><div>127.0.0.1-dbc17477-81da-4cbf-a754-12e9e18b9367<table><tr><td style="font-weight:bold;vertical-align:top">comment</td><td valign="top">:</td><td><div></div></td></tr><tr><td style="font-weight:bold;vertical-align:top">domain</td><td valign="top">:</td><td><div></div></td></tr><tr><td style="font-weight:bold;vertical-align:top">expires</td><td valign="top">:</td><td><div></div></td></tr><tr><td style="font-weight:bold;vertical-align:top">httponly</td><td valign="top">:</td><td><div></div></td></tr><tr><td style="font-weight:bold;vertical-align:top">max-age</td><td valign="top">:</td><td><div></div></td></tr><tr><td style="font-weight:bold;vertical-align:top">path</td><td valign="top">:</td><td><div>/</div></td></tr><tr><td style="font-weight:bold;vertical-align:top">secure</td><td valign="top">:</td><td><div></div></td></tr><tr><td style="font-weight:bold;vertical-align:top">version</td><td valign="top">:</td><td><div></div></td></tr></table></div></td></tr></table></div></td></tr><tr><td style="font-weight:bold;vertical-align:top">delimiters</td><td valign="top">:</td><td><div><table><tr><td><div>{{</div></td></tr><tr><td><div>}}</div></td></tr></table></div></td></tr><tr><td style="font-weight:bold;vertical-align:top">files</td><td valign="top">:</td><td><div><table></table></div></td></tr><tr><td style="font-weight:bold;vertical-align:top">flash</td><td valign="top">:</td><td><div></div></td></tr><tr><td style="font-weight:bold;vertical-align:top">generic_patterns</td><td valign="top">:</td><td><div><table><tr><td><div>*</div></td></tr></table></div></td></tr><tr><td style="font-weight:bold;vertical-align:top">headers</td><td valign="top">:</td><td><div><table><tr><td style="font-weight:bold;vertical-align:top">X-Powered-By</td><td valign="top">:</td><td><div>web2py</div></td></tr></table></div></td></tr><tr><td style="font-weight:bold;vertical-align:top">menu</td><td valign="top">:</td><td><div><table><tr><td><div><table><tr><td><div>Inicio</div></td></tr><tr><td><div>False</div></td></tr><tr><td><div>/sicoin/default/index</div></td></tr><tr><td><div><table></table></div></td></tr></table></div></td></tr><tr><td><div><table><tr><td><div>Correspondencias</div></td></tr><tr><td><div>False</div></td></tr><tr><td><div>None</div></td></tr><tr><td><div><table><tr><td><div><table><tr><td><div>Correspondencias</div></td></tr><tr><td><div>False</div></td></tr><tr><td><div>/sicoin/correspondencia/listar_correspondencias</div></td></tr></table></div></td></tr><tr><td><div><table><tr><td><div>Correspondencias del Departamento</div></td></tr><tr><td><div>False</div></td></tr><tr><td><div>/sicoin/correspondencia/listar_correspondencias_departamento</div></td></tr></table></div></td></tr><tr><td><div><table><tr><td><div>Registro de Correspondencias Multiples</div></td></tr><tr><td><div>False</div></td></tr><tr><td><div>/sicoin/correspondencia/correspondenciasDependencia</div></td></tr></table></div></td></tr></table></div></td></tr></table></div></td></tr><tr><td><div><table><tr><td><div>Configuraci\xc3\xb3n</div></td></tr><tr><td><div>False</div></td></tr><tr><td><div>None</div></td></tr><tr><td><div><table><tr><td><div><table><tr><td><div>Dependencias</div></td></tr><tr><td><div>False</div></td></tr><tr><td><div>/sicoin/configuracion/listar_dependencias</div></td></tr></table></div></td></tr><tr><td><div><table><tr><td><div>Departamentos</div></td></tr><tr><td><div>False</div></td></tr><tr><td><div>/sicoin/configuracion/listar_departamentos</div></td></tr></table></div></td></tr><tr><td><div><table><tr><td><div>Estatus</div></td></tr><tr><td><div>False</div></td></tr><tr><td><div>/sicoin/configuracion/listar_estatus</div></td></tr></table></div></td></tr><tr><td><div><table><tr><td><div>Tipo de Documentos</div></td></tr><tr><td><div>False</div></td></tr><tr><td><div>/sicoin/configuracion/listar_documentos</div></td></tr></table></div></td></tr><tr><td><div><table><tr><td><div>Asignaci\xc3\xb3n de Usuarios</div></td></tr><tr><td><div>False</div></td></tr><tr><td><div>/sicoin/configuracion/listar_usuarios</div></td></tr></table></div></td></tr></table></div></td></tr></table></div></td></tr></table></div></td></tr><tr><td style="font-weight:bold;vertical-align:top">meta</td><td valign="top">:</td><td><div><table><tr><td style="font-weight:bold;vertical-align:top">author</td><td valign="top">:</td><td><div>TIC - FIPU &lt;perdomor@ucv.ve&gt;</div></td></tr><tr><td style="font-weight:bold;vertical-align:top">description</td><td valign="top">:</td><td><div></div></td></tr><tr><td style="font-weight:bold;vertical-align:top">keywords</td><td valign="top">:</td><td><div></div></td></tr></table></div></td></tr><tr><td style="font-weight:bold;vertical-align:top">models_to_run</td><td valign="top">:</td><td><div><table><tr><td><div>^\\w+\\.py$</div></td></tr><tr><td><div>^correspondencia/\\w+\\.py$</div></td></tr><tr><td><div>^correspondencia/listar_correspondencias/\\w+\\.py$</div></td></tr></table></div></td></tr><tr><td style="font-weight:bold;vertical-align:top">postprocessing</td><td valign="top">:</td><td><div><table></table></div></td></tr><tr><td style="font-weight:bold;vertical-align:top">session_cookie_expires</td><td valign="top">:</td><td><div>None</div></td></tr><tr><td style="font-weight:bold;vertical-align:top">session_data_name</td><td valign="top">:</td><td><div>session_data_sicoin</div></td></tr><tr><td style="font-weight:bold;vertical-align:top">session_file</td><td valign="top">:</td><td><div>&lt;open file &#x27;/home/perdomor/Odesk/APR/web2py/applications/sicoin/sessions/127.0.0.1-dbc17477-81da-4cbf-a754-12e9e18b9367&#x27;, mode &#x27;rb+&#x27; at 0xafdac5a0&gt;</div></td></tr><tr><td style="font-weight:bold;vertical-align:top">session_filename</td><td valign="top">:</td><td><div>/home/perdomor/Odesk/APR/web2py/applications/sicoin/sessions/127.0.0.1-dbc17477-81da-4cbf-a754-12e9e18b9367</div></td></tr><tr><td style="font-weight:bold;vertical-align:top">session_id</td><td valign="top">:</td><td><div>127.0.0.1-dbc17477-81da-4cbf-a754-12e9e18b9367</div></td></tr><tr><td style="font-weight:bold;vertical-align:top">session_id_name</td><td valign="top">:</td><td><div>session_id_sicoin</div></td></tr><tr><td style="font-weight:bold;vertical-align:top">session_locked</td><td valign="top">:</td><td><div>True</div></td></tr><tr><td style="font-weight:bold;vertical-align:top">session_new</td><td valign="top">:</td><td><div>False</div></td></tr><tr><td style="font-weight:bold;vertical-align:top">session_storage_type</td><td valign="top">:</td><td><div>file</div></td></tr><tr><td style="font-weight:bold;vertical-align:top">status</td><td valign="top">:</td><td><div>200</div></td></tr><tr><td style="font-weight:bold;vertical-align:top">subtitle</td><td valign="top">:</td><td><div>Sistema Integrado de Correspondencia Interna</div></td></tr><tr><td style="font-weight:bold;vertical-align:top">title</td><td valign="top">:</td><td><div>SiCoIn</div></td></tr><tr><td style="font-weight:bold;vertical-align:top">view</td><td valign="top">:</td><td><div>correspondencia/listar_correspondencias.html</div></td></tr></table></div>'
tRp303
sS'locals'
p304
(dp305
S'self'
p306
S'<Table departamento (id,departamento,dependencia)>'
p307
sS'key'
p308
S"'nombre'"
p309
sssS'traceback'
p310
S'Traceback (most recent call last):\n  File "/home/perdomor/Odesk/APR/web2py/gluon/restricted.py", line 212, in restricted\n    exec ccode in environment\n  File "/home/perdomor/Odesk/APR/web2py/applications/sicoin/controllers/correspondencia.py", line 827, in <module>\n  File "/home/perdomor/Odesk/APR/web2py/gluon/globals.py", line 194, in <lambda>\n    self._caller = lambda f: f()\n  File "/home/perdomor/Odesk/APR/web2py/gluon/tools.py", line 3022, in f\n    return action(*a, **b)\n  File "/home/perdomor/Odesk/APR/web2py/applications/sicoin/controllers/correspondencia.py", line 41, in listar_correspondencias\n    grid = SQLFORM.grid(query, fields = fields, user_signature=False, selectable = lambda ids: reporte_entregas(ids),deletable=deletable, editable=editable, details = details,create=create, csv=False, orderby = orderby, links = links)\n  File "/home/perdomor/Odesk/APR/web2py/gluon/sqlhtml.py", line 2181, in grid\n    search_menu = SQLFORM.search_menu(sfields, prefix=prefix)\n  File "/home/perdomor/Odesk/APR/web2py/gluon/sqlhtml.py", line 1712, in search_menu\n    for k,v in field.requires.options()],\n  File "/home/perdomor/Odesk/APR/web2py/gluon/validators.py", line 553, in options\n    self.build_set()\n  File "/home/perdomor/Odesk/APR/web2py/gluon/validators.py", line 529, in build_set\n    fields = [table[k] for k in self.fields]\n  File "/home/perdomor/Odesk/APR/web2py/gluon/dal.py", line 8414, in __getitem__\n    return ogetattr(self, str(key))\nAttributeError: \'Table\' object has no attribute \'nombre\'\n'
p311
s.