(dp1
S'output'
p2
S"<type 'exceptions.AttributeError'> 'Row' object has no attribute 'first_name'"
p3
sS'layer'
p4
S'/home/perdomor/web2py/applications/sicoin/views/default/user.html'
p5
sS'code'
p6
S'response.write(\'<!DOCTYPE html>\\n<!-- paulirish.com/2008/conditional-stylesheets-vs-css-hacks-answer-neither/ -->\\n<!--[if lt IE 7]><html class="ie ie6 ie-lte9 ie-lte8 ie-lte7 no-js" lang="\', escape=False)\nresponse.write(T.accepted_language or \'en\')\nresponse.write(\'"> <![endif]-->\\n<!--[if IE 7]><html class="ie ie7 ie-lte9 ie-lte8 ie-lte7 no-js" lang="\', escape=False)\nresponse.write(T.accepted_language or \'en\')\nresponse.write(\'"> <![endif]-->\\n<!--[if IE 8]><html class="ie ie8 ie-lte9 ie-lte8 no-js" lang="\', escape=False)\nresponse.write(T.accepted_language or \'en\')\nresponse.write(\'"> <![endif]-->\\n<!--[if IE 9]><html class="ie9 ie-lte9 no-js" lang="\', escape=False)\nresponse.write(T.accepted_language or \'en\')\nresponse.write(\'"> <![endif]-->\\n<!--[if (gt IE 9)|!(IE)]><!--> <html class="no-js" lang="\', escape=False)\nresponse.write(T.accepted_language or \'en\')\nresponse.write(\'"> <!--<![endif]-->\\n<head>\\n  <meta charset="utf-8" />\\n  <!-- www.phpied.com/conditional-comments-block-downloads/ -->\\n  <!-- Always force latest IE rendering engine\\n       (even in intranet) & Chrome Frame\\n       Remove this if you use the .htaccess -->\\n  <!--[if IE]>\\n      <meta http-equiv="X-UA-Compatible" content="IE=edge\', escape=False)\nresponse.write(not request.is_local and \',chrome=1\' or \'\')\nresponse.write(\'">\\n      <![endif]-->\\n\\n  <title>\', escape=False)\nresponse.write(response.title or request.application)\nresponse.write(\'</title>\\n\\n  <!-- http://dev.w3.org/html5/markup/meta.name.html -->\\n  <meta name="application-name" content="\', escape=False)\nresponse.write(request.application)\nresponse.write(\'" />\\n\\n  <!-- Speaking of Google, don\\\'t forget to set your site up:\\n       http://google.com/webmasters -->\\n  <meta name="google-site-verification" content="" />\\n\\n  <!--  Mobile Viewport Fix\\n        j.mp/mobileviewport & davidbcalhoun.com/2010/viewport-metatag\\n        device-width: Occupy full width of the screen in its current orientation\\n        initial-scale = 1.0 retains dimensions instead of zooming out if page height > device height\\n        user-scalable = yes allows the user to zoom in -->\\n  <meta name="viewport" content="width=device-width, initial-scale=1.0">\\n\\n  <link rel="shortcut icon" href="\', escape=False)\nresponse.write(URL(\'static\',\'images/favicon.ico\'))\nresponse.write(\'" type="image/x-icon">\\n  <link rel="apple-touch-icon" href="\', escape=False)\nresponse.write(URL(\'static\',\'images/favicon.png\'))\nresponse.write(\'">\\n\\n  <!-- All JavaScript at the bottom, except for Modernizr which enables\\n       HTML5 elements & feature detects -->\\n  <script src="\', escape=False)\nresponse.write(URL(\'static\',\'js/modernizr.custom.js\'))\nresponse.write(\'"></script>\\n\\n  <!-- include stylesheets -->\\n  \', escape=False)\nresponse.files.append(URL(\'static\',\'css/bootstrap.min.css\'))\nresponse.files.append(URL(\'static\',\'css/bootstrap-responsive.min.css\'))\nresponse.files.append(URL(\'static\',\'css/web2py.css\'))\nresponse.files.append(URL(\'static\',\'css/web2py_bootstrap.css\'))\nresponse.write(\'\\n\\n  \', escape=False)\nresponse.write(\'<script type="text/javascript"><!--\\n    // These variables are used by the web2py_ajax_init function in web2py_ajax.js (which is loaded below).\\n    var w2p_ajax_confirm_message = "\', escape=False)\nresponse.write(T(\'Are you sure you want to delete this object?\'))\nresponse.write(\'";\\n    var w2p_ajax_date_format = "\', escape=False)\nresponse.write(T(\'%Y-%m-%d\'))\nresponse.write(\'";\\n    var w2p_ajax_datetime_format = "\', escape=False)\nresponse.write(T(\'%Y-%m-%d %H:%M:%S\'))\nresponse.write(\'";\\n    //--></script>\\n\', escape=False)\nresponse.files.insert(0,URL(\'static\',\'js/jquery.js\'))\nresponse.files.insert(1,URL(\'static\',\'css/calendar.css\'))\nresponse.files.insert(2,URL(\'static\',\'js/calendar.js\'))\nresponse.files.insert(3,URL(\'static\',\'js/web2py.js\'))\nresponse.include_meta()\nresponse.include_files()\nresponse.write(\'\\n\', escape=False)\nresponse.write(\'\\n\\n  \', escape=False)\n# using sidebars need to know what sidebar you want to use\nleft_sidebar_enabled = globals().get(\'left_sidebar_enabled\',False)\nright_sidebar_enabled = globals().get(\'right_sidebar_enabled\',False)\nmiddle_columns = {0:\'span12\',1:\'span9\',2:\'span6\'}[\n(left_sidebar_enabled and 1 or 0)+(right_sidebar_enabled and 1 or 0)]\nresponse.write(\'\\n\\n  <!-- uncomment here to load jquery-ui\\n       <link rel="stylesheet" href="http://ajax.googleapis.com/ajax/libs/jqueryui/1.8.16/themes/base/jquery-ui.css" type="text/css" media="all" />\\n       <script src="http://ajax.googleapis.com/ajax/libs/jqueryui/1.8.16/jquery-ui.min.js" type="text/javascript"></script>\\n       uncomment to load jquery-ui //-->\\n  <noscript><link href="\', escape=False)\nresponse.write(URL(\'static\', \'css/web2py_bootstrap_nojs.css\'))\nresponse.write(\'" rel="stylesheet" type="text/css" /></noscript>\\n  \', escape=False)\nresponse.write(\'\\n</head>\\n\\n<body>\\n  <!-- Navbar ================================================== -->\\n  <div class="navbar navbar-fixed-top">\\n    <div class="flash">\', escape=False)\nresponse.write(response.flash or \'\')\nresponse.write(\'</div>\\n    <div class="navbar-inner">\\n      <div class="container">\\n        <!-- the next tag is necessary for bootstrap menus, do not remove -->\\n        <a class="btn btn-navbar" data-toggle="collapse" data-target=".nav-collapse">\\n          <span class="icon-bar"></span>\\n          <span class="icon-bar"></span>\\n          <span class="icon-bar"></span>\\n        </a>\\n        <a class="brand" href="#">web2py&trade;&nbsp;</a>\\n        <ul id="navbar" class="nav pull-right">\', escape=False)\nresponse.write(\'auth\' in globals() and auth.navbar(mode="dropdown") or \'\')\nresponse.write(\'</ul>\\n        <div class="nav-collapse">\\n          \', escape=False)\nis_mobile=request.user_agent().is_mobile\nresponse.write(\'\\n          \', escape=False)\nif response.menu:\n    response.write(\'\\n          \', escape=False)\n    response.write(MENU(response.menu, _class=\'mobile-menu nav\' if is_mobile else \'nav\',mobile=is_mobile,li_class=\'dropdown\',ul_class=\'dropdown-menu\'))\n    response.write(\'\\n          \', escape=False)\n    pass\nresponse.write(\'\\n        </div><!--/.nav-collapse -->\\n      </div>\\n    </div>\\n  </div><!--/top navbar -->\\n\\n  <div class="container">\\n    <!-- Masthead ================================================== -->\\n    <header class="mastheader row" id="header">\\n        <div class="span12">\\n            <div class="page-header">\\n                <h1>\\n                    \', escape=False)\nresponse.write(response.title or request.application)\nresponse.write(\'\\n                    <small>\', escape=False)\nresponse.write(response.subtitle or \'\')\nresponse.write(\'</small>\\n                </h1>\\n            </div>\\n        </div>\\n    </header>\\n\\n    <section id="main" class="main row">\\n        \', escape=False)\nif left_sidebar_enabled:\n    response.write(\'\\n        <div class="span3 left-sidebar">\\n            \', escape=False)\n    response.write(\'\\n            <h3>Left Sidebar</h3>\\n            <p></p>\\n            \', escape=False)\n    response.write(\'\\n        </div>\\n        \', escape=False)\n    pass\nresponse.write(\'\\n\\n        <div class="\', escape=False)\nresponse.write(middle_columns)\nresponse.write(\'">\\n            \', escape=False)\nresponse.write(\'\\n            \', escape=False)\nresponse.write(\'\\n<h2>\', escape=False)\nresponse.write(T( request.args(0).replace(\'_\',\' \').capitalize() ))\nresponse.write(\'</h2>\\n<div id="web2py_user_form">\\n\', escape=False)\nif request.args(0)==\'login\':\n    if not \'register\' in auth.settings.actions_disabled:\n        form.add_button(T(\'Register\'),URL(args=\'register\'))\n        pass\n    if not \'request_reset_password\' in auth.settings.actions_disabled:\n        form.add_button(T(\'Lost Password\'),URL(args=\'request_reset_password\'))\n        pass\n    pass\nresponse.write(form)\nresponse.write(\'\\n</div>\\n<script language="javascript"><!--\\n      jQuery("#web2py_user_form input:visible:enabled:first").focus();\\n      //--></script>\\n\\n\', escape=False)\nresponse.write(\'\\n            \', escape=False)\nresponse.write(\'\\n        </div>\\n\\n        \', escape=False)\nif right_sidebar_enabled:\n    response.write(\'\\n        <div class="span3">\\n            \', escape=False)\n    response.write(\'\\n            <h3>Right Sidebar</h3>\\n            <p></p>\\n            \', escape=False)\n    response.write(\'\\n        </div>\\n        \', escape=False)\n    pass\nresponse.write(\'\\n    </section><!--/main-->\\n\\n    <!-- Footer ================================================== -->\\n    <div class="row">\\n        <footer class="footer span12" id="footer">\\n            <div class="footer-content">\\n                \', escape=False)\nresponse.write(\' <!-- this is default footer -->\\n                <div class="copyright pull-left">\', escape=False)\nresponse.write(T(\'Copyright\'))\nresponse.write(\' &#169; \', escape=False)\nresponse.write(request.now.year)\nresponse.write(\'</div>\\n                <div id="poweredBy" class="pull-right">\\n                    \', escape=False)\nresponse.write(T(\'Powered by\'))\nresponse.write(\'\\n                    <a href="http://www.web2py.com/">web2py</a>\\n                </div>\\n                \', escape=False)\nresponse.write(\'\\n            </div>\\n        </footer>\\n    </div>\\n\\n  </div> <!-- /container -->\\n\\n  <!-- The javascript =============================================\\n       (Placed at the end of the document so the pages load faster) -->\\n  <script>\\n    // this code improves bootstrap menus and adds dropdown support\\n    jQuery(function(){\\n      jQuery(\\\'.nav>li>a\\\').each(function(){\\n        if(jQuery(this).parent().find(\\\'ul\\\').length)\\n          jQuery(this).attr({\\\'class\\\':\\\'dropdown-toggle\\\',\\\'data-toggle\\\':\\\'dropdown\\\'}).append(\\\'<b class="caret"></b>\\\');\\n      });\\n      jQuery(\\\'.nav li li\\\').each(function(){\\n        if(jQuery(this).find(\\\'ul\\\').length)\\n          jQuery(this).children(\\\'a\\\').contents().before(\\\'<i class="chevron-right"></i>\\\');\\n      });\\n      if(jQuery(document).width()>=980) {\\n        jQuery(\\\'ul.nav li.dropdown\\\').hover(function() {\\n          jQuery(this).find(\\\'.dropdown-menu\\\').stop(true, true).delay(200).fadeIn();\\n        }, function() {\\n          jQuery(this).find(\\\'.dropdown-menu\\\').stop(true, true).delay(200).fadeOut();\\n        });\\n      }\\n      jQuery(\\\'ul.nav li.dropdown a\\\').click(function(){window.location=jQuery(this).attr(\\\'href\\\');});\\n      // make all buttons bootstrap buttons\\n      jQuery(\\\'button, form input[type="submit"], form input[type="button"]\\\').addClass(\\\'btn\\\').css({\\\'margin-right\\\':\\\'2px\\\',\\\'margin-bottom\\\':\\\'2px\\\'});\\n    });\\n  </script>\\n  <script src="\', escape=False)\nresponse.write(URL(\'static\',\'js/bootstrap.min.js\'))\nresponse.write(\'"></script>\\n  <!--[if lt IE 7 ]>\\n      <script src="\', escape=False)\nresponse.write(URL(\'static\',\'js/dd_belatedpng.js\'))\nresponse.write(\'"></script>\\n      <script> DD_belatedPNG.fix(\\\'img, .png_bg\\\'); //fix any <img> or .png_bg background-images </script>\\n      <![endif]-->\\n  \', escape=False)\nif response.google_analytics_id:\n    response.write(\'<script type="text/javascript"> var _gaq = _gaq || []; _gaq.push([\\\'_setAccount\\\', \\\'\', escape=False)\n    response.write(response.google_analytics_id)\n    response.write("\']); _gaq.push([\'_trackPageview\']); (function() { var ga = document.createElement(\'script\'); ga.type = \'text/javascript\'; ga.async = true; ga.src = (\'https:\' == document.location.protocol ? \'https://ssl\' : \'http://www\') + \'.google-analytics.com/ga.js\'; var s = document.getElementsByTagName(\'script\')[0]; s.parentNode.insertBefore(ga, s); })(); </script> ", escape=False)\n    pass\nresponse.write(\'\\n  <script src="\', escape=False)\nresponse.write(URL(\'static\',\'js/share.js\',vars=dict(static=URL(\'static\',\'images\'))))\nresponse.write(\'"></script>\\n</body>\\n</html>\\n\\n\', escape=False)'
p7
sS'snapshot'
p8
(dp9
S'exception'
p10
(dp11
S'__hash__'
p12
S"<method-wrapper '__hash__' of exceptions.AttributeError object>"
p13
sS'__setattr__'
p14
S"<method-wrapper '__setattr__' of exceptions.AttributeError object>"
p15
sS'__reduce_ex__'
p16
S'<built-in method __reduce_ex__ of exceptions.AttributeError object>'
p17
sS'__getslice__'
p18
S"<method-wrapper '__getslice__' of exceptions.AttributeError object>"
p19
sS'__getitem__'
p20
S"<method-wrapper '__getitem__' of exceptions.AttributeError object>"
p21
sS'__setstate__'
p22
S'<built-in method __setstate__ of exceptions.AttributeError object>'
p23
sS'__reduce__'
p24
S'<built-in method __reduce__ of exceptions.AttributeError object>'
p25
sS'__str__'
p26
S"<method-wrapper '__str__' of exceptions.AttributeError object>"
p27
sS'__format__'
p28
S'<built-in method __format__ of exceptions.AttributeError object>'
p29
sS'__getattribute__'
p30
S"<method-wrapper '__getattribute__' of exceptions.AttributeError object>"
p31
sS'__class__'
p32
S"<type 'exceptions.AttributeError'>"
p33
sS'__unicode__'
p34
S'<built-in method __unicode__ of exceptions.AttributeError object>'
p35
sS'__delattr__'
p36
S"<method-wrapper '__delattr__' of exceptions.AttributeError object>"
p37
sS'__subclasshook__'
p38
S'<built-in method __subclasshook__ of type object>'
p39
sS'__repr__'
p40
S"<method-wrapper '__repr__' of exceptions.AttributeError object>"
p41
sS'args'
p42
S'("\'Row\' object has no attribute \'first_name\'",)'
p43
sS'__dict__'
p44
S'{}'
p45
sS'__sizeof__'
p46
S'<built-in method __sizeof__ of exceptions.AttributeError object>'
p47
sS'__doc__'
p48
S"'Attribute not found.'"
p49
sS'__init__'
p50
S"<method-wrapper '__init__' of exceptions.AttributeError object>"
p51
sS'__new__'
p52
S'<built-in method __new__ of type object>'
p53
ssS'evalue'
p54
S"'Row' object has no attribute 'first_name'"
p55
sS'request'
p56
ccopy_reg
_reconstructor
p57
(cgluon.html
BEAUTIFY
p58
c__builtin__
object
p59
NtRp60
(dp61
S'attributes'
p62
(dp63
sS'components'
p64
(lp65
g57
(cgluon.html
TABLE
p66
g59
NtRp67
(dp68
g62
(dp69
S'level'
p70
I5
ssS'parent'
p71
Nsg64
(lp72
g57
(cgluon.html
TR
p73
g59
NtRp74
(dp75
g62
(dp76
sg71
g67
sg64
(lp77
g57
(cgluon.html
TD
p78
g59
NtRp79
(dp80
g62
(dp81
S'_style'
p82
S'font-weight:bold;vertical-align:top'
p83
ssg71
g74
sg64
(lp84
S'ajax'
p85
asbag57
(g78
g59
NtRp86
(dp87
g62
(dp88
S'_valign'
p89
S'top'
p90
ssg71
g74
sg64
(lp91
S':'
asbag57
(g78
g59
NtRp92
(dp93
g62
(dp94
sg71
g74
sg64
(lp95
g57
(g58
g59
NtRp96
(dp97
g62
(dp98
g70
I5
ssg71
g92
sg64
(lp99
S'False'
p100
asbasbasbag57
(g73
g59
NtRp101
(dp102
g62
(dp103
sg71
g67
sg64
(lp104
g57
(g78
g59
NtRp105
(dp106
g62
(dp107
g82
g83
ssg71
g101
sg64
(lp108
S'application'
p109
asbag57
(g78
g59
NtRp110
(dp111
g62
(dp112
g89
g90
ssg71
g101
sg64
(lp113
S':'
asbag57
(g78
g59
NtRp114
(dp115
g62
(dp116
sg71
g101
sg64
(lp117
g57
(g58
g59
NtRp118
(dp119
g62
(dp120
g70
I5
ssg71
g114
sg64
(lp121
S'sicoin'
p122
asbasbasbag57
(g73
g59
NtRp123
(dp124
g62
(dp125
sg71
g67
sg64
(lp126
g57
(g78
g59
NtRp127
(dp128
g62
(dp129
g82
g83
ssg71
g123
sg64
(lp130
g42
asbag57
(g78
g59
NtRp131
(dp132
g62
(dp133
g89
g90
ssg71
g123
sg64
(lp134
S':'
asbag57
(g78
g59
NtRp135
(dp136
g62
(dp137
sg71
g123
sg64
(lp138
g57
(g58
g59
NtRp139
(dp140
g62
(dp141
g70
I5
ssg71
g135
sg64
(lp142
g57
(g66
g59
NtRp143
(dp144
g62
(dp145
g70
I4
ssg71
Nsg64
(lp146
g57
(g73
g59
NtRp147
(dp148
g62
(dp149
sg71
g143
sg64
(lp150
g57
(g78
g59
NtRp151
(dp152
g62
(dp153
sg71
g147
sg64
(lp154
g57
(g58
g59
NtRp155
(dp156
g62
(dp157
g70
I4
ssg71
g151
sg64
(lp158
S'login'
p159
asbasbasbasbasbasbasbag57
(g73
g59
NtRp160
(dp161
g62
(dp162
sg71
g67
sg64
(lp163
g57
(g78
g59
NtRp164
(dp165
g62
(dp166
g82
g83
ssg71
g160
sg64
(lp167
S'body'
p168
asbag57
(g78
g59
NtRp169
(dp170
g62
(dp171
g89
g90
ssg71
g160
sg64
(lp172
S':'
asbag57
(g78
g59
NtRp173
(dp174
g62
(dp175
sg71
g160
sg64
(lp176
g57
(g58
g59
NtRp177
(dp178
g62
(dp179
g70
I5
ssg71
g173
sg64
(lp180
S'<cStringIO.StringO object at 0xd1dcd40>'
p181
asbasbasbag57
(g73
g59
NtRp182
(dp183
g62
(dp184
sg71
g67
sg64
(lp185
g57
(g78
g59
NtRp186
(dp187
g62
(dp188
g82
g83
ssg71
g182
sg64
(lp189
S'cid'
p190
asbag57
(g78
g59
NtRp191
(dp192
g62
(dp193
g89
g90
ssg71
g182
sg64
(lp194
S':'
asbag57
(g78
g59
NtRp195
(dp196
g62
(dp197
sg71
g182
sg64
(lp198
g57
(g58
g59
NtRp199
(dp200
g62
(dp201
g70
I5
ssg71
g195
sg64
(lp202
S'None'
p203
asbasbasbag57
(g73
g59
NtRp204
(dp205
g62
(dp206
sg71
g67
sg64
(lp207
g57
(g78
g59
NtRp208
(dp209
g62
(dp210
g82
g83
ssg71
g204
sg64
(lp211
S'client'
p212
asbag57
(g78
g59
NtRp213
(dp214
g62
(dp215
g89
g90
ssg71
g204
sg64
(lp216
S':'
asbag57
(g78
g59
NtRp217
(dp218
g62
(dp219
sg71
g204
sg64
(lp220
g57
(g58
g59
NtRp221
(dp222
g62
(dp223
g70
I5
ssg71
g217
sg64
(lp224
S'127.0.0.1'
p225
asbasbasbag57
(g73
g59
NtRp226
(dp227
g62
(dp228
sg71
g67
sg64
(lp229
g57
(g78
g59
NtRp230
(dp231
g62
(dp232
g82
g83
ssg71
g226
sg64
(lp233
S'controller'
p234
asbag57
(g78
g59
NtRp235
(dp236
g62
(dp237
g89
g90
ssg71
g226
sg64
(lp238
S':'
asbag57
(g78
g59
NtRp239
(dp240
g62
(dp241
sg71
g226
sg64
(lp242
g57
(g58
g59
NtRp243
(dp244
g62
(dp245
g70
I5
ssg71
g239
sg64
(lp246
S'default'
p247
asbasbasbag57
(g73
g59
NtRp248
(dp249
g62
(dp250
sg71
g67
sg64
(lp251
g57
(g78
g59
NtRp252
(dp253
g62
(dp254
g82
g83
ssg71
g248
sg64
(lp255
S'cookies'
p256
asbag57
(g78
g59
NtRp257
(dp258
g62
(dp259
g89
g90
ssg71
g248
sg64
(lp260
S':'
asbag57
(g78
g59
NtRp261
(dp262
g62
(dp263
sg71
g248
sg64
(lp264
g57
(g58
g59
NtRp265
(dp266
g62
(dp267
g70
I5
ssg71
g261
sg64
(lp268
g57
(g66
g59
NtRp269
(dp270
g62
(dp271
g70
I4
ssg71
Nsg64
(lp272
g57
(g73
g59
NtRp273
(dp274
g62
(dp275
sg71
g269
sg64
(lp276
g57
(g78
g59
NtRp277
(dp278
g62
(dp279
g82
g83
ssg71
g273
sg64
(lp280
S'session_id_admin'
p281
asbag57
(g78
g59
NtRp282
(dp283
g62
(dp284
g89
g90
ssg71
g273
sg64
(lp285
S':'
asbag57
(g78
g59
NtRp286
(dp287
g62
(dp288
sg71
g273
sg64
(lp289
g57
(g58
g59
NtRp290
(dp291
g62
(dp292
g70
I4
ssg71
g286
sg64
(lp293
S'127.0.0.1-da37b887-becb-4574-a8c2-7a904814ca9b'
p294
ag57
(g66
g59
NtRp295
(dp296
g62
(dp297
g70
I3
ssg71
Nsg64
(lp298
g57
(g73
g59
NtRp299
(dp300
g62
(dp301
sg71
g295
sg64
(lp302
g57
(g78
g59
NtRp303
(dp304
g62
(dp305
g82
g83
ssg71
g299
sg64
(lp306
S'comment'
p307
asbag57
(g78
g59
NtRp308
(dp309
g62
(dp310
g89
g90
ssg71
g299
sg64
(lp311
S':'
asbag57
(g78
g59
NtRp312
(dp313
g62
(dp314
sg71
g299
sg64
(lp315
g57
(g58
g59
NtRp316
(dp317
g62
(dp318
g70
I3
ssg71
g312
sg64
(lp319
S''
asbasbasbag57
(g73
g59
NtRp320
(dp321
g62
(dp322
sg71
g295
sg64
(lp323
g57
(g78
g59
NtRp324
(dp325
g62
(dp326
g82
g83
ssg71
g320
sg64
(lp327
S'domain'
p328
asbag57
(g78
g59
NtRp329
(dp330
g62
(dp331
g89
g90
ssg71
g320
sg64
(lp332
S':'
asbag57
(g78
g59
NtRp333
(dp334
g62
(dp335
sg71
g320
sg64
(lp336
g57
(g58
g59
NtRp337
(dp338
g62
(dp339
g70
I3
ssg71
g333
sg64
(lp340
S''
asbasbasbag57
(g73
g59
NtRp341
(dp342
g62
(dp343
sg71
g295
sg64
(lp344
g57
(g78
g59
NtRp345
(dp346
g62
(dp347
g82
g83
ssg71
g341
sg64
(lp348
S'expires'
p349
asbag57
(g78
g59
NtRp350
(dp351
g62
(dp352
g89
g90
ssg71
g341
sg64
(lp353
S':'
asbag57
(g78
g59
NtRp354
(dp355
g62
(dp356
sg71
g341
sg64
(lp357
g57
(g58
g59
NtRp358
(dp359
g62
(dp360
g70
I3
ssg71
g354
sg64
(lp361
S''
asbasbasbag57
(g73
g59
NtRp362
(dp363
g62
(dp364
sg71
g295
sg64
(lp365
g57
(g78
g59
NtRp366
(dp367
g62
(dp368
g82
g83
ssg71
g362
sg64
(lp369
S'httponly'
p370
asbag57
(g78
g59
NtRp371
(dp372
g62
(dp373
g89
g90
ssg71
g362
sg64
(lp374
S':'
asbag57
(g78
g59
NtRp375
(dp376
g62
(dp377
sg71
g362
sg64
(lp378
g57
(g58
g59
NtRp379
(dp380
g62
(dp381
g70
I3
ssg71
g375
sg64
(lp382
S''
asbasbasbag57
(g73
g59
NtRp383
(dp384
g62
(dp385
sg71
g295
sg64
(lp386
g57
(g78
g59
NtRp387
(dp388
g62
(dp389
g82
g83
ssg71
g383
sg64
(lp390
S'max-age'
p391
asbag57
(g78
g59
NtRp392
(dp393
g62
(dp394
g89
g90
ssg71
g383
sg64
(lp395
S':'
asbag57
(g78
g59
NtRp396
(dp397
g62
(dp398
sg71
g383
sg64
(lp399
g57
(g58
g59
NtRp400
(dp401
g62
(dp402
g70
I3
ssg71
g396
sg64
(lp403
S''
asbasbasbag57
(g73
g59
NtRp404
(dp405
g62
(dp406
sg71
g295
sg64
(lp407
g57
(g78
g59
NtRp408
(dp409
g62
(dp410
g82
g83
ssg71
g404
sg64
(lp411
S'path'
p412
asbag57
(g78
g59
NtRp413
(dp414
g62
(dp415
g89
g90
ssg71
g404
sg64
(lp416
S':'
asbag57
(g78
g59
NtRp417
(dp418
g62
(dp419
sg71
g404
sg64
(lp420
g57
(g58
g59
NtRp421
(dp422
g62
(dp423
g70
I3
ssg71
g417
sg64
(lp424
S''
asbasbasbag57
(g73
g59
NtRp425
(dp426
g62
(dp427
sg71
g295
sg64
(lp428
g57
(g78
g59
NtRp429
(dp430
g62
(dp431
g82
g83
ssg71
g425
sg64
(lp432
S'secure'
p433
asbag57
(g78
g59
NtRp434
(dp435
g62
(dp436
g89
g90
ssg71
g425
sg64
(lp437
S':'
asbag57
(g78
g59
NtRp438
(dp439
g62
(dp440
sg71
g425
sg64
(lp441
g57
(g58
g59
NtRp442
(dp443
g62
(dp444
g70
I3
ssg71
g438
sg64
(lp445
S''
asbasbasbag57
(g73
g59
NtRp446
(dp447
g62
(dp448
sg71
g295
sg64
(lp449
g57
(g78
g59
NtRp450
(dp451
g62
(dp452
g82
g83
ssg71
g446
sg64
(lp453
S'version'
p454
asbag57
(g78
g59
NtRp455
(dp456
g62
(dp457
g89
g90
ssg71
g446
sg64
(lp458
S':'
asbag57
(g78
g59
NtRp459
(dp460
g62
(dp461
sg71
g446
sg64
(lp462
g57
(g58
g59
NtRp463
(dp464
g62
(dp465
g70
I3
ssg71
g459
sg64
(lp466
S''
asbasbasbasbasbasbasbag57
(g73
g59
NtRp467
(dp468
g62
(dp469
sg71
g269
sg64
(lp470
g57
(g78
g59
NtRp471
(dp472
g62
(dp473
g82
g83
ssg71
g467
sg64
(lp474
S'session_id_sicoin'
p475
asbag57
(g78
g59
NtRp476
(dp477
g62
(dp478
g89
g90
ssg71
g467
sg64
(lp479
S':'
asbag57
(g78
g59
NtRp480
(dp481
g62
(dp482
sg71
g467
sg64
(lp483
g57
(g58
g59
NtRp484
(dp485
g62
(dp486
g70
I4
ssg71
g480
sg64
(lp487
S'127.0.0.1-61d71e2f-b29a-4c78-a591-3d7953b74a04'
p488
ag57
(g66
g59
NtRp489
(dp490
g62
(dp491
g70
I3
ssg71
Nsg64
(lp492
g57
(g73
g59
NtRp493
(dp494
g62
(dp495
sg71
g489
sg64
(lp496
g57
(g78
g59
NtRp497
(dp498
g62
(dp499
g82
g83
ssg71
g493
sg64
(lp500
g307
asbag57
(g78
g59
NtRp501
(dp502
g62
(dp503
g89
g90
ssg71
g493
sg64
(lp504
S':'
asbag57
(g78
g59
NtRp505
(dp506
g62
(dp507
sg71
g493
sg64
(lp508
g57
(g58
g59
NtRp509
(dp510
g62
(dp511
g70
I3
ssg71
g505
sg64
(lp512
S''
asbasbasbag57
(g73
g59
NtRp513
(dp514
g62
(dp515
sg71
g489
sg64
(lp516
g57
(g78
g59
NtRp517
(dp518
g62
(dp519
g82
g83
ssg71
g513
sg64
(lp520
g328
asbag57
(g78
g59
NtRp521
(dp522
g62
(dp523
g89
g90
ssg71
g513
sg64
(lp524
S':'
asbag57
(g78
g59
NtRp525
(dp526
g62
(dp527
sg71
g513
sg64
(lp528
g57
(g58
g59
NtRp529
(dp530
g62
(dp531
g70
I3
ssg71
g525
sg64
(lp532
S''
asbasbasbag57
(g73
g59
NtRp533
(dp534
g62
(dp535
sg71
g489
sg64
(lp536
g57
(g78
g59
NtRp537
(dp538
g62
(dp539
g82
g83
ssg71
g533
sg64
(lp540
g349
asbag57
(g78
g59
NtRp541
(dp542
g62
(dp543
g89
g90
ssg71
g533
sg64
(lp544
S':'
asbag57
(g78
g59
NtRp545
(dp546
g62
(dp547
sg71
g533
sg64
(lp548
g57
(g58
g59
NtRp549
(dp550
g62
(dp551
g70
I3
ssg71
g545
sg64
(lp552
S''
asbasbasbag57
(g73
g59
NtRp553
(dp554
g62
(dp555
sg71
g489
sg64
(lp556
g57
(g78
g59
NtRp557
(dp558
g62
(dp559
g82
g83
ssg71
g553
sg64
(lp560
g370
asbag57
(g78
g59
NtRp561
(dp562
g62
(dp563
g89
g90
ssg71
g553
sg64
(lp564
S':'
asbag57
(g78
g59
NtRp565
(dp566
g62
(dp567
sg71
g553
sg64
(lp568
g57
(g58
g59
NtRp569
(dp570
g62
(dp571
g70
I3
ssg71
g565
sg64
(lp572
S''
asbasbasbag57
(g73
g59
NtRp573
(dp574
g62
(dp575
sg71
g489
sg64
(lp576
g57
(g78
g59
NtRp577
(dp578
g62
(dp579
g82
g83
ssg71
g573
sg64
(lp580
g391
asbag57
(g78
g59
NtRp581
(dp582
g62
(dp583
g89
g90
ssg71
g573
sg64
(lp584
S':'
asbag57
(g78
g59
NtRp585
(dp586
g62
(dp587
sg71
g573
sg64
(lp588
g57
(g58
g59
NtRp589
(dp590
g62
(dp591
g70
I3
ssg71
g585
sg64
(lp592
S''
asbasbasbag57
(g73
g59
NtRp593
(dp594
g62
(dp595
sg71
g489
sg64
(lp596
g57
(g78
g59
NtRp597
(dp598
g62
(dp599
g82
g83
ssg71
g593
sg64
(lp600
g412
asbag57
(g78
g59
NtRp601
(dp602
g62
(dp603
g89
g90
ssg71
g593
sg64
(lp604
S':'
asbag57
(g78
g59
NtRp605
(dp606
g62
(dp607
sg71
g593
sg64
(lp608
g57
(g58
g59
NtRp609
(dp610
g62
(dp611
g70
I3
ssg71
g605
sg64
(lp612
S''
asbasbasbag57
(g73
g59
NtRp613
(dp614
g62
(dp615
sg71
g489
sg64
(lp616
g57
(g78
g59
NtRp617
(dp618
g62
(dp619
g82
g83
ssg71
g613
sg64
(lp620
g433
asbag57
(g78
g59
NtRp621
(dp622
g62
(dp623
g89
g90
ssg71
g613
sg64
(lp624
S':'
asbag57
(g78
g59
NtRp625
(dp626
g62
(dp627
sg71
g613
sg64
(lp628
g57
(g58
g59
NtRp629
(dp630
g62
(dp631
g70
I3
ssg71
g625
sg64
(lp632
S''
asbasbasbag57
(g73
g59
NtRp633
(dp634
g62
(dp635
sg71
g489
sg64
(lp636
g57
(g78
g59
NtRp637
(dp638
g62
(dp639
g82
g83
ssg71
g633
sg64
(lp640
g454
asbag57
(g78
g59
NtRp641
(dp642
g62
(dp643
g89
g90
ssg71
g633
sg64
(lp644
S':'
asbag57
(g78
g59
NtRp645
(dp646
g62
(dp647
sg71
g633
sg64
(lp648
g57
(g58
g59
NtRp649
(dp650
g62
(dp651
g70
I3
ssg71
g645
sg64
(lp652
S''
asbasbasbasbasbasbasbag57
(g73
g59
NtRp653
(dp654
g62
(dp655
sg71
g269
sg64
(lp656
g57
(g78
g59
NtRp657
(dp658
g62
(dp659
g82
g83
ssg71
g653
sg64
(lp660
S'session_id_welcome'
p661
asbag57
(g78
g59
NtRp662
(dp663
g62
(dp664
g89
g90
ssg71
g653
sg64
(lp665
S':'
asbag57
(g78
g59
NtRp666
(dp667
g62
(dp668
sg71
g653
sg64
(lp669
g57
(g58
g59
NtRp670
(dp671
g62
(dp672
g70
I4
ssg71
g666
sg64
(lp673
S'127.0.0.1-02da5993-213d-44cd-a985-b7230cc4b6c7'
p674
ag57
(g66
g59
NtRp675
(dp676
g62
(dp677
g70
I3
ssg71
Nsg64
(lp678
g57
(g73
g59
NtRp679
(dp680
g62
(dp681
sg71
g675
sg64
(lp682
g57
(g78
g59
NtRp683
(dp684
g62
(dp685
g82
g83
ssg71
g679
sg64
(lp686
g307
asbag57
(g78
g59
NtRp687
(dp688
g62
(dp689
g89
g90
ssg71
g679
sg64
(lp690
S':'
asbag57
(g78
g59
NtRp691
(dp692
g62
(dp693
sg71
g679
sg64
(lp694
g57
(g58
g59
NtRp695
(dp696
g62
(dp697
g70
I3
ssg71
g691
sg64
(lp698
S''
asbasbasbag57
(g73
g59
NtRp699
(dp700
g62
(dp701
sg71
g675
sg64
(lp702
g57
(g78
g59
NtRp703
(dp704
g62
(dp705
g82
g83
ssg71
g699
sg64
(lp706
g328
asbag57
(g78
g59
NtRp707
(dp708
g62
(dp709
g89
g90
ssg71
g699
sg64
(lp710
S':'
asbag57
(g78
g59
NtRp711
(dp712
g62
(dp713
sg71
g699
sg64
(lp714
g57
(g58
g59
NtRp715
(dp716
g62
(dp717
g70
I3
ssg71
g711
sg64
(lp718
S''
asbasbasbag57
(g73
g59
NtRp719
(dp720
g62
(dp721
sg71
g675
sg64
(lp722
g57
(g78
g59
NtRp723
(dp724
g62
(dp725
g82
g83
ssg71
g719
sg64
(lp726
g349
asbag57
(g78
g59
NtRp727
(dp728
g62
(dp729
g89
g90
ssg71
g719
sg64
(lp730
S':'
asbag57
(g78
g59
NtRp731
(dp732
g62
(dp733
sg71
g719
sg64
(lp734
g57
(g58
g59
NtRp735
(dp736
g62
(dp737
g70
I3
ssg71
g731
sg64
(lp738
S''
asbasbasbag57
(g73
g59
NtRp739
(dp740
g62
(dp741
sg71
g675
sg64
(lp742
g57
(g78
g59
NtRp743
(dp744
g62
(dp745
g82
g83
ssg71
g739
sg64
(lp746
g370
asbag57
(g78
g59
NtRp747
(dp748
g62
(dp749
g89
g90
ssg71
g739
sg64
(lp750
S':'
asbag57
(g78
g59
NtRp751
(dp752
g62
(dp753
sg71
g739
sg64
(lp754
g57
(g58
g59
NtRp755
(dp756
g62
(dp757
g70
I3
ssg71
g751
sg64
(lp758
S''
asbasbasbag57
(g73
g59
NtRp759
(dp760
g62
(dp761
sg71
g675
sg64
(lp762
g57
(g78
g59
NtRp763
(dp764
g62
(dp765
g82
g83
ssg71
g759
sg64
(lp766
g391
asbag57
(g78
g59
NtRp767
(dp768
g62
(dp769
g89
g90
ssg71
g759
sg64
(lp770
S':'
asbag57
(g78
g59
NtRp771
(dp772
g62
(dp773
sg71
g759
sg64
(lp774
g57
(g58
g59
NtRp775
(dp776
g62
(dp777
g70
I3
ssg71
g771
sg64
(lp778
S''
asbasbasbag57
(g73
g59
NtRp779
(dp780
g62
(dp781
sg71
g675
sg64
(lp782
g57
(g78
g59
NtRp783
(dp784
g62
(dp785
g82
g83
ssg71
g779
sg64
(lp786
g412
asbag57
(g78
g59
NtRp787
(dp788
g62
(dp789
g89
g90
ssg71
g779
sg64
(lp790
S':'
asbag57
(g78
g59
NtRp791
(dp792
g62
(dp793
sg71
g779
sg64
(lp794
g57
(g58
g59
NtRp795
(dp796
g62
(dp797
g70
I3
ssg71
g791
sg64
(lp798
S''
asbasbasbag57
(g73
g59
NtRp799
(dp800
g62
(dp801
sg71
g675
sg64
(lp802
g57
(g78
g59
NtRp803
(dp804
g62
(dp805
g82
g83
ssg71
g799
sg64
(lp806
g433
asbag57
(g78
g59
NtRp807
(dp808
g62
(dp809
g89
g90
ssg71
g799
sg64
(lp810
S':'
asbag57
(g78
g59
NtRp811
(dp812
g62
(dp813
sg71
g799
sg64
(lp814
g57
(g58
g59
NtRp815
(dp816
g62
(dp817
g70
I3
ssg71
g811
sg64
(lp818
S''
asbasbasbag57
(g73
g59
NtRp819
(dp820
g62
(dp821
sg71
g675
sg64
(lp822
g57
(g78
g59
NtRp823
(dp824
g62
(dp825
g82
g83
ssg71
g819
sg64
(lp826
g454
asbag57
(g78
g59
NtRp827
(dp828
g62
(dp829
g89
g90
ssg71
g819
sg64
(lp830
S':'
asbag57
(g78
g59
NtRp831
(dp832
g62
(dp833
sg71
g819
sg64
(lp834
g57
(g58
g59
NtRp835
(dp836
g62
(dp837
g70
I3
ssg71
g831
sg64
(lp838
S''
asbasbasbasbasbasbasbasbasbasbasbag57
(g73
g59
NtRp839
(dp840
g62
(dp841
sg71
g67
sg64
(lp842
g57
(g78
g59
NtRp843
(dp844
g62
(dp845
g82
g83
ssg71
g839
sg64
(lp846
S'env'
p847
asbag57
(g78
g59
NtRp848
(dp849
g62
(dp850
g89
g90
ssg71
g839
sg64
(lp851
S':'
asbag57
(g78
g59
NtRp852
(dp853
g62
(dp854
sg71
g839
sg64
(lp855
g57
(g58
g59
NtRp856
(dp857
g62
(dp858
g70
I5
ssg71
g852
sg64
(lp859
g57
(g66
g59
NtRp860
(dp861
g62
(dp862
g70
I4
ssg71
Nsg64
(lp863
g57
(g73
g59
NtRp864
(dp865
g62
(dp866
sg71
g860
sg64
(lp867
g57
(g78
g59
NtRp868
(dp869
g62
(dp870
g82
g83
ssg71
g864
sg64
(lp871
S'app_folders'
p872
asbag57
(g78
g59
NtRp873
(dp874
g62
(dp875
g89
g90
ssg71
g864
sg64
(lp876
S':'
asbag57
(g78
g59
NtRp877
(dp878
g62
(dp879
sg71
g864
sg64
(lp880
g57
(g58
g59
NtRp881
(dp882
g62
(dp883
g70
I4
ssg71
g877
sg64
(lp884
S"set(['/home/perdomor/web2py/applications/sicoin/', '/home/perdomor/web2py/applications/welcome/', '/home/perdomor/web2py/applications/admin/'])"
p885
asbasbasbag57
(g73
g59
NtRp886
(dp887
g62
(dp888
sg71
g860
sg64
(lp889
g57
(g78
g59
NtRp890
(dp891
g62
(dp892
g82
g83
ssg71
g886
sg64
(lp893
S'applications_parent'
p894
asbag57
(g78
g59
NtRp895
(dp896
g62
(dp897
g89
g90
ssg71
g886
sg64
(lp898
S':'
asbag57
(g78
g59
NtRp899
(dp900
g62
(dp901
sg71
g886
sg64
(lp902
g57
(g58
g59
NtRp903
(dp904
g62
(dp905
g70
I4
ssg71
g899
sg64
(lp906
S'/home/perdomor/web2py'
p907
asbasbasbag57
(g73
g59
NtRp908
(dp909
g62
(dp910
sg71
g860
sg64
(lp911
g57
(g78
g59
NtRp912
(dp913
g62
(dp914
g82
g83
ssg71
g908
sg64
(lp915
S'cmd_args'
p916
asbag57
(g78
g59
NtRp917
(dp918
g62
(dp919
g89
g90
ssg71
g908
sg64
(lp920
S':'
asbag57
(g78
g59
NtRp921
(dp922
g62
(dp923
sg71
g908
sg64
(lp924
g57
(g58
g59
NtRp925
(dp926
g62
(dp927
g70
I4
ssg71
g921
sg64
(lp928
g57
(g66
g59
NtRp929
(dp930
g62
(dp931
g70
I3
ssg71
Nsg64
(lp932
sbasbasbasbag57
(g73
g59
NtRp933
(dp934
g62
(dp935
sg71
g860
sg64
(lp936
g57
(g78
g59
NtRp937
(dp938
g62
(dp939
g82
g83
ssg71
g933
sg64
(lp940
S'cmd_options'
p941
asbag57
(g78
g59
NtRp942
(dp943
g62
(dp944
g89
g90
ssg71
g933
sg64
(lp945
S':'
asbag57
(g78
g59
NtRp946
(dp947
g62
(dp948
sg71
g933
sg64
(lp949
g57
(g58
g59
NtRp950
(dp951
g62
(dp952
g70
I4
ssg71
g946
sg64
(lp953
S"<Values at 0x960b56c: {'verbose': False, 'ip': '127.0.0.1', 'with_scheduler': False, 'ips': ['127.0.1.1'], 'shutdown_timeout': 5, 'taskbar': False, 'port': 8000, 'maxthreads': None, 'softcron': False, 'server_name': 'perdomor', 'bpython': False, 'nogui': False, 'nocron': False, 'extcron': False, 'run_system_tests': False, 'test': None, 'folder': '/home/perdomor/web2py', 'config': '', 'import_models': False, 'winservice': '', 'shell': None, 'run': '', 'log_filename': 'httpserver.log', 'debuglevel': 30, 'args': [''], 'socket_timeout': 5, 'ssl_ca_certificate': None, 'scheduler': None, 'profiler_filename': None, 'ssl_private_key': '', 'scheduler_groups': None, 'password': '<ask>', 'request_queue_size': 5, 'ssl_certificate': '', 'cronjob': False, 'numthreads': None, 'quiet': False, 'interfaces': None, 'minthreads': None, 'timeout': 10, 'plain': False, 'nobanner': False, 'pid_filename': 'httpserver.pid'}>"
p954
asbasbasbag57
(g73
g59
NtRp955
(dp956
g62
(dp957
sg71
g860
sg64
(lp958
g57
(g78
g59
NtRp959
(dp960
g62
(dp961
g82
g83
ssg71
g955
sg64
(lp962
S'db_sessions'
p963
asbag57
(g78
g59
NtRp964
(dp965
g62
(dp966
g89
g90
ssg71
g955
sg64
(lp967
S':'
asbag57
(g78
g59
NtRp968
(dp969
g62
(dp970
sg71
g955
sg64
(lp971
g57
(g58
g59
NtRp972
(dp973
g62
(dp974
g70
I4
ssg71
g968
sg64
(lp975
S'set([])'
p976
asbasbasbag57
(g73
g59
NtRp977
(dp978
g62
(dp979
sg71
g860
sg64
(lp980
g57
(g78
g59
NtRp981
(dp982
g62
(dp983
g82
g83
ssg71
g977
sg64
(lp984
S'debugging'
p985
asbag57
(g78
g59
NtRp986
(dp987
g62
(dp988
g89
g90
ssg71
g977
sg64
(lp989
S':'
asbag57
(g78
g59
NtRp990
(dp991
g62
(dp992
sg71
g977
sg64
(lp993
g57
(g58
g59
NtRp994
(dp995
g62
(dp996
g70
I4
ssg71
g990
sg64
(lp997
g100
asbasbasbag57
(g73
g59
NtRp998
(dp999
g62
(dp1000
sg71
g860
sg64
(lp1001
g57
(g78
g59
NtRp1002
(dp1003
g62
(dp1004
g82
g83
ssg71
g998
sg64
(lp1005
S'gluon_parent'
p1006
asbag57
(g78
g59
NtRp1007
(dp1008
g62
(dp1009
g89
g90
ssg71
g998
sg64
(lp1010
S':'
asbag57
(g78
g59
NtRp1011
(dp1012
g62
(dp1013
sg71
g998
sg64
(lp1014
g57
(g58
g59
NtRp1015
(dp1016
g62
(dp1017
g70
I4
ssg71
g1011
sg64
(lp1018
S'/home/perdomor/web2py'
p1019
asbasbasbag57
(g73
g59
NtRp1020
(dp1021
g62
(dp1022
sg71
g860
sg64
(lp1023
g57
(g78
g59
NtRp1024
(dp1025
g62
(dp1026
g82
g83
ssg71
g1020
sg64
(lp1027
S'http_accept'
p1028
asbag57
(g78
g59
NtRp1029
(dp1030
g62
(dp1031
g89
g90
ssg71
g1020
sg64
(lp1032
S':'
asbag57
(g78
g59
NtRp1033
(dp1034
g62
(dp1035
sg71
g1020
sg64
(lp1036
g57
(g58
g59
NtRp1037
(dp1038
g62
(dp1039
g70
I4
ssg71
g1033
sg64
(lp1040
S'text/html,application/xhtml+xml,application/xml;q=0.9,*/*;q=0.8'
p1041
asbasbasbag57
(g73
g59
NtRp1042
(dp1043
g62
(dp1044
sg71
g860
sg64
(lp1045
g57
(g78
g59
NtRp1046
(dp1047
g62
(dp1048
g82
g83
ssg71
g1042
sg64
(lp1049
S'http_accept_charset'
p1050
asbag57
(g78
g59
NtRp1051
(dp1052
g62
(dp1053
g89
g90
ssg71
g1042
sg64
(lp1054
S':'
asbag57
(g78
g59
NtRp1055
(dp1056
g62
(dp1057
sg71
g1042
sg64
(lp1058
g57
(g58
g59
NtRp1059
(dp1060
g62
(dp1061
g70
I4
ssg71
g1055
sg64
(lp1062
S'ISO-8859-1,utf-8;q=0.7,*;q=0.3'
p1063
asbasbasbag57
(g73
g59
NtRp1064
(dp1065
g62
(dp1066
sg71
g860
sg64
(lp1067
g57
(g78
g59
NtRp1068
(dp1069
g62
(dp1070
g82
g83
ssg71
g1064
sg64
(lp1071
S'http_accept_encoding'
p1072
asbag57
(g78
g59
NtRp1073
(dp1074
g62
(dp1075
g89
g90
ssg71
g1064
sg64
(lp1076
S':'
asbag57
(g78
g59
NtRp1077
(dp1078
g62
(dp1079
sg71
g1064
sg64
(lp1080
g57
(g58
g59
NtRp1081
(dp1082
g62
(dp1083
g70
I4
ssg71
g1077
sg64
(lp1084
S'gzip,deflate,sdch'
p1085
asbasbasbag57
(g73
g59
NtRp1086
(dp1087
g62
(dp1088
sg71
g860
sg64
(lp1089
g57
(g78
g59
NtRp1090
(dp1091
g62
(dp1092
g82
g83
ssg71
g1086
sg64
(lp1093
S'http_accept_language'
p1094
asbag57
(g78
g59
NtRp1095
(dp1096
g62
(dp1097
g89
g90
ssg71
g1086
sg64
(lp1098
S':'
asbag57
(g78
g59
NtRp1099
(dp1100
g62
(dp1101
sg71
g1086
sg64
(lp1102
g57
(g58
g59
NtRp1103
(dp1104
g62
(dp1105
g70
I4
ssg71
g1099
sg64
(lp1106
S'es-419,es;q=0.8'
p1107
asbasbasbag57
(g73
g59
NtRp1108
(dp1109
g62
(dp1110
sg71
g860
sg64
(lp1111
g57
(g78
g59
NtRp1112
(dp1113
g62
(dp1114
g82
g83
ssg71
g1108
sg64
(lp1115
S'http_connection'
p1116
asbag57
(g78
g59
NtRp1117
(dp1118
g62
(dp1119
g89
g90
ssg71
g1108
sg64
(lp1120
S':'
asbag57
(g78
g59
NtRp1121
(dp1122
g62
(dp1123
sg71
g1108
sg64
(lp1124
g57
(g58
g59
NtRp1125
(dp1126
g62
(dp1127
g70
I4
ssg71
g1121
sg64
(lp1128
S'keep-alive'
p1129
asbasbasbag57
(g73
g59
NtRp1130
(dp1131
g62
(dp1132
sg71
g860
sg64
(lp1133
g57
(g78
g59
NtRp1134
(dp1135
g62
(dp1136
g82
g83
ssg71
g1130
sg64
(lp1137
S'http_cookie'
p1138
asbag57
(g78
g59
NtRp1139
(dp1140
g62
(dp1141
g89
g90
ssg71
g1130
sg64
(lp1142
S':'
asbag57
(g78
g59
NtRp1143
(dp1144
g62
(dp1145
sg71
g1130
sg64
(lp1146
g57
(g58
g59
NtRp1147
(dp1148
g62
(dp1149
g70
I4
ssg71
g1143
sg64
(lp1150
S'session_id_welcome=127.0.0.1-02da5993-213d-44cd-a985-b7230cc4b6c7; session_id_sicoin=127.0.0.1-61d71e2f-b29a-4c78-a591-3d7953b74a04; session_id_admin=127.0.0.1-da37b887-becb-4574-a8c2-7a904814ca9b'
p1151
asbasbasbag57
(g73
g59
NtRp1152
(dp1153
g62
(dp1154
sg71
g860
sg64
(lp1155
g57
(g78
g59
NtRp1156
(dp1157
g62
(dp1158
g82
g83
ssg71
g1152
sg64
(lp1159
S'http_host'
p1160
asbag57
(g78
g59
NtRp1161
(dp1162
g62
(dp1163
g89
g90
ssg71
g1152
sg64
(lp1164
S':'
asbag57
(g78
g59
NtRp1165
(dp1166
g62
(dp1167
sg71
g1152
sg64
(lp1168
g57
(g58
g59
NtRp1169
(dp1170
g62
(dp1171
g70
I4
ssg71
g1165
sg64
(lp1172
S'127.0.0.1:8080'
p1173
asbasbasbag57
(g73
g59
NtRp1174
(dp1175
g62
(dp1176
sg71
g860
sg64
(lp1177
g57
(g78
g59
NtRp1178
(dp1179
g62
(dp1180
g82
g83
ssg71
g1174
sg64
(lp1181
S'http_referer'
p1182
asbag57
(g78
g59
NtRp1183
(dp1184
g62
(dp1185
g89
g90
ssg71
g1174
sg64
(lp1186
S':'
asbag57
(g78
g59
NtRp1187
(dp1188
g62
(dp1189
sg71
g1174
sg64
(lp1190
g57
(g58
g59
NtRp1191
(dp1192
g62
(dp1193
g70
I4
ssg71
g1187
sg64
(lp1194
S'http://127.0.0.1:8080/sicoin/default/user/register'
p1195
asbasbasbag57
(g73
g59
NtRp1196
(dp1197
g62
(dp1198
sg71
g860
sg64
(lp1199
g57
(g78
g59
NtRp1200
(dp1201
g62
(dp1202
g82
g83
ssg71
g1196
sg64
(lp1203
S'http_user_agent'
p1204
asbag57
(g78
g59
NtRp1205
(dp1206
g62
(dp1207
g89
g90
ssg71
g1196
sg64
(lp1208
S':'
asbag57
(g78
g59
NtRp1209
(dp1210
g62
(dp1211
sg71
g1196
sg64
(lp1212
g57
(g58
g59
NtRp1213
(dp1214
g62
(dp1215
g70
I4
ssg71
g1209
sg64
(lp1216
S'Mozilla/5.0 (X11; Linux i686) AppleWebKit/535.19 (KHTML, like Gecko) Ubuntu/11.10 Chromium/18.0.1025.168 Chrome/18.0.1025.168 Safari/535.19'
p1217
asbasbasbag57
(g73
g59
NtRp1218
(dp1219
g62
(dp1220
sg71
g860
sg64
(lp1221
g57
(g78
g59
NtRp1222
(dp1223
g62
(dp1224
g82
g83
ssg71
g1218
sg64
(lp1225
S'is_jython'
p1226
asbag57
(g78
g59
NtRp1227
(dp1228
g62
(dp1229
g89
g90
ssg71
g1218
sg64
(lp1230
S':'
asbag57
(g78
g59
NtRp1231
(dp1232
g62
(dp1233
sg71
g1218
sg64
(lp1234
g57
(g58
g59
NtRp1235
(dp1236
g62
(dp1237
g70
I4
ssg71
g1231
sg64
(lp1238
g100
asbasbasbag57
(g73
g59
NtRp1239
(dp1240
g62
(dp1241
sg71
g860
sg64
(lp1242
g57
(g78
g59
NtRp1243
(dp1244
g62
(dp1245
g82
g83
ssg71
g1239
sg64
(lp1246
S'is_pypy'
p1247
asbag57
(g78
g59
NtRp1248
(dp1249
g62
(dp1250
g89
g90
ssg71
g1239
sg64
(lp1251
S':'
asbag57
(g78
g59
NtRp1252
(dp1253
g62
(dp1254
sg71
g1239
sg64
(lp1255
g57
(g58
g59
NtRp1256
(dp1257
g62
(dp1258
g70
I4
ssg71
g1252
sg64
(lp1259
g100
asbasbasbag57
(g73
g59
NtRp1260
(dp1261
g62
(dp1262
sg71
g860
sg64
(lp1263
g57
(g78
g59
NtRp1264
(dp1265
g62
(dp1266
g82
g83
ssg71
g1260
sg64
(lp1267
S'path_info'
p1268
asbag57
(g78
g59
NtRp1269
(dp1270
g62
(dp1271
g89
g90
ssg71
g1260
sg64
(lp1272
S':'
asbag57
(g78
g59
NtRp1273
(dp1274
g62
(dp1275
sg71
g1260
sg64
(lp1276
g57
(g58
g59
NtRp1277
(dp1278
g62
(dp1279
g70
I4
ssg71
g1273
sg64
(lp1280
S'/sicoin/default/user/login'
p1281
asbasbasbag57
(g73
g59
NtRp1282
(dp1283
g62
(dp1284
sg71
g860
sg64
(lp1285
g57
(g78
g59
NtRp1286
(dp1287
g62
(dp1288
g82
g83
ssg71
g1282
sg64
(lp1289
S'query_string'
p1290
asbag57
(g78
g59
NtRp1291
(dp1292
g62
(dp1293
g89
g90
ssg71
g1282
sg64
(lp1294
S':'
asbag57
(g78
g59
NtRp1295
(dp1296
g62
(dp1297
sg71
g1282
sg64
(lp1298
g57
(g58
g59
NtRp1299
(dp1300
g62
(dp1301
g70
I4
ssg71
g1295
sg64
(lp1302
S''
asbasbasbag57
(g73
g59
NtRp1303
(dp1304
g62
(dp1305
sg71
g860
sg64
(lp1306
g57
(g78
g59
NtRp1307
(dp1308
g62
(dp1309
g82
g83
ssg71
g1303
sg64
(lp1310
S'remote_addr'
p1311
asbag57
(g78
g59
NtRp1312
(dp1313
g62
(dp1314
g89
g90
ssg71
g1303
sg64
(lp1315
S':'
asbag57
(g78
g59
NtRp1316
(dp1317
g62
(dp1318
sg71
g1303
sg64
(lp1319
g57
(g58
g59
NtRp1320
(dp1321
g62
(dp1322
g70
I4
ssg71
g1316
sg64
(lp1323
g225
asbasbasbag57
(g73
g59
NtRp1324
(dp1325
g62
(dp1326
sg71
g860
sg64
(lp1327
g57
(g78
g59
NtRp1328
(dp1329
g62
(dp1330
g82
g83
ssg71
g1324
sg64
(lp1331
S'remote_port'
p1332
asbag57
(g78
g59
NtRp1333
(dp1334
g62
(dp1335
g89
g90
ssg71
g1324
sg64
(lp1336
S':'
asbag57
(g78
g59
NtRp1337
(dp1338
g62
(dp1339
sg71
g1324
sg64
(lp1340
g57
(g58
g59
NtRp1341
(dp1342
g62
(dp1343
g70
I4
ssg71
g1337
sg64
(lp1344
S'40263'
p1345
asbasbasbag57
(g73
g59
NtRp1346
(dp1347
g62
(dp1348
sg71
g860
sg64
(lp1349
g57
(g78
g59
NtRp1350
(dp1351
g62
(dp1352
g82
g83
ssg71
g1346
sg64
(lp1353
S'request_method'
p1354
asbag57
(g78
g59
NtRp1355
(dp1356
g62
(dp1357
g89
g90
ssg71
g1346
sg64
(lp1358
S':'
asbag57
(g78
g59
NtRp1359
(dp1360
g62
(dp1361
sg71
g1346
sg64
(lp1362
g57
(g58
g59
NtRp1363
(dp1364
g62
(dp1365
g70
I4
ssg71
g1359
sg64
(lp1366
S'GET'
p1367
asbasbasbag57
(g73
g59
NtRp1368
(dp1369
g62
(dp1370
sg71
g860
sg64
(lp1371
g57
(g78
g59
NtRp1372
(dp1373
g62
(dp1374
g82
g83
ssg71
g1368
sg64
(lp1375
S'request_uri'
p1376
asbag57
(g78
g59
NtRp1377
(dp1378
g62
(dp1379
g89
g90
ssg71
g1368
sg64
(lp1380
S':'
asbag57
(g78
g59
NtRp1381
(dp1382
g62
(dp1383
sg71
g1368
sg64
(lp1384
g57
(g58
g59
NtRp1385
(dp1386
g62
(dp1387
g70
I4
ssg71
g1381
sg64
(lp1388
g1281
asbasbasbag57
(g73
g59
NtRp1389
(dp1390
g62
(dp1391
sg71
g860
sg64
(lp1392
g57
(g78
g59
NtRp1393
(dp1394
g62
(dp1395
g82
g83
ssg71
g1389
sg64
(lp1396
S'script_name'
p1397
asbag57
(g78
g59
NtRp1398
(dp1399
g62
(dp1400
g89
g90
ssg71
g1389
sg64
(lp1401
S':'
asbag57
(g78
g59
NtRp1402
(dp1403
g62
(dp1404
sg71
g1389
sg64
(lp1405
g57
(g58
g59
NtRp1406
(dp1407
g62
(dp1408
g70
I4
ssg71
g1402
sg64
(lp1409
S''
asbasbasbag57
(g73
g59
NtRp1410
(dp1411
g62
(dp1412
sg71
g860
sg64
(lp1413
g57
(g78
g59
NtRp1414
(dp1415
g62
(dp1416
g82
g83
ssg71
g1410
sg64
(lp1417
S'server_name'
p1418
asbag57
(g78
g59
NtRp1419
(dp1420
g62
(dp1421
g89
g90
ssg71
g1410
sg64
(lp1422
S':'
asbag57
(g78
g59
NtRp1423
(dp1424
g62
(dp1425
sg71
g1410
sg64
(lp1426
g57
(g58
g59
NtRp1427
(dp1428
g62
(dp1429
g70
I4
ssg71
g1423
sg64
(lp1430
S'perdomor'
p1431
asbasbasbag57
(g73
g59
NtRp1432
(dp1433
g62
(dp1434
sg71
g860
sg64
(lp1435
g57
(g78
g59
NtRp1436
(dp1437
g62
(dp1438
g82
g83
ssg71
g1432
sg64
(lp1439
S'server_port'
p1440
asbag57
(g78
g59
NtRp1441
(dp1442
g62
(dp1443
g89
g90
ssg71
g1432
sg64
(lp1444
S':'
asbag57
(g78
g59
NtRp1445
(dp1446
g62
(dp1447
sg71
g1432
sg64
(lp1448
g57
(g58
g59
NtRp1449
(dp1450
g62
(dp1451
g70
I4
ssg71
g1445
sg64
(lp1452
S'8080'
p1453
asbasbasbag57
(g73
g59
NtRp1454
(dp1455
g62
(dp1456
sg71
g860
sg64
(lp1457
g57
(g78
g59
NtRp1458
(dp1459
g62
(dp1460
g82
g83
ssg71
g1454
sg64
(lp1461
S'server_protocol'
p1462
asbag57
(g78
g59
NtRp1463
(dp1464
g62
(dp1465
g89
g90
ssg71
g1454
sg64
(lp1466
S':'
asbag57
(g78
g59
NtRp1467
(dp1468
g62
(dp1469
sg71
g1454
sg64
(lp1470
g57
(g58
g59
NtRp1471
(dp1472
g62
(dp1473
g70
I4
ssg71
g1467
sg64
(lp1474
S'HTTP/1.1'
p1475
asbasbasbag57
(g73
g59
NtRp1476
(dp1477
g62
(dp1478
sg71
g860
sg64
(lp1479
g57
(g78
g59
NtRp1480
(dp1481
g62
(dp1482
g82
g83
ssg71
g1476
sg64
(lp1483
S'server_software'
p1484
asbag57
(g78
g59
NtRp1485
(dp1486
g62
(dp1487
g89
g90
ssg71
g1476
sg64
(lp1488
S':'
asbag57
(g78
g59
NtRp1489
(dp1490
g62
(dp1491
sg71
g1476
sg64
(lp1492
g57
(g58
g59
NtRp1493
(dp1494
g62
(dp1495
g70
I4
ssg71
g1489
sg64
(lp1496
S'Rocket 1.2.4'
p1497
asbasbasbag57
(g73
g59
NtRp1498
(dp1499
g62
(dp1500
sg71
g860
sg64
(lp1501
g57
(g78
g59
NtRp1502
(dp1503
g62
(dp1504
g82
g83
ssg71
g1498
sg64
(lp1505
S'web2py_crontype'
p1506
asbag57
(g78
g59
NtRp1507
(dp1508
g62
(dp1509
g89
g90
ssg71
g1498
sg64
(lp1510
S':'
asbag57
(g78
g59
NtRp1511
(dp1512
g62
(dp1513
sg71
g1498
sg64
(lp1514
g57
(g58
g59
NtRp1515
(dp1516
g62
(dp1517
g70
I4
ssg71
g1511
sg64
(lp1518
S'hard'
p1519
asbasbasbag57
(g73
g59
NtRp1520
(dp1521
g62
(dp1522
sg71
g860
sg64
(lp1523
g57
(g78
g59
NtRp1524
(dp1525
g62
(dp1526
g82
g83
ssg71
g1520
sg64
(lp1527
S'web2py_path'
p1528
asbag57
(g78
g59
NtRp1529
(dp1530
g62
(dp1531
g89
g90
ssg71
g1520
sg64
(lp1532
S':'
asbag57
(g78
g59
NtRp1533
(dp1534
g62
(dp1535
sg71
g1520
sg64
(lp1536
g57
(g58
g59
NtRp1537
(dp1538
g62
(dp1539
g70
I4
ssg71
g1533
sg64
(lp1540
g907
asbasbasbag57
(g73
g59
NtRp1541
(dp1542
g62
(dp1543
sg71
g860
sg64
(lp1544
g57
(g78
g59
NtRp1545
(dp1546
g62
(dp1547
g82
g83
ssg71
g1541
sg64
(lp1548
S'web2py_version'
p1549
asbag57
(g78
g59
NtRp1550
(dp1551
g62
(dp1552
g89
g90
ssg71
g1541
sg64
(lp1553
S':'
asbag57
(g78
g59
NtRp1554
(dp1555
g62
(dp1556
sg71
g1541
sg64
(lp1557
g57
(g58
g59
NtRp1558
(dp1559
g62
(dp1560
g70
I4
ssg71
g1554
sg64
(lp1561
g57
(g66
g59
NtRp1562
(dp1563
g62
(dp1564
g70
I3
ssg71
Nsg64
(lp1565
g57
(g73
g59
NtRp1566
(dp1567
g62
(dp1568
sg71
g1562
sg64
(lp1569
g57
(g78
g59
NtRp1570
(dp1571
g62
(dp1572
sg71
g1566
sg64
(lp1573
g57
(g58
g59
NtRp1574
(dp1575
g62
(dp1576
g70
I3
ssg71
g1570
sg64
(lp1577
S'2'
asbasbasbag57
(g73
g59
NtRp1578
(dp1579
g62
(dp1580
sg71
g1562
sg64
(lp1581
g57
(g78
g59
NtRp1582
(dp1583
g62
(dp1584
sg71
g1578
sg64
(lp1585
g57
(g58
g59
NtRp1586
(dp1587
g62
(dp1588
g70
I3
ssg71
g1582
sg64
(lp1589
S'0'
asbasbasbag57
(g73
g59
NtRp1590
(dp1591
g62
(dp1592
sg71
g1562
sg64
(lp1593
g57
(g78
g59
NtRp1594
(dp1595
g62
(dp1596
sg71
g1590
sg64
(lp1597
g57
(g58
g59
NtRp1598
(dp1599
g62
(dp1600
g70
I3
ssg71
g1594
sg64
(lp1601
S'9'
asbasbasbag57
(g73
g59
NtRp1602
(dp1603
g62
(dp1604
sg71
g1562
sg64
(lp1605
g57
(g78
g59
NtRp1606
(dp1607
g62
(dp1608
sg71
g1602
sg64
(lp1609
g57
(g58
g59
NtRp1610
(dp1611
g62
(dp1612
g70
I3
ssg71
g1606
sg64
(lp1613
S'datetime.datetime(2012, 9, 13, 23, 51, 30)'
p1614
asbasbasbag57
(g73
g59
NtRp1615
(dp1616
g62
(dp1617
sg71
g1562
sg64
(lp1618
g57
(g78
g59
NtRp1619
(dp1620
g62
(dp1621
sg71
g1615
sg64
(lp1622
g57
(g58
g59
NtRp1623
(dp1624
g62
(dp1625
g70
I3
ssg71
g1619
sg64
(lp1626
S'stable'
p1627
asbasbasbasbasbasbasbag57
(g73
g59
NtRp1628
(dp1629
g62
(dp1630
sg71
g860
sg64
(lp1631
g57
(g78
g59
NtRp1632
(dp1633
g62
(dp1634
g82
g83
ssg71
g1628
sg64
(lp1635
S'wsgi_errors'
p1636
asbag57
(g78
g59
NtRp1637
(dp1638
g62
(dp1639
g89
g90
ssg71
g1628
sg64
(lp1640
S':'
asbag57
(g78
g59
NtRp1641
(dp1642
g62
(dp1643
sg71
g1628
sg64
(lp1644
g57
(g58
g59
NtRp1645
(dp1646
g62
(dp1647
g70
I4
ssg71
g1641
sg64
(lp1648
S"<open file '<stderr>', mode 'w' at 0xb77dc0d0>"
p1649
asbasbasbag57
(g73
g59
NtRp1650
(dp1651
g62
(dp1652
sg71
g860
sg64
(lp1653
g57
(g78
g59
NtRp1654
(dp1655
g62
(dp1656
g82
g83
ssg71
g1650
sg64
(lp1657
S'wsgi_file_wrapper'
p1658
asbag57
(g78
g59
NtRp1659
(dp1660
g62
(dp1661
g89
g90
ssg71
g1650
sg64
(lp1662
S':'
asbag57
(g78
g59
NtRp1663
(dp1664
g62
(dp1665
sg71
g1650
sg64
(lp1666
g57
(g58
g59
NtRp1667
(dp1668
g62
(dp1669
g70
I4
ssg71
g1663
sg64
(lp1670
S'<class wsgiref.util.FileWrapper at 0x8e947ac>'
p1671
asbasbasbag57
(g73
g59
NtRp1672
(dp1673
g62
(dp1674
sg71
g860
sg64
(lp1675
g57
(g78
g59
NtRp1676
(dp1677
g62
(dp1678
g82
g83
ssg71
g1672
sg64
(lp1679
S'wsgi_input'
p1680
asbag57
(g78
g59
NtRp1681
(dp1682
g62
(dp1683
g89
g90
ssg71
g1672
sg64
(lp1684
S':'
asbag57
(g78
g59
NtRp1685
(dp1686
g62
(dp1687
sg71
g1672
sg64
(lp1688
g57
(g58
g59
NtRp1689
(dp1690
g62
(dp1691
g70
I4
ssg71
g1685
sg64
(lp1692
S'<socket._fileobject object at 0xa6e4f6c>'
p1693
asbasbasbag57
(g73
g59
NtRp1694
(dp1695
g62
(dp1696
sg71
g860
sg64
(lp1697
g57
(g78
g59
NtRp1698
(dp1699
g62
(dp1700
g82
g83
ssg71
g1694
sg64
(lp1701
S'wsgi_multiprocess'
p1702
asbag57
(g78
g59
NtRp1703
(dp1704
g62
(dp1705
g89
g90
ssg71
g1694
sg64
(lp1706
S':'
asbag57
(g78
g59
NtRp1707
(dp1708
g62
(dp1709
sg71
g1694
sg64
(lp1710
g57
(g58
g59
NtRp1711
(dp1712
g62
(dp1713
g70
I4
ssg71
g1707
sg64
(lp1714
g100
asbasbasbag57
(g73
g59
NtRp1715
(dp1716
g62
(dp1717
sg71
g860
sg64
(lp1718
g57
(g78
g59
NtRp1719
(dp1720
g62
(dp1721
g82
g83
ssg71
g1715
sg64
(lp1722
S'wsgi_multithread'
p1723
asbag57
(g78
g59
NtRp1724
(dp1725
g62
(dp1726
g89
g90
ssg71
g1715
sg64
(lp1727
S':'
asbag57
(g78
g59
NtRp1728
(dp1729
g62
(dp1730
sg71
g1715
sg64
(lp1731
g57
(g58
g59
NtRp1732
(dp1733
g62
(dp1734
g70
I4
ssg71
g1728
sg64
(lp1735
S'True'
p1736
asbasbasbag57
(g73
g59
NtRp1737
(dp1738
g62
(dp1739
sg71
g860
sg64
(lp1740
g57
(g78
g59
NtRp1741
(dp1742
g62
(dp1743
g82
g83
ssg71
g1737
sg64
(lp1744
S'wsgi_run_once'
p1745
asbag57
(g78
g59
NtRp1746
(dp1747
g62
(dp1748
g89
g90
ssg71
g1737
sg64
(lp1749
S':'
asbag57
(g78
g59
NtRp1750
(dp1751
g62
(dp1752
sg71
g1737
sg64
(lp1753
g57
(g58
g59
NtRp1754
(dp1755
g62
(dp1756
g70
I4
ssg71
g1750
sg64
(lp1757
g100
asbasbasbag57
(g73
g59
NtRp1758
(dp1759
g62
(dp1760
sg71
g860
sg64
(lp1761
g57
(g78
g59
NtRp1762
(dp1763
g62
(dp1764
g82
g83
ssg71
g1758
sg64
(lp1765
S'wsgi_url_scheme'
p1766
asbag57
(g78
g59
NtRp1767
(dp1768
g62
(dp1769
g89
g90
ssg71
g1758
sg64
(lp1770
S':'
asbag57
(g78
g59
NtRp1771
(dp1772
g62
(dp1773
sg71
g1758
sg64
(lp1774
g57
(g58
g59
NtRp1775
(dp1776
g62
(dp1777
g70
I4
ssg71
g1771
sg64
(lp1778
S'http'
p1779
asbasbasbag57
(g73
g59
NtRp1780
(dp1781
g62
(dp1782
sg71
g860
sg64
(lp1783
g57
(g78
g59
NtRp1784
(dp1785
g62
(dp1786
g82
g83
ssg71
g1780
sg64
(lp1787
S'wsgi_version'
p1788
asbag57
(g78
g59
NtRp1789
(dp1790
g62
(dp1791
g89
g90
ssg71
g1780
sg64
(lp1792
S':'
asbag57
(g78
g59
NtRp1793
(dp1794
g62
(dp1795
sg71
g1780
sg64
(lp1796
g57
(g58
g59
NtRp1797
(dp1798
g62
(dp1799
g70
I4
ssg71
g1793
sg64
(lp1800
g57
(g66
g59
NtRp1801
(dp1802
g62
(dp1803
g70
I3
ssg71
Nsg64
(lp1804
g57
(g73
g59
NtRp1805
(dp1806
g62
(dp1807
sg71
g1801
sg64
(lp1808
g57
(g78
g59
NtRp1809
(dp1810
g62
(dp1811
sg71
g1805
sg64
(lp1812
g57
(g58
g59
NtRp1813
(dp1814
g62
(dp1815
g70
I3
ssg71
g1809
sg64
(lp1816
S'1'
asbasbasbag57
(g73
g59
NtRp1817
(dp1818
g62
(dp1819
sg71
g1801
sg64
(lp1820
g57
(g78
g59
NtRp1821
(dp1822
g62
(dp1823
sg71
g1817
sg64
(lp1824
g57
(g58
g59
NtRp1825
(dp1826
g62
(dp1827
g70
I3
ssg71
g1821
sg64
(lp1828
S'0'
asbasbasbasbasbasbasbasbasbasbasbag57
(g73
g59
NtRp1829
(dp1830
g62
(dp1831
sg71
g67
sg64
(lp1832
g57
(g78
g59
NtRp1833
(dp1834
g62
(dp1835
g82
g83
ssg71
g1829
sg64
(lp1836
S'extension'
p1837
asbag57
(g78
g59
NtRp1838
(dp1839
g62
(dp1840
g89
g90
ssg71
g1829
sg64
(lp1841
S':'
asbag57
(g78
g59
NtRp1842
(dp1843
g62
(dp1844
sg71
g1829
sg64
(lp1845
g57
(g58
g59
NtRp1846
(dp1847
g62
(dp1848
g70
I5
ssg71
g1842
sg64
(lp1849
S'html'
p1850
asbasbasbag57
(g73
g59
NtRp1851
(dp1852
g62
(dp1853
sg71
g67
sg64
(lp1854
g57
(g78
g59
NtRp1855
(dp1856
g62
(dp1857
g82
g83
ssg71
g1851
sg64
(lp1858
S'folder'
p1859
asbag57
(g78
g59
NtRp1860
(dp1861
g62
(dp1862
g89
g90
ssg71
g1851
sg64
(lp1863
S':'
asbag57
(g78
g59
NtRp1864
(dp1865
g62
(dp1866
sg71
g1851
sg64
(lp1867
g57
(g58
g59
NtRp1868
(dp1869
g62
(dp1870
g70
I5
ssg71
g1864
sg64
(lp1871
S'/home/perdomor/web2py/applications/sicoin/'
p1872
asbasbasbag57
(g73
g59
NtRp1873
(dp1874
g62
(dp1875
sg71
g67
sg64
(lp1876
g57
(g78
g59
NtRp1877
(dp1878
g62
(dp1879
g82
g83
ssg71
g1873
sg64
(lp1880
S'function'
p1881
asbag57
(g78
g59
NtRp1882
(dp1883
g62
(dp1884
g89
g90
ssg71
g1873
sg64
(lp1885
S':'
asbag57
(g78
g59
NtRp1886
(dp1887
g62
(dp1888
sg71
g1873
sg64
(lp1889
g57
(g58
g59
NtRp1890
(dp1891
g62
(dp1892
g70
I5
ssg71
g1886
sg64
(lp1893
S'user'
p1894
asbasbasbag57
(g73
g59
NtRp1895
(dp1896
g62
(dp1897
sg71
g67
sg64
(lp1898
g57
(g78
g59
NtRp1899
(dp1900
g62
(dp1901
g82
g83
ssg71
g1895
sg64
(lp1902
S'get_vars'
p1903
asbag57
(g78
g59
NtRp1904
(dp1905
g62
(dp1906
g89
g90
ssg71
g1895
sg64
(lp1907
S':'
asbag57
(g78
g59
NtRp1908
(dp1909
g62
(dp1910
sg71
g1895
sg64
(lp1911
g57
(g58
g59
NtRp1912
(dp1913
g62
(dp1914
g70
I5
ssg71
g1908
sg64
(lp1915
g57
(g66
g59
NtRp1916
(dp1917
g62
(dp1918
g70
I4
ssg71
Nsg64
(lp1919
sbasbasbasbag57
(g73
g59
NtRp1920
(dp1921
g62
(dp1922
sg71
g67
sg64
(lp1923
g57
(g78
g59
NtRp1924
(dp1925
g62
(dp1926
g82
g83
ssg71
g1920
sg64
(lp1927
S'global_settings'
p1928
asbag57
(g78
g59
NtRp1929
(dp1930
g62
(dp1931
g89
g90
ssg71
g1920
sg64
(lp1932
S':'
asbag57
(g78
g59
NtRp1933
(dp1934
g62
(dp1935
sg71
g1920
sg64
(lp1936
g57
(g58
g59
NtRp1937
(dp1938
g62
(dp1939
g70
I5
ssg71
g1933
sg64
(lp1940
g57
(g66
g59
NtRp1941
(dp1942
g62
(dp1943
g70
I4
ssg71
Nsg64
(lp1944
g57
(g73
g59
NtRp1945
(dp1946
g62
(dp1947
sg71
g1941
sg64
(lp1948
g57
(g78
g59
NtRp1949
(dp1950
g62
(dp1951
g82
g83
ssg71
g1945
sg64
(lp1952
g872
asbag57
(g78
g59
NtRp1953
(dp1954
g62
(dp1955
g89
g90
ssg71
g1945
sg64
(lp1956
S':'
asbag57
(g78
g59
NtRp1957
(dp1958
g62
(dp1959
sg71
g1945
sg64
(lp1960
g57
(g58
g59
NtRp1961
(dp1962
g62
(dp1963
g70
I4
ssg71
g1957
sg64
(lp1964
S"set(['/home/perdomor/web2py/applications/sicoin/', '/home/perdomor/web2py/applications/welcome/', '/home/perdomor/web2py/applications/admin/'])"
p1965
asbasbasbag57
(g73
g59
NtRp1966
(dp1967
g62
(dp1968
sg71
g1941
sg64
(lp1969
g57
(g78
g59
NtRp1970
(dp1971
g62
(dp1972
g82
g83
ssg71
g1966
sg64
(lp1973
g894
asbag57
(g78
g59
NtRp1974
(dp1975
g62
(dp1976
g89
g90
ssg71
g1966
sg64
(lp1977
S':'
asbag57
(g78
g59
NtRp1978
(dp1979
g62
(dp1980
sg71
g1966
sg64
(lp1981
g57
(g58
g59
NtRp1982
(dp1983
g62
(dp1984
g70
I4
ssg71
g1978
sg64
(lp1985
g907
asbasbasbag57
(g73
g59
NtRp1986
(dp1987
g62
(dp1988
sg71
g1941
sg64
(lp1989
g57
(g78
g59
NtRp1990
(dp1991
g62
(dp1992
g82
g83
ssg71
g1986
sg64
(lp1993
g916
asbag57
(g78
g59
NtRp1994
(dp1995
g62
(dp1996
g89
g90
ssg71
g1986
sg64
(lp1997
S':'
asbag57
(g78
g59
NtRp1998
(dp1999
g62
(dp2000
sg71
g1986
sg64
(lp2001
g57
(g58
g59
NtRp2002
(dp2003
g62
(dp2004
g70
I4
ssg71
g1998
sg64
(lp2005
g57
(g66
g59
NtRp2006
(dp2007
g62
(dp2008
g70
I3
ssg71
Nsg64
(lp2009
sbasbasbasbag57
(g73
g59
NtRp2010
(dp2011
g62
(dp2012
sg71
g1941
sg64
(lp2013
g57
(g78
g59
NtRp2014
(dp2015
g62
(dp2016
g82
g83
ssg71
g2010
sg64
(lp2017
g941
asbag57
(g78
g59
NtRp2018
(dp2019
g62
(dp2020
g89
g90
ssg71
g2010
sg64
(lp2021
S':'
asbag57
(g78
g59
NtRp2022
(dp2023
g62
(dp2024
sg71
g2010
sg64
(lp2025
g57
(g58
g59
NtRp2026
(dp2027
g62
(dp2028
g70
I4
ssg71
g2022
sg64
(lp2029
S"<Values at 0x960b56c: {'verbose': False, 'ip': '127.0.0.1', 'with_scheduler': False, 'ips': ['127.0.1.1'], 'shutdown_timeout': 5, 'taskbar': False, 'port': 8000, 'maxthreads': None, 'softcron': False, 'server_name': 'perdomor', 'bpython': False, 'nogui': False, 'nocron': False, 'extcron': False, 'run_system_tests': False, 'test': None, 'folder': '/home/perdomor/web2py', 'config': '', 'import_models': False, 'winservice': '', 'shell': None, 'run': '', 'log_filename': 'httpserver.log', 'debuglevel': 30, 'args': [''], 'socket_timeout': 5, 'ssl_ca_certificate': None, 'scheduler': None, 'profiler_filename': None, 'ssl_private_key': '', 'scheduler_groups': None, 'password': '<ask>', 'request_queue_size': 5, 'ssl_certificate': '', 'cronjob': False, 'numthreads': None, 'quiet': False, 'interfaces': None, 'minthreads': None, 'timeout': 10, 'plain': False, 'nobanner': False, 'pid_filename': 'httpserver.pid'}>"
p2030
asbasbasbag57
(g73
g59
NtRp2031
(dp2032
g62
(dp2033
sg71
g1941
sg64
(lp2034
g57
(g78
g59
NtRp2035
(dp2036
g62
(dp2037
g82
g83
ssg71
g2031
sg64
(lp2038
g963
asbag57
(g78
g59
NtRp2039
(dp2040
g62
(dp2041
g89
g90
ssg71
g2031
sg64
(lp2042
S':'
asbag57
(g78
g59
NtRp2043
(dp2044
g62
(dp2045
sg71
g2031
sg64
(lp2046
g57
(g58
g59
NtRp2047
(dp2048
g62
(dp2049
g70
I4
ssg71
g2043
sg64
(lp2050
S'set([])'
p2051
asbasbasbag57
(g73
g59
NtRp2052
(dp2053
g62
(dp2054
sg71
g1941
sg64
(lp2055
g57
(g78
g59
NtRp2056
(dp2057
g62
(dp2058
g82
g83
ssg71
g2052
sg64
(lp2059
g985
asbag57
(g78
g59
NtRp2060
(dp2061
g62
(dp2062
g89
g90
ssg71
g2052
sg64
(lp2063
S':'
asbag57
(g78
g59
NtRp2064
(dp2065
g62
(dp2066
sg71
g2052
sg64
(lp2067
g57
(g58
g59
NtRp2068
(dp2069
g62
(dp2070
g70
I4
ssg71
g2064
sg64
(lp2071
g100
asbasbasbag57
(g73
g59
NtRp2072
(dp2073
g62
(dp2074
sg71
g1941
sg64
(lp2075
g57
(g78
g59
NtRp2076
(dp2077
g62
(dp2078
g82
g83
ssg71
g2072
sg64
(lp2079
g1006
asbag57
(g78
g59
NtRp2080
(dp2081
g62
(dp2082
g89
g90
ssg71
g2072
sg64
(lp2083
S':'
asbag57
(g78
g59
NtRp2084
(dp2085
g62
(dp2086
sg71
g2072
sg64
(lp2087
g57
(g58
g59
NtRp2088
(dp2089
g62
(dp2090
g70
I4
ssg71
g2084
sg64
(lp2091
g1019
asbasbasbag57
(g73
g59
NtRp2092
(dp2093
g62
(dp2094
sg71
g1941
sg64
(lp2095
g57
(g78
g59
NtRp2096
(dp2097
g62
(dp2098
g82
g83
ssg71
g2092
sg64
(lp2099
g1226
asbag57
(g78
g59
NtRp2100
(dp2101
g62
(dp2102
g89
g90
ssg71
g2092
sg64
(lp2103
S':'
asbag57
(g78
g59
NtRp2104
(dp2105
g62
(dp2106
sg71
g2092
sg64
(lp2107
g57
(g58
g59
NtRp2108
(dp2109
g62
(dp2110
g70
I4
ssg71
g2104
sg64
(lp2111
g100
asbasbasbag57
(g73
g59
NtRp2112
(dp2113
g62
(dp2114
sg71
g1941
sg64
(lp2115
g57
(g78
g59
NtRp2116
(dp2117
g62
(dp2118
g82
g83
ssg71
g2112
sg64
(lp2119
g1247
asbag57
(g78
g59
NtRp2120
(dp2121
g62
(dp2122
g89
g90
ssg71
g2112
sg64
(lp2123
S':'
asbag57
(g78
g59
NtRp2124
(dp2125
g62
(dp2126
sg71
g2112
sg64
(lp2127
g57
(g58
g59
NtRp2128
(dp2129
g62
(dp2130
g70
I4
ssg71
g2124
sg64
(lp2131
g100
asbasbasbag57
(g73
g59
NtRp2132
(dp2133
g62
(dp2134
sg71
g1941
sg64
(lp2135
g57
(g78
g59
NtRp2136
(dp2137
g62
(dp2138
g82
g83
ssg71
g2132
sg64
(lp2139
g1506
asbag57
(g78
g59
NtRp2140
(dp2141
g62
(dp2142
g89
g90
ssg71
g2132
sg64
(lp2143
S':'
asbag57
(g78
g59
NtRp2144
(dp2145
g62
(dp2146
sg71
g2132
sg64
(lp2147
g57
(g58
g59
NtRp2148
(dp2149
g62
(dp2150
g70
I4
ssg71
g2144
sg64
(lp2151
g1519
asbasbasbag57
(g73
g59
NtRp2152
(dp2153
g62
(dp2154
sg71
g1941
sg64
(lp2155
g57
(g78
g59
NtRp2156
(dp2157
g62
(dp2158
g82
g83
ssg71
g2152
sg64
(lp2159
g1549
asbag57
(g78
g59
NtRp2160
(dp2161
g62
(dp2162
g89
g90
ssg71
g2152
sg64
(lp2163
S':'
asbag57
(g78
g59
NtRp2164
(dp2165
g62
(dp2166
sg71
g2152
sg64
(lp2167
g57
(g58
g59
NtRp2168
(dp2169
g62
(dp2170
g70
I4
ssg71
g2164
sg64
(lp2171
g57
(g66
g59
NtRp2172
(dp2173
g62
(dp2174
g70
I3
ssg71
Nsg64
(lp2175
g57
(g73
g59
NtRp2176
(dp2177
g62
(dp2178
sg71
g2172
sg64
(lp2179
g57
(g78
g59
NtRp2180
(dp2181
g62
(dp2182
sg71
g2176
sg64
(lp2183
g57
(g58
g59
NtRp2184
(dp2185
g62
(dp2186
g70
I3
ssg71
g2180
sg64
(lp2187
S'2'
asbasbasbag57
(g73
g59
NtRp2188
(dp2189
g62
(dp2190
sg71
g2172
sg64
(lp2191
g57
(g78
g59
NtRp2192
(dp2193
g62
(dp2194
sg71
g2188
sg64
(lp2195
g57
(g58
g59
NtRp2196
(dp2197
g62
(dp2198
g70
I3
ssg71
g2192
sg64
(lp2199
S'0'
asbasbasbag57
(g73
g59
NtRp2200
(dp2201
g62
(dp2202
sg71
g2172
sg64
(lp2203
g57
(g78
g59
NtRp2204
(dp2205
g62
(dp2206
sg71
g2200
sg64
(lp2207
g57
(g58
g59
NtRp2208
(dp2209
g62
(dp2210
g70
I3
ssg71
g2204
sg64
(lp2211
S'9'
asbasbasbag57
(g73
g59
NtRp2212
(dp2213
g62
(dp2214
sg71
g2172
sg64
(lp2215
g57
(g78
g59
NtRp2216
(dp2217
g62
(dp2218
sg71
g2212
sg64
(lp2219
g57
(g58
g59
NtRp2220
(dp2221
g62
(dp2222
g70
I3
ssg71
g2216
sg64
(lp2223
S'datetime.datetime(2012, 9, 13, 23, 51, 30)'
p2224
asbasbasbag57
(g73
g59
NtRp2225
(dp2226
g62
(dp2227
sg71
g2172
sg64
(lp2228
g57
(g78
g59
NtRp2229
(dp2230
g62
(dp2231
sg71
g2225
sg64
(lp2232
g57
(g58
g59
NtRp2233
(dp2234
g62
(dp2235
g70
I3
ssg71
g2229
sg64
(lp2236
g1627
asbasbasbasbasbasbasbasbasbasbasbag57
(g73
g59
NtRp2237
(dp2238
g62
(dp2239
sg71
g67
sg64
(lp2240
g57
(g78
g59
NtRp2241
(dp2242
g62
(dp2243
g82
g83
ssg71
g2237
sg64
(lp2244
S'is_https'
p2245
asbag57
(g78
g59
NtRp2246
(dp2247
g62
(dp2248
g89
g90
ssg71
g2237
sg64
(lp2249
S':'
asbag57
(g78
g59
NtRp2250
(dp2251
g62
(dp2252
sg71
g2237
sg64
(lp2253
g57
(g58
g59
NtRp2254
(dp2255
g62
(dp2256
g70
I5
ssg71
g2250
sg64
(lp2257
g100
asbasbasbag57
(g73
g59
NtRp2258
(dp2259
g62
(dp2260
sg71
g67
sg64
(lp2261
g57
(g78
g59
NtRp2262
(dp2263
g62
(dp2264
g82
g83
ssg71
g2258
sg64
(lp2265
S'is_local'
p2266
asbag57
(g78
g59
NtRp2267
(dp2268
g62
(dp2269
g89
g90
ssg71
g2258
sg64
(lp2270
S':'
asbag57
(g78
g59
NtRp2271
(dp2272
g62
(dp2273
sg71
g2258
sg64
(lp2274
g57
(g58
g59
NtRp2275
(dp2276
g62
(dp2277
g70
I5
ssg71
g2271
sg64
(lp2278
g1736
asbasbasbag57
(g73
g59
NtRp2279
(dp2280
g62
(dp2281
sg71
g67
sg64
(lp2282
g57
(g78
g59
NtRp2283
(dp2284
g62
(dp2285
g82
g83
ssg71
g2279
sg64
(lp2286
S'is_restful'
p2287
asbag57
(g78
g59
NtRp2288
(dp2289
g62
(dp2290
g89
g90
ssg71
g2279
sg64
(lp2291
S':'
asbag57
(g78
g59
NtRp2292
(dp2293
g62
(dp2294
sg71
g2279
sg64
(lp2295
g57
(g58
g59
NtRp2296
(dp2297
g62
(dp2298
g70
I5
ssg71
g2292
sg64
(lp2299
g100
asbasbasbag57
(g73
g59
NtRp2300
(dp2301
g62
(dp2302
sg71
g67
sg64
(lp2303
g57
(g78
g59
NtRp2304
(dp2305
g62
(dp2306
g82
g83
ssg71
g2300
sg64
(lp2307
S'now'
p2308
asbag57
(g78
g59
NtRp2309
(dp2310
g62
(dp2311
g89
g90
ssg71
g2300
sg64
(lp2312
S':'
asbag57
(g78
g59
NtRp2313
(dp2314
g62
(dp2315
sg71
g2300
sg64
(lp2316
g57
(g58
g59
NtRp2317
(dp2318
g62
(dp2319
g70
I5
ssg71
g2313
sg64
(lp2320
S'datetime.datetime(2012, 10, 11, 9, 32, 52, 645443)'
p2321
asbasbasbag57
(g73
g59
NtRp2322
(dp2323
g62
(dp2324
sg71
g67
sg64
(lp2325
g57
(g78
g59
NtRp2326
(dp2327
g62
(dp2328
g82
g83
ssg71
g2322
sg64
(lp2329
S'post_vars'
p2330
asbag57
(g78
g59
NtRp2331
(dp2332
g62
(dp2333
g89
g90
ssg71
g2322
sg64
(lp2334
S':'
asbag57
(g78
g59
NtRp2335
(dp2336
g62
(dp2337
sg71
g2322
sg64
(lp2338
g57
(g58
g59
NtRp2339
(dp2340
g62
(dp2341
g70
I5
ssg71
g2335
sg64
(lp2342
g57
(g66
g59
NtRp2343
(dp2344
g62
(dp2345
g70
I4
ssg71
Nsg64
(lp2346
sbasbasbasbag57
(g73
g59
NtRp2347
(dp2348
g62
(dp2349
sg71
g67
sg64
(lp2350
g57
(g78
g59
NtRp2351
(dp2352
g62
(dp2353
g82
g83
ssg71
g2347
sg64
(lp2354
S'raw_args'
p2355
asbag57
(g78
g59
NtRp2356
(dp2357
g62
(dp2358
g89
g90
ssg71
g2347
sg64
(lp2359
S':'
asbag57
(g78
g59
NtRp2360
(dp2361
g62
(dp2362
sg71
g2347
sg64
(lp2363
g57
(g58
g59
NtRp2364
(dp2365
g62
(dp2366
g70
I5
ssg71
g2360
sg64
(lp2367
g159
asbasbasbag57
(g73
g59
NtRp2368
(dp2369
g62
(dp2370
sg71
g67
sg64
(lp2371
g57
(g78
g59
NtRp2372
(dp2373
g62
(dp2374
g82
g83
ssg71
g2368
sg64
(lp2375
S'raw_extension'
p2376
asbag57
(g78
g59
NtRp2377
(dp2378
g62
(dp2379
g89
g90
ssg71
g2368
sg64
(lp2380
S':'
asbag57
(g78
g59
NtRp2381
(dp2382
g62
(dp2383
sg71
g2368
sg64
(lp2384
g57
(g58
g59
NtRp2385
(dp2386
g62
(dp2387
g70
I5
ssg71
g2381
sg64
(lp2388
S'None'
p2389
asbasbasbag57
(g73
g59
NtRp2390
(dp2391
g62
(dp2392
sg71
g67
sg64
(lp2393
g57
(g78
g59
NtRp2394
(dp2395
g62
(dp2396
g82
g83
ssg71
g2390
sg64
(lp2397
S'url'
p2398
asbag57
(g78
g59
NtRp2399
(dp2400
g62
(dp2401
g89
g90
ssg71
g2390
sg64
(lp2402
S':'
asbag57
(g78
g59
NtRp2403
(dp2404
g62
(dp2405
sg71
g2390
sg64
(lp2406
g57
(g58
g59
NtRp2407
(dp2408
g62
(dp2409
g70
I5
ssg71
g2403
sg64
(lp2410
g1281
asbasbasbag57
(g73
g59
NtRp2411
(dp2412
g62
(dp2413
sg71
g67
sg64
(lp2414
g57
(g78
g59
NtRp2415
(dp2416
g62
(dp2417
g82
g83
ssg71
g2411
sg64
(lp2418
S'utcnow'
p2419
asbag57
(g78
g59
NtRp2420
(dp2421
g62
(dp2422
g89
g90
ssg71
g2411
sg64
(lp2423
S':'
asbag57
(g78
g59
NtRp2424
(dp2425
g62
(dp2426
sg71
g2411
sg64
(lp2427
g57
(g58
g59
NtRp2428
(dp2429
g62
(dp2430
g70
I5
ssg71
g2424
sg64
(lp2431
S'datetime.datetime(2012, 10, 11, 14, 2, 52, 645486)'
p2432
asbasbasbag57
(g73
g59
NtRp2433
(dp2434
g62
(dp2435
sg71
g67
sg64
(lp2436
g57
(g78
g59
NtRp2437
(dp2438
g62
(dp2439
g82
g83
ssg71
g2433
sg64
(lp2440
S'uuid'
p2441
asbag57
(g78
g59
NtRp2442
(dp2443
g62
(dp2444
g89
g90
ssg71
g2433
sg64
(lp2445
S':'
asbag57
(g78
g59
NtRp2446
(dp2447
g62
(dp2448
sg71
g2433
sg64
(lp2449
g57
(g58
g59
NtRp2450
(dp2451
g62
(dp2452
g70
I5
ssg71
g2446
sg64
(lp2453
S'sicoin/127.0.0.1.2012-10-11.09-32-52.5967de54-6f2d-487b-81a5-f261107c5fdc'
p2454
asbasbasbag57
(g73
g59
NtRp2455
(dp2456
g62
(dp2457
sg71
g67
sg64
(lp2458
g57
(g78
g59
NtRp2459
(dp2460
g62
(dp2461
g82
g83
ssg71
g2455
sg64
(lp2462
S'vars'
p2463
asbag57
(g78
g59
NtRp2464
(dp2465
g62
(dp2466
g89
g90
ssg71
g2455
sg64
(lp2467
S':'
asbag57
(g78
g59
NtRp2468
(dp2469
g62
(dp2470
sg71
g2455
sg64
(lp2471
g57
(g58
g59
NtRp2472
(dp2473
g62
(dp2474
g70
I5
ssg71
g2468
sg64
(lp2475
g57
(g66
g59
NtRp2476
(dp2477
g62
(dp2478
g70
I4
ssg71
Nsg64
(lp2479
sbasbasbasbag57
(g73
g59
NtRp2480
(dp2481
g62
(dp2482
sg71
g67
sg64
(lp2483
g57
(g78
g59
NtRp2484
(dp2485
g62
(dp2486
g82
g83
ssg71
g2480
sg64
(lp2487
S'wsgi'
p2488
asbag57
(g78
g59
NtRp2489
(dp2490
g62
(dp2491
g89
g90
ssg71
g2480
sg64
(lp2492
S':'
asbag57
(g78
g59
NtRp2493
(dp2494
g62
(dp2495
sg71
g2480
sg64
(lp2496
g57
(g58
g59
NtRp2497
(dp2498
g62
(dp2499
g70
I5
ssg71
g2493
sg64
(lp2500
g57
(g66
g59
NtRp2501
(dp2502
g62
(dp2503
g70
I4
ssg71
Nsg64
(lp2504
g57
(g73
g59
NtRp2505
(dp2506
g62
(dp2507
sg71
g2501
sg64
(lp2508
g57
(g78
g59
NtRp2509
(dp2510
g62
(dp2511
g82
g83
ssg71
g2505
sg64
(lp2512
S'environ'
p2513
asbag57
(g78
g59
NtRp2514
(dp2515
g62
(dp2516
g89
g90
ssg71
g2505
sg64
(lp2517
S':'
asbag57
(g78
g59
NtRp2518
(dp2519
g62
(dp2520
sg71
g2505
sg64
(lp2521
g57
(g58
g59
NtRp2522
(dp2523
g62
(dp2524
g70
I4
ssg71
g2518
sg64
(lp2525
g57
(g66
g59
NtRp2526
(dp2527
g62
(dp2528
g70
I3
ssg71
Nsg64
(lp2529
g57
(g73
g59
NtRp2530
(dp2531
g62
(dp2532
sg71
g2526
sg64
(lp2533
g57
(g78
g59
NtRp2534
(dp2535
g62
(dp2536
g82
g83
ssg71
g2530
sg64
(lp2537
S'HTTP_ACCEPT'
p2538
asbag57
(g78
g59
NtRp2539
(dp2540
g62
(dp2541
g89
g90
ssg71
g2530
sg64
(lp2542
S':'
asbag57
(g78
g59
NtRp2543
(dp2544
g62
(dp2545
sg71
g2530
sg64
(lp2546
g57
(g58
g59
NtRp2547
(dp2548
g62
(dp2549
g70
I3
ssg71
g2543
sg64
(lp2550
g1041
asbasbasbag57
(g73
g59
NtRp2551
(dp2552
g62
(dp2553
sg71
g2526
sg64
(lp2554
g57
(g78
g59
NtRp2555
(dp2556
g62
(dp2557
g82
g83
ssg71
g2551
sg64
(lp2558
S'HTTP_ACCEPT_CHARSET'
p2559
asbag57
(g78
g59
NtRp2560
(dp2561
g62
(dp2562
g89
g90
ssg71
g2551
sg64
(lp2563
S':'
asbag57
(g78
g59
NtRp2564
(dp2565
g62
(dp2566
sg71
g2551
sg64
(lp2567
g57
(g58
g59
NtRp2568
(dp2569
g62
(dp2570
g70
I3
ssg71
g2564
sg64
(lp2571
g1063
asbasbasbag57
(g73
g59
NtRp2572
(dp2573
g62
(dp2574
sg71
g2526
sg64
(lp2575
g57
(g78
g59
NtRp2576
(dp2577
g62
(dp2578
g82
g83
ssg71
g2572
sg64
(lp2579
S'HTTP_ACCEPT_ENCODING'
p2580
asbag57
(g78
g59
NtRp2581
(dp2582
g62
(dp2583
g89
g90
ssg71
g2572
sg64
(lp2584
S':'
asbag57
(g78
g59
NtRp2585
(dp2586
g62
(dp2587
sg71
g2572
sg64
(lp2588
g57
(g58
g59
NtRp2589
(dp2590
g62
(dp2591
g70
I3
ssg71
g2585
sg64
(lp2592
g1085
asbasbasbag57
(g73
g59
NtRp2593
(dp2594
g62
(dp2595
sg71
g2526
sg64
(lp2596
g57
(g78
g59
NtRp2597
(dp2598
g62
(dp2599
g82
g83
ssg71
g2593
sg64
(lp2600
S'HTTP_ACCEPT_LANGUAGE'
p2601
asbag57
(g78
g59
NtRp2602
(dp2603
g62
(dp2604
g89
g90
ssg71
g2593
sg64
(lp2605
S':'
asbag57
(g78
g59
NtRp2606
(dp2607
g62
(dp2608
sg71
g2593
sg64
(lp2609
g57
(g58
g59
NtRp2610
(dp2611
g62
(dp2612
g70
I3
ssg71
g2606
sg64
(lp2613
g1107
asbasbasbag57
(g73
g59
NtRp2614
(dp2615
g62
(dp2616
sg71
g2526
sg64
(lp2617
g57
(g78
g59
NtRp2618
(dp2619
g62
(dp2620
g82
g83
ssg71
g2614
sg64
(lp2621
S'HTTP_CONNECTION'
p2622
asbag57
(g78
g59
NtRp2623
(dp2624
g62
(dp2625
g89
g90
ssg71
g2614
sg64
(lp2626
S':'
asbag57
(g78
g59
NtRp2627
(dp2628
g62
(dp2629
sg71
g2614
sg64
(lp2630
g57
(g58
g59
NtRp2631
(dp2632
g62
(dp2633
g70
I3
ssg71
g2627
sg64
(lp2634
g1129
asbasbasbag57
(g73
g59
NtRp2635
(dp2636
g62
(dp2637
sg71
g2526
sg64
(lp2638
g57
(g78
g59
NtRp2639
(dp2640
g62
(dp2641
g82
g83
ssg71
g2635
sg64
(lp2642
S'HTTP_COOKIE'
p2643
asbag57
(g78
g59
NtRp2644
(dp2645
g62
(dp2646
g89
g90
ssg71
g2635
sg64
(lp2647
S':'
asbag57
(g78
g59
NtRp2648
(dp2649
g62
(dp2650
sg71
g2635
sg64
(lp2651
g57
(g58
g59
NtRp2652
(dp2653
g62
(dp2654
g70
I3
ssg71
g2648
sg64
(lp2655
g1151
asbasbasbag57
(g73
g59
NtRp2656
(dp2657
g62
(dp2658
sg71
g2526
sg64
(lp2659
g57
(g78
g59
NtRp2660
(dp2661
g62
(dp2662
g82
g83
ssg71
g2656
sg64
(lp2663
S'HTTP_HOST'
p2664
asbag57
(g78
g59
NtRp2665
(dp2666
g62
(dp2667
g89
g90
ssg71
g2656
sg64
(lp2668
S':'
asbag57
(g78
g59
NtRp2669
(dp2670
g62
(dp2671
sg71
g2656
sg64
(lp2672
g57
(g58
g59
NtRp2673
(dp2674
g62
(dp2675
g70
I3
ssg71
g2669
sg64
(lp2676
g1173
asbasbasbag57
(g73
g59
NtRp2677
(dp2678
g62
(dp2679
sg71
g2526
sg64
(lp2680
g57
(g78
g59
NtRp2681
(dp2682
g62
(dp2683
g82
g83
ssg71
g2677
sg64
(lp2684
S'HTTP_REFERER'
p2685
asbag57
(g78
g59
NtRp2686
(dp2687
g62
(dp2688
g89
g90
ssg71
g2677
sg64
(lp2689
S':'
asbag57
(g78
g59
NtRp2690
(dp2691
g62
(dp2692
sg71
g2677
sg64
(lp2693
g57
(g58
g59
NtRp2694
(dp2695
g62
(dp2696
g70
I3
ssg71
g2690
sg64
(lp2697
g1195
asbasbasbag57
(g73
g59
NtRp2698
(dp2699
g62
(dp2700
sg71
g2526
sg64
(lp2701
g57
(g78
g59
NtRp2702
(dp2703
g62
(dp2704
g82
g83
ssg71
g2698
sg64
(lp2705
S'HTTP_USER_AGENT'
p2706
asbag57
(g78
g59
NtRp2707
(dp2708
g62
(dp2709
g89
g90
ssg71
g2698
sg64
(lp2710
S':'
asbag57
(g78
g59
NtRp2711
(dp2712
g62
(dp2713
sg71
g2698
sg64
(lp2714
g57
(g58
g59
NtRp2715
(dp2716
g62
(dp2717
g70
I3
ssg71
g2711
sg64
(lp2718
g1217
asbasbasbag57
(g73
g59
NtRp2719
(dp2720
g62
(dp2721
sg71
g2526
sg64
(lp2722
g57
(g78
g59
NtRp2723
(dp2724
g62
(dp2725
g82
g83
ssg71
g2719
sg64
(lp2726
S'PATH_INFO'
p2727
asbag57
(g78
g59
NtRp2728
(dp2729
g62
(dp2730
g89
g90
ssg71
g2719
sg64
(lp2731
S':'
asbag57
(g78
g59
NtRp2732
(dp2733
g62
(dp2734
sg71
g2719
sg64
(lp2735
g57
(g58
g59
NtRp2736
(dp2737
g62
(dp2738
g70
I3
ssg71
g2732
sg64
(lp2739
g1281
asbasbasbag57
(g73
g59
NtRp2740
(dp2741
g62
(dp2742
sg71
g2526
sg64
(lp2743
g57
(g78
g59
NtRp2744
(dp2745
g62
(dp2746
g82
g83
ssg71
g2740
sg64
(lp2747
S'QUERY_STRING'
p2748
asbag57
(g78
g59
NtRp2749
(dp2750
g62
(dp2751
g89
g90
ssg71
g2740
sg64
(lp2752
S':'
asbag57
(g78
g59
NtRp2753
(dp2754
g62
(dp2755
sg71
g2740
sg64
(lp2756
g57
(g58
g59
NtRp2757
(dp2758
g62
(dp2759
g70
I3
ssg71
g2753
sg64
(lp2760
S''
asbasbasbag57
(g73
g59
NtRp2761
(dp2762
g62
(dp2763
sg71
g2526
sg64
(lp2764
g57
(g78
g59
NtRp2765
(dp2766
g62
(dp2767
g82
g83
ssg71
g2761
sg64
(lp2768
S'REMOTE_ADDR'
p2769
asbag57
(g78
g59
NtRp2770
(dp2771
g62
(dp2772
g89
g90
ssg71
g2761
sg64
(lp2773
S':'
asbag57
(g78
g59
NtRp2774
(dp2775
g62
(dp2776
sg71
g2761
sg64
(lp2777
g57
(g58
g59
NtRp2778
(dp2779
g62
(dp2780
g70
I3
ssg71
g2774
sg64
(lp2781
g225
asbasbasbag57
(g73
g59
NtRp2782
(dp2783
g62
(dp2784
sg71
g2526
sg64
(lp2785
g57
(g78
g59
NtRp2786
(dp2787
g62
(dp2788
g82
g83
ssg71
g2782
sg64
(lp2789
S'REMOTE_PORT'
p2790
asbag57
(g78
g59
NtRp2791
(dp2792
g62
(dp2793
g89
g90
ssg71
g2782
sg64
(lp2794
S':'
asbag57
(g78
g59
NtRp2795
(dp2796
g62
(dp2797
sg71
g2782
sg64
(lp2798
g57
(g58
g59
NtRp2799
(dp2800
g62
(dp2801
g70
I3
ssg71
g2795
sg64
(lp2802
g1345
asbasbasbag57
(g73
g59
NtRp2803
(dp2804
g62
(dp2805
sg71
g2526
sg64
(lp2806
g57
(g78
g59
NtRp2807
(dp2808
g62
(dp2809
g82
g83
ssg71
g2803
sg64
(lp2810
S'REQUEST_METHOD'
p2811
asbag57
(g78
g59
NtRp2812
(dp2813
g62
(dp2814
g89
g90
ssg71
g2803
sg64
(lp2815
S':'
asbag57
(g78
g59
NtRp2816
(dp2817
g62
(dp2818
sg71
g2803
sg64
(lp2819
g57
(g58
g59
NtRp2820
(dp2821
g62
(dp2822
g70
I3
ssg71
g2816
sg64
(lp2823
g1367
asbasbasbag57
(g73
g59
NtRp2824
(dp2825
g62
(dp2826
sg71
g2526
sg64
(lp2827
g57
(g78
g59
NtRp2828
(dp2829
g62
(dp2830
g82
g83
ssg71
g2824
sg64
(lp2831
S'REQUEST_URI'
p2832
asbag57
(g78
g59
NtRp2833
(dp2834
g62
(dp2835
g89
g90
ssg71
g2824
sg64
(lp2836
S':'
asbag57
(g78
g59
NtRp2837
(dp2838
g62
(dp2839
sg71
g2824
sg64
(lp2840
g57
(g58
g59
NtRp2841
(dp2842
g62
(dp2843
g70
I3
ssg71
g2837
sg64
(lp2844
g1281
asbasbasbag57
(g73
g59
NtRp2845
(dp2846
g62
(dp2847
sg71
g2526
sg64
(lp2848
g57
(g78
g59
NtRp2849
(dp2850
g62
(dp2851
g82
g83
ssg71
g2845
sg64
(lp2852
S'SCRIPT_NAME'
p2853
asbag57
(g78
g59
NtRp2854
(dp2855
g62
(dp2856
g89
g90
ssg71
g2845
sg64
(lp2857
S':'
asbag57
(g78
g59
NtRp2858
(dp2859
g62
(dp2860
sg71
g2845
sg64
(lp2861
g57
(g58
g59
NtRp2862
(dp2863
g62
(dp2864
g70
I3
ssg71
g2858
sg64
(lp2865
S''
asbasbasbag57
(g73
g59
NtRp2866
(dp2867
g62
(dp2868
sg71
g2526
sg64
(lp2869
g57
(g78
g59
NtRp2870
(dp2871
g62
(dp2872
g82
g83
ssg71
g2866
sg64
(lp2873
S'SERVER_NAME'
p2874
asbag57
(g78
g59
NtRp2875
(dp2876
g62
(dp2877
g89
g90
ssg71
g2866
sg64
(lp2878
S':'
asbag57
(g78
g59
NtRp2879
(dp2880
g62
(dp2881
sg71
g2866
sg64
(lp2882
g57
(g58
g59
NtRp2883
(dp2884
g62
(dp2885
g70
I3
ssg71
g2879
sg64
(lp2886
g1431
asbasbasbag57
(g73
g59
NtRp2887
(dp2888
g62
(dp2889
sg71
g2526
sg64
(lp2890
g57
(g78
g59
NtRp2891
(dp2892
g62
(dp2893
g82
g83
ssg71
g2887
sg64
(lp2894
S'SERVER_PORT'
p2895
asbag57
(g78
g59
NtRp2896
(dp2897
g62
(dp2898
g89
g90
ssg71
g2887
sg64
(lp2899
S':'
asbag57
(g78
g59
NtRp2900
(dp2901
g62
(dp2902
sg71
g2887
sg64
(lp2903
g57
(g58
g59
NtRp2904
(dp2905
g62
(dp2906
g70
I3
ssg71
g2900
sg64
(lp2907
g1453
asbasbasbag57
(g73
g59
NtRp2908
(dp2909
g62
(dp2910
sg71
g2526
sg64
(lp2911
g57
(g78
g59
NtRp2912
(dp2913
g62
(dp2914
g82
g83
ssg71
g2908
sg64
(lp2915
S'SERVER_PROTOCOL'
p2916
asbag57
(g78
g59
NtRp2917
(dp2918
g62
(dp2919
g89
g90
ssg71
g2908
sg64
(lp2920
S':'
asbag57
(g78
g59
NtRp2921
(dp2922
g62
(dp2923
sg71
g2908
sg64
(lp2924
g57
(g58
g59
NtRp2925
(dp2926
g62
(dp2927
g70
I3
ssg71
g2921
sg64
(lp2928
g1475
asbasbasbag57
(g73
g59
NtRp2929
(dp2930
g62
(dp2931
sg71
g2526
sg64
(lp2932
g57
(g78
g59
NtRp2933
(dp2934
g62
(dp2935
g82
g83
ssg71
g2929
sg64
(lp2936
S'SERVER_SOFTWARE'
p2937
asbag57
(g78
g59
NtRp2938
(dp2939
g62
(dp2940
g89
g90
ssg71
g2929
sg64
(lp2941
S':'
asbag57
(g78
g59
NtRp2942
(dp2943
g62
(dp2944
sg71
g2929
sg64
(lp2945
g57
(g58
g59
NtRp2946
(dp2947
g62
(dp2948
g70
I3
ssg71
g2942
sg64
(lp2949
g1497
asbasbasbag57
(g73
g59
NtRp2950
(dp2951
g62
(dp2952
sg71
g2526
sg64
(lp2953
g57
(g78
g59
NtRp2954
(dp2955
g62
(dp2956
g82
g83
ssg71
g2950
sg64
(lp2957
S'wsgi.errors'
p2958
asbag57
(g78
g59
NtRp2959
(dp2960
g62
(dp2961
g89
g90
ssg71
g2950
sg64
(lp2962
S':'
asbag57
(g78
g59
NtRp2963
(dp2964
g62
(dp2965
sg71
g2950
sg64
(lp2966
g57
(g58
g59
NtRp2967
(dp2968
g62
(dp2969
g70
I3
ssg71
g2963
sg64
(lp2970
S"<open file '<stderr>', mode 'w' at 0xb77dc0d0>"
p2971
asbasbasbag57
(g73
g59
NtRp2972
(dp2973
g62
(dp2974
sg71
g2526
sg64
(lp2975
g57
(g78
g59
NtRp2976
(dp2977
g62
(dp2978
g82
g83
ssg71
g2972
sg64
(lp2979
S'wsgi.file_wrapper'
p2980
asbag57
(g78
g59
NtRp2981
(dp2982
g62
(dp2983
g89
g90
ssg71
g2972
sg64
(lp2984
S':'
asbag57
(g78
g59
NtRp2985
(dp2986
g62
(dp2987
sg71
g2972
sg64
(lp2988
g57
(g58
g59
NtRp2989
(dp2990
g62
(dp2991
g70
I3
ssg71
g2985
sg64
(lp2992
S'<class wsgiref.util.FileWrapper at 0x8e947ac>'
p2993
asbasbasbag57
(g73
g59
NtRp2994
(dp2995
g62
(dp2996
sg71
g2526
sg64
(lp2997
g57
(g78
g59
NtRp2998
(dp2999
g62
(dp3000
g82
g83
ssg71
g2994
sg64
(lp3001
S'wsgi.input'
p3002
asbag57
(g78
g59
NtRp3003
(dp3004
g62
(dp3005
g89
g90
ssg71
g2994
sg64
(lp3006
S':'
asbag57
(g78
g59
NtRp3007
(dp3008
g62
(dp3009
sg71
g2994
sg64
(lp3010
g57
(g58
g59
NtRp3011
(dp3012
g62
(dp3013
g70
I3
ssg71
g3007
sg64
(lp3014
S'<cStringIO.StringO object at 0xd1dcd40>'
p3015
asbasbasbag57
(g73
g59
NtRp3016
(dp3017
g62
(dp3018
sg71
g2526
sg64
(lp3019
g57
(g78
g59
NtRp3020
(dp3021
g62
(dp3022
g82
g83
ssg71
g3016
sg64
(lp3023
S'wsgi.multiprocess'
p3024
asbag57
(g78
g59
NtRp3025
(dp3026
g62
(dp3027
g89
g90
ssg71
g3016
sg64
(lp3028
S':'
asbag57
(g78
g59
NtRp3029
(dp3030
g62
(dp3031
sg71
g3016
sg64
(lp3032
g57
(g58
g59
NtRp3033
(dp3034
g62
(dp3035
g70
I3
ssg71
g3029
sg64
(lp3036
g100
asbasbasbag57
(g73
g59
NtRp3037
(dp3038
g62
(dp3039
sg71
g2526
sg64
(lp3040
g57
(g78
g59
NtRp3041
(dp3042
g62
(dp3043
g82
g83
ssg71
g3037
sg64
(lp3044
S'wsgi.multithread'
p3045
asbag57
(g78
g59
NtRp3046
(dp3047
g62
(dp3048
g89
g90
ssg71
g3037
sg64
(lp3049
S':'
asbag57
(g78
g59
NtRp3050
(dp3051
g62
(dp3052
sg71
g3037
sg64
(lp3053
g57
(g58
g59
NtRp3054
(dp3055
g62
(dp3056
g70
I3
ssg71
g3050
sg64
(lp3057
g1736
asbasbasbag57
(g73
g59
NtRp3058
(dp3059
g62
(dp3060
sg71
g2526
sg64
(lp3061
g57
(g78
g59
NtRp3062
(dp3063
g62
(dp3064
g82
g83
ssg71
g3058
sg64
(lp3065
S'wsgi.run_once'
p3066
asbag57
(g78
g59
NtRp3067
(dp3068
g62
(dp3069
g89
g90
ssg71
g3058
sg64
(lp3070
S':'
asbag57
(g78
g59
NtRp3071
(dp3072
g62
(dp3073
sg71
g3058
sg64
(lp3074
g57
(g58
g59
NtRp3075
(dp3076
g62
(dp3077
g70
I3
ssg71
g3071
sg64
(lp3078
g100
asbasbasbag57
(g73
g59
NtRp3079
(dp3080
g62
(dp3081
sg71
g2526
sg64
(lp3082
g57
(g78
g59
NtRp3083
(dp3084
g62
(dp3085
g82
g83
ssg71
g3079
sg64
(lp3086
S'wsgi.url_scheme'
p3087
asbag57
(g78
g59
NtRp3088
(dp3089
g62
(dp3090
g89
g90
ssg71
g3079
sg64
(lp3091
S':'
asbag57
(g78
g59
NtRp3092
(dp3093
g62
(dp3094
sg71
g3079
sg64
(lp3095
g57
(g58
g59
NtRp3096
(dp3097
g62
(dp3098
g70
I3
ssg71
g3092
sg64
(lp3099
g1779
asbasbasbag57
(g73
g59
NtRp3100
(dp3101
g62
(dp3102
sg71
g2526
sg64
(lp3103
g57
(g78
g59
NtRp3104
(dp3105
g62
(dp3106
g82
g83
ssg71
g3100
sg64
(lp3107
S'wsgi.version'
p3108
asbag57
(g78
g59
NtRp3109
(dp3110
g62
(dp3111
g89
g90
ssg71
g3100
sg64
(lp3112
S':'
asbag57
(g78
g59
NtRp3113
(dp3114
g62
(dp3115
sg71
g3100
sg64
(lp3116
g57
(g58
g59
NtRp3117
(dp3118
g62
(dp3119
g70
I3
ssg71
g3113
sg64
(lp3120
S'1'
asbasbasbasbasbasbasbasbasbasbasbasbasbsS'frames'
p3121
(lp3122
(dp3123
S'file'
p3124
S'/home/perdomor/web2py/gluon/restricted.py'
p3125
sS'dump'
p3126
(dp3127
S'environment'
p3128
S"{'A': <class 'gluon.html.A'>, 'Auth': <class 'gluon.tools.Auth'>, 'B': <class 'gluon.html.B'>, 'BEAUTIFY': <class 'gluon.html.BEAUTIFY'>, 'BODY': <class 'gluon.html.BODY'>, 'BR': <class 'gluon.html.BR'>, 'BUTTON': <class 'gluon.html.BUTTON'>, 'CAT': <class 'gluon.html.CAT'>, 'CENTER': <class 'gluon.html.CENTER'>, 'CLEANUP': <class 'gluon.validators.CLEANUP'>, ...}"
p3129
sS'ccode'
p3130
S'<code object <module> at 0xa17c848, file "/home/...ications/sicoin/views/default/user.html", line 1>'
p3131
ssS'lnum'
p3132
I209
sS'lines'
p3133
(dp3134
I204
S'    try:'
p3135
sI205
S'        if type(code) == types.CodeType:'
p3136
sI206
S'            ccode = code'
p3137
sI207
S'        else:'
p3138
sI208
S'            ccode = compile2(code,layer)'
p3139
sI209
S'        exec ccode in environment'
p3140
sI210
S'    except HTTP:'
p3141
sI211
S'        raise'
p3142
sI212
S'    except RestrictedError:'
p3143
sI213
S'        # do not encapsulate (obfuscate) the original RestrictedError'
p3144
ssS'call'
p3145
S'(code=\'response.write(\\\'<!DOCTYPE html>\\\\n<!-- paulirish...."></script>\\\\n</body>\\\\n</html>\\\\n\\\\n\\\', escape=False)\', environment={\'A\': <class \'gluon.html.A\'>, \'Auth\': <class \'gluon.tools.Auth\'>, \'B\': <class \'gluon.html.B\'>, \'BEAUTIFY\': <class \'gluon.html.BEAUTIFY\'>, \'BODY\': <class \'gluon.html.BODY\'>, \'BR\': <class \'gluon.html.BR\'>, \'BUTTON\': <class \'gluon.html.BUTTON\'>, \'CAT\': <class \'gluon.html.CAT\'>, \'CENTER\': <class \'gluon.html.CENTER\'>, \'CLEANUP\': <class \'gluon.validators.CLEANUP\'>, ...}, layer=\'/home/perdomor/web2py/applications/sicoin/views/default/user.html\')'
p3146
sS'func'
p3147
S'restricted'
p3148
sa(dp3149
g3124
S'/home/perdomor/web2py/applications/sicoin/views/default/user.html'
p3150
sg3126
(dp3151
sg3132
I55
sg3133
(dp3152
I64
S'response.write(\'\\n        </div><!--/.nav-collapse -->\\n      </div>\\n    </div>\\n  </div><!--/top navbar -->\\n\\n  <div class="container">\\n    <!-- Masthead ================================================== -->\\n    <header class="mastheader row" id="header">\\n        <div class="span12">\\n            <div class="page-header">\\n                <h1>\\n                    \', escape=False)'
p3153
sI65
S'response.write(response.title or request.application)'
p3154
sI46
S"right_sidebar_enabled = globals().get('right_sidebar_enabled',False)"
p3155
sI47
S"middle_columns = {0:'span12',1:'span9',2:'span6'}["
p3156
sI48
S'(left_sidebar_enabled and 1 or 0)+(right_sidebar_enabled and 1 or 0)]'
p3157
sI49
S'response.write(\'\\n\\n  <!-- uncomment here to load jquery-ui\\n       <link rel="stylesheet" href="http://ajax.googleapis.com/ajax/libs/jqueryui/1.8.16/themes/base/jquery-ui.css" type="text/css" media="all" />\\n       <script src="http://ajax.googleapis.com/ajax/libs/jqueryui/1.8.16/jquery-ui.min.js" type="text/javascript"></script>\\n       uncomment to load jquery-ui //-->\\n  <noscript><link href="\', escape=False)'
p3158
sI50
S"response.write(URL('static', 'css/web2py_bootstrap_nojs.css'))"
p3159
sI51
S'response.write(\'" rel="stylesheet" type="text/css" /></noscript>\\n  \', escape=False)'
p3160
sI52
S'response.write(\'\\n</head>\\n\\n<body>\\n  <!-- Navbar ================================================== -->\\n  <div class="navbar navbar-fixed-top">\\n    <div class="flash">\', escape=False)'
p3161
sI53
S"response.write(response.flash or '')"
p3162
sI54
S'response.write(\'</div>\\n    <div class="navbar-inner">\\n      <div class="container">\\n        <!-- the next tag is necessary for bootstrap menus, do not remove -->\\n        <a class="btn btn-navbar" data-toggle="collapse" data-target=".nav-collapse">\\n          <span class="icon-bar"></span>\\n          <span class="icon-bar"></span>\\n          <span class="icon-bar"></span>\\n        </a>\\n        <a class="brand" href="#">web2py&trade;&nbsp;</a>\\n        <ul id="navbar" class="nav pull-right">\', escape=False)'
p3163
sI55
S'response.write(\'auth\' in globals() and auth.navbar(mode="dropdown") or \'\')'
p3164
sI56
S'response.write(\'</ul>\\n        <div class="nav-collapse">\\n          \', escape=False)'
p3165
sI57
S'is_mobile=request.user_agent().is_mobile'
p3166
sI58
S"response.write('\\n          ', escape=False)"
p3167
sI59
S'if response.menu:'
p3168
sI60
S"    response.write('\\n          ', escape=False)"
p3169
sI61
S"    response.write(MENU(response.menu, _class='mobile-menu nav' if is_mobile else 'nav',mobile=is_mobile,li_class='dropdown',ul_class='dropdown-menu'))"
p3170
sI62
S"    response.write('\\n          ', escape=False)"
p3171
sI63
S'    pass'
p3172
ssg3145
S'()'
p3173
sg3147
S'<module>'
p3174
sa(dp3175
g3124
S'/home/perdomor/web2py/gluon/tools.py'
p3176
sg3126
(dp3177
S'user_identifier'
p3178
S"'%(first_name)s'"
p3179
sS'self.user'
p3180
S"<Row {'registration_id': '', 'password': 'pbkdf2...gistration_key': '', 'email': 'perdomor@ucv.ve'}>"
p3181
sS'self'
p3182
S'<gluon.tools.Auth object>'
p3183
ssg3132
I1239
sg3133
(dp3184
I1234
S'            if callable(user_identifier):'
p3185
sI1235
S'                user_identifier = user_identifier(self.user)'
p3186
sI1236
S'            elif ((isinstance(user_identifier, str) or'
p3187
sI1237
S"                  type(user_identifier).__name__ == 'lazyT') and"
p3188
sI1238
S"                  re.search(r'%\\(.+\\)s', user_identifier)):"
p3189
sI1239
S'                user_identifier = user_identifier % self.user'
p3190
sI1240
S'            if not user_identifier:'
p3191
sI1241
S"                user_identifier = ''"
p3192
sI1242
S"            logout = A(T('Logout'), _href='%s/logout?_next=%s' %"
p3193
sI1243
S'                      (action, urllib.quote(self.settings.logout_next)))'
p3194
ssg3145
S"(self=<gluon.tools.Auth object>, prefix='Bienvenidos ', action='/sicoin/default/user', separators=(' [ ', ' | ', ' ] '), user_identifier='%(first_name)s', referrer_actions=<function <lambda>>, mode='dropdown')"
p3195
sg3147
S'navbar'
p3196
sa(dp3197
g3124
S'/home/perdomor/web2py/gluon/dal.py'
p3198
sg3126
(dp3199
S'self'
p3200
S"<Row {'registration_id': '', 'password': 'pbkdf2...gistration_key': '', 'email': 'perdomor@ucv.ve'}>"
p3201
sS'global ogetattr'
p3202
S"<slot wrapper '__getattribute__' of 'object' objects>"
p3203
sS'key'
p3204
S"'first_name'"
p3205
ssg3132
I6431
sg3133
(dp3206
I6432
S''
sI6433
S'    def __setitem__(self, key, value):'
p3207
sI6434
S'        setattr(self, str(key), value)'
p3208
sI6435
S''
sI6426
S'        elif m:'
p3209
sI6427
S'            try:'
p3210
sI6428
S'                return ogetattr(self, m.group(1))[m.group(2)]'
p3211
sI6429
S'            except (KeyError,AttributeError,TypeError):'
p3212
sI6430
S'                key = m.group(2)'
p3213
sI6431
S'        return ogetattr(self, key)'
p3214
ssg3145
S"(self=<Row {'registration_id': '', 'password': 'pbkdf2...gistration_key': '', 'email': 'perdomor@ucv.ve'}>, key='first_name')"
p3215
sg3147
g20
sasS'pyver'
p3216
S'Python 2.7.2+: /usr/bin/python'
p3217
sS'session'
p3218
g57
(g58
g59
NtRp3219
(dp3220
g62
(dp3221
sg64
(lp3222
g57
(g66
g59
NtRp3223
(dp3224
g62
(dp3225
g70
I5
ssg71
Nsg64
(lp3226
g57
(g73
g59
NtRp3227
(dp3228
g62
(dp3229
sg71
g3223
sg64
(lp3230
g57
(g78
g59
NtRp3231
(dp3232
g62
(dp3233
g82
g83
ssg71
g3227
sg64
(lp3234
S'auth'
p3235
asbag57
(g78
g59
NtRp3236
(dp3237
g62
(dp3238
g89
g90
ssg71
g3227
sg64
(lp3239
S':'
asbag57
(g78
g59
NtRp3240
(dp3241
g62
(dp3242
sg71
g3227
sg64
(lp3243
g57
(g58
g59
NtRp3244
(dp3245
g62
(dp3246
g70
I5
ssg71
g3240
sg64
(lp3247
g57
(g66
g59
NtRp3248
(dp3249
g62
(dp3250
g70
I4
ssg71
Nsg64
(lp3251
g57
(g73
g59
NtRp3252
(dp3253
g62
(dp3254
sg71
g3248
sg64
(lp3255
g57
(g78
g59
NtRp3256
(dp3257
g62
(dp3258
g82
g83
ssg71
g3252
sg64
(lp3259
S'expiration'
p3260
asbag57
(g78
g59
NtRp3261
(dp3262
g62
(dp3263
g89
g90
ssg71
g3252
sg64
(lp3264
S':'
asbag57
(g78
g59
NtRp3265
(dp3266
g62
(dp3267
sg71
g3252
sg64
(lp3268
g57
(g58
g59
NtRp3269
(dp3270
g62
(dp3271
g70
I4
ssg71
g3265
sg64
(lp3272
S'3600'
p3273
asbasbasbag57
(g73
g59
NtRp3274
(dp3275
g62
(dp3276
sg71
g3248
sg64
(lp3277
g57
(g78
g59
NtRp3278
(dp3279
g62
(dp3280
g82
g83
ssg71
g3274
sg64
(lp3281
S'hmac_key'
p3282
asbag57
(g78
g59
NtRp3283
(dp3284
g62
(dp3285
g89
g90
ssg71
g3274
sg64
(lp3286
S':'
asbag57
(g78
g59
NtRp3287
(dp3288
g62
(dp3289
sg71
g3274
sg64
(lp3290
g57
(g58
g59
NtRp3291
(dp3292
g62
(dp3293
g70
I4
ssg71
g3287
sg64
(lp3294
S'5b25e7cf-340d-4bba-9817-f31b73894535'
p3295
asbasbasbag57
(g73
g59
NtRp3296
(dp3297
g62
(dp3298
sg71
g3248
sg64
(lp3299
g57
(g78
g59
NtRp3300
(dp3301
g62
(dp3302
g82
g83
ssg71
g3296
sg64
(lp3303
S'last_visit'
p3304
asbag57
(g78
g59
NtRp3305
(dp3306
g62
(dp3307
g89
g90
ssg71
g3296
sg64
(lp3308
S':'
asbag57
(g78
g59
NtRp3309
(dp3310
g62
(dp3311
sg71
g3296
sg64
(lp3312
g57
(g58
g59
NtRp3313
(dp3314
g62
(dp3315
g70
I4
ssg71
g3309
sg64
(lp3316
S'datetime.datetime(2012, 10, 11, 9, 32, 5, 832498)'
p3317
asbasbasbag57
(g73
g59
NtRp3318
(dp3319
g62
(dp3320
sg71
g3248
sg64
(lp3321
g57
(g78
g59
NtRp3322
(dp3323
g62
(dp3324
g82
g83
ssg71
g3318
sg64
(lp3325
S'remember'
p3326
asbag57
(g78
g59
NtRp3327
(dp3328
g62
(dp3329
g89
g90
ssg71
g3318
sg64
(lp3330
S':'
asbag57
(g78
g59
NtRp3331
(dp3332
g62
(dp3333
sg71
g3318
sg64
(lp3334
g57
(g58
g59
NtRp3335
(dp3336
g62
(dp3337
g70
I4
ssg71
g3331
sg64
(lp3338
g100
asbasbasbag57
(g73
g59
NtRp3339
(dp3340
g62
(dp3341
sg71
g3248
sg64
(lp3342
g57
(g78
g59
NtRp3343
(dp3344
g62
(dp3345
g82
g83
ssg71
g3339
sg64
(lp3346
S'user'
p3347
asbag57
(g78
g59
NtRp3348
(dp3349
g62
(dp3350
g89
g90
ssg71
g3339
sg64
(lp3351
S':'
asbag57
(g78
g59
NtRp3352
(dp3353
g62
(dp3354
sg71
g3339
sg64
(lp3355
g57
(g58
g59
NtRp3356
(dp3357
g62
(dp3358
g70
I4
ssg71
g3352
sg64
(lp3359
g57
(g66
g59
NtRp3360
(dp3361
g62
(dp3362
g70
I3
ssg71
Nsg64
(lp3363
g57
(g73
g59
NtRp3364
(dp3365
g62
(dp3366
sg71
g3360
sg64
(lp3367
g57
(g78
g59
NtRp3368
(dp3369
g62
(dp3370
g82
g83
ssg71
g3364
sg64
(lp3371
S'apellido'
p3372
asbag57
(g78
g59
NtRp3373
(dp3374
g62
(dp3375
g89
g90
ssg71
g3364
sg64
(lp3376
S':'
asbag57
(g78
g59
NtRp3377
(dp3378
g62
(dp3379
sg71
g3364
sg64
(lp3380
g57
(g58
g59
NtRp3381
(dp3382
g62
(dp3383
g70
I3
ssg71
g3377
sg64
(lp3384
S'None'
p3385
asbasbasbag57
(g73
g59
NtRp3386
(dp3387
g62
(dp3388
sg71
g3360
sg64
(lp3389
g57
(g78
g59
NtRp3390
(dp3391
g62
(dp3392
g82
g83
ssg71
g3386
sg64
(lp3393
S'departamento'
p3394
asbag57
(g78
g59
NtRp3395
(dp3396
g62
(dp3397
g89
g90
ssg71
g3386
sg64
(lp3398
S':'
asbag57
(g78
g59
NtRp3399
(dp3400
g62
(dp3401
sg71
g3386
sg64
(lp3402
g57
(g58
g59
NtRp3403
(dp3404
g62
(dp3405
g70
I3
ssg71
g3399
sg64
(lp3406
S'None'
p3407
asbasbasbag57
(g73
g59
NtRp3408
(dp3409
g62
(dp3410
sg71
g3360
sg64
(lp3411
g57
(g78
g59
NtRp3412
(dp3413
g62
(dp3414
g82
g83
ssg71
g3408
sg64
(lp3415
S'email'
p3416
asbag57
(g78
g59
NtRp3417
(dp3418
g62
(dp3419
g89
g90
ssg71
g3408
sg64
(lp3420
S':'
asbag57
(g78
g59
NtRp3421
(dp3422
g62
(dp3423
sg71
g3408
sg64
(lp3424
g57
(g58
g59
NtRp3425
(dp3426
g62
(dp3427
g70
I3
ssg71
g3421
sg64
(lp3428
S'perdomor@ucv.ve'
p3429
asbasbasbag57
(g73
g59
NtRp3430
(dp3431
g62
(dp3432
sg71
g3360
sg64
(lp3433
g57
(g78
g59
NtRp3434
(dp3435
g62
(dp3436
g82
g83
ssg71
g3430
sg64
(lp3437
S'id'
p3438
asbag57
(g78
g59
NtRp3439
(dp3440
g62
(dp3441
g89
g90
ssg71
g3430
sg64
(lp3442
S':'
asbag57
(g78
g59
NtRp3443
(dp3444
g62
(dp3445
sg71
g3430
sg64
(lp3446
g57
(g58
g59
NtRp3447
(dp3448
g62
(dp3449
g70
I3
ssg71
g3443
sg64
(lp3450
S'11'
p3451
asbasbasbag57
(g73
g59
NtRp3452
(dp3453
g62
(dp3454
sg71
g3360
sg64
(lp3455
g57
(g78
g59
NtRp3456
(dp3457
g62
(dp3458
g82
g83
ssg71
g3452
sg64
(lp3459
S'nombre'
p3460
asbag57
(g78
g59
NtRp3461
(dp3462
g62
(dp3463
g89
g90
ssg71
g3452
sg64
(lp3464
S':'
asbag57
(g78
g59
NtRp3465
(dp3466
g62
(dp3467
sg71
g3452
sg64
(lp3468
g57
(g58
g59
NtRp3469
(dp3470
g62
(dp3471
g70
I3
ssg71
g3465
sg64
(lp3472
S'None'
p3473
asbasbasbag57
(g73
g59
NtRp3474
(dp3475
g62
(dp3476
sg71
g3360
sg64
(lp3477
g57
(g78
g59
NtRp3478
(dp3479
g62
(dp3480
g82
g83
ssg71
g3474
sg64
(lp3481
S'password'
p3482
asbag57
(g78
g59
NtRp3483
(dp3484
g62
(dp3485
g89
g90
ssg71
g3474
sg64
(lp3486
S':'
asbag57
(g78
g59
NtRp3487
(dp3488
g62
(dp3489
sg71
g3474
sg64
(lp3490
g57
(g58
g59
NtRp3491
(dp3492
g62
(dp3493
g70
I3
ssg71
g3487
sg64
(lp3494
S'pbkdf2(1000,20,sha512)$8ed755c7929521cf$165aafeb8b8477f3fe643c22e2a025a601fa1aab'
p3495
asbasbasbag57
(g73
g59
NtRp3496
(dp3497
g62
(dp3498
sg71
g3360
sg64
(lp3499
g57
(g78
g59
NtRp3500
(dp3501
g62
(dp3502
g82
g83
ssg71
g3496
sg64
(lp3503
S'registration_id'
p3504
asbag57
(g78
g59
NtRp3505
(dp3506
g62
(dp3507
g89
g90
ssg71
g3496
sg64
(lp3508
S':'
asbag57
(g78
g59
NtRp3509
(dp3510
g62
(dp3511
sg71
g3496
sg64
(lp3512
g57
(g58
g59
NtRp3513
(dp3514
g62
(dp3515
g70
I3
ssg71
g3509
sg64
(lp3516
S''
asbasbasbag57
(g73
g59
NtRp3517
(dp3518
g62
(dp3519
sg71
g3360
sg64
(lp3520
g57
(g78
g59
NtRp3521
(dp3522
g62
(dp3523
g82
g83
ssg71
g3517
sg64
(lp3524
S'registration_key'
p3525
asbag57
(g78
g59
NtRp3526
(dp3527
g62
(dp3528
g89
g90
ssg71
g3517
sg64
(lp3529
S':'
asbag57
(g78
g59
NtRp3530
(dp3531
g62
(dp3532
sg71
g3517
sg64
(lp3533
g57
(g58
g59
NtRp3534
(dp3535
g62
(dp3536
g70
I3
ssg71
g3530
sg64
(lp3537
S''
asbasbasbag57
(g73
g59
NtRp3538
(dp3539
g62
(dp3540
sg71
g3360
sg64
(lp3541
g57
(g78
g59
NtRp3542
(dp3543
g62
(dp3544
g82
g83
ssg71
g3538
sg64
(lp3545
S'reset_password_key'
p3546
asbag57
(g78
g59
NtRp3547
(dp3548
g62
(dp3549
g89
g90
ssg71
g3538
sg64
(lp3550
S':'
asbag57
(g78
g59
NtRp3551
(dp3552
g62
(dp3553
sg71
g3538
sg64
(lp3554
g57
(g58
g59
NtRp3555
(dp3556
g62
(dp3557
g70
I3
ssg71
g3551
sg64
(lp3558
S''
asbasbasbasbasbasbasbag57
(g73
g59
NtRp3559
(dp3560
g62
(dp3561
sg71
g3248
sg64
(lp3562
g57
(g78
g59
NtRp3563
(dp3564
g62
(dp3565
g82
g83
ssg71
g3559
sg64
(lp3566
S'user_groups'
p3567
asbag57
(g78
g59
NtRp3568
(dp3569
g62
(dp3570
g89
g90
ssg71
g3559
sg64
(lp3571
S':'
asbag57
(g78
g59
NtRp3572
(dp3573
g62
(dp3574
sg71
g3559
sg64
(lp3575
g57
(g58
g59
NtRp3576
(dp3577
g62
(dp3578
g70
I4
ssg71
g3572
sg64
(lp3579
g57
(g66
g59
NtRp3580
(dp3581
g62
(dp3582
g70
I3
ssg71
Nsg64
(lp3583
g57
(g73
g59
NtRp3584
(dp3585
g62
(dp3586
sg71
g3580
sg64
(lp3587
g57
(g78
g59
NtRp3588
(dp3589
g62
(dp3590
g82
g83
ssg71
g3584
sg64
(lp3591
S'3'
asbag57
(g78
g59
NtRp3592
(dp3593
g62
(dp3594
g89
g90
ssg71
g3584
sg64
(lp3595
S':'
asbag57
(g78
g59
NtRp3596
(dp3597
g62
(dp3598
sg71
g3584
sg64
(lp3599
g57
(g58
g59
NtRp3600
(dp3601
g62
(dp3602
g70
I3
ssg71
g3596
sg64
(lp3603
S'administrador'
p3604
asbasbasbasbasbasbasbasbasbasbasbag57
(g73
g59
NtRp3605
(dp3606
g62
(dp3607
sg71
g3223
sg64
(lp3608
g57
(g78
g59
NtRp3609
(dp3610
g62
(dp3611
g82
g83
ssg71
g3605
sg64
(lp3612
S'flash'
p3613
asbag57
(g78
g59
NtRp3614
(dp3615
g62
(dp3616
g89
g90
ssg71
g3605
sg64
(lp3617
S':'
asbag57
(g78
g59
NtRp3618
(dp3619
g62
(dp3620
sg71
g3605
sg64
(lp3621
g57
(g58
g59
NtRp3622
(dp3623
g62
(dp3624
g70
I5
ssg71
g3618
sg64
(lp3625
S'None'
p3626
asbasbasbag57
(g73
g59
NtRp3627
(dp3628
g62
(dp3629
sg71
g3223
sg64
(lp3630
g57
(g78
g59
NtRp3631
(dp3632
g62
(dp3633
g82
g83
ssg71
g3627
sg64
(lp3634
S'last_orderby'
p3635
asbag57
(g78
g59
NtRp3636
(dp3637
g62
(dp3638
g89
g90
ssg71
g3627
sg64
(lp3639
S':'
asbag57
(g78
g59
NtRp3640
(dp3641
g62
(dp3642
sg71
g3627
sg64
(lp3643
g57
(g58
g59
NtRp3644
(dp3645
g62
(dp3646
g70
I5
ssg71
g3640
sg64
(lp3647
S'None'
p3648
asbasbasbag57
(g73
g59
NtRp3649
(dp3650
g62
(dp3651
sg71
g3223
sg64
(lp3652
g57
(g78
g59
NtRp3653
(dp3654
g62
(dp3655
g82
g83
ssg71
g3649
sg64
(lp3656
S'last_query'
p3657
asbag57
(g78
g59
NtRp3658
(dp3659
g62
(dp3660
g89
g90
ssg71
g3649
sg64
(lp3661
S':'
asbag57
(g78
g59
NtRp3662
(dp3663
g62
(dp3664
sg71
g3649
sg64
(lp3665
g57
(g58
g59
NtRp3666
(dp3667
g62
(dp3668
g70
I5
ssg71
g3662
sg64
(lp3669
S'db.auth_group.id>0'
p3670
asbasbasbasbasbsS'etype'
p3671
S"<type 'exceptions.AttributeError'>"
p3672
sS'date'
p3673
S'Thu Oct 11 09:32:52 2012'
p3674
sS'response'
p3675
g57
(g58
g59
NtRp3676
(dp3677
g62
(dp3678
sg64
(lp3679
g57
(g66
g59
NtRp3680
(dp3681
g62
(dp3682
g70
I5
ssg71
Nsg64
(lp3683
g57
(g73
g59
NtRp3684
(dp3685
g62
(dp3686
sg71
g3680
sg64
(lp3687
g57
(g78
g59
NtRp3688
(dp3689
g62
(dp3690
g82
g83
ssg71
g3684
sg64
(lp3691
g168
asbag57
(g78
g59
NtRp3692
(dp3693
g62
(dp3694
g89
g90
ssg71
g3684
sg64
(lp3695
S':'
asbag57
(g78
g59
NtRp3696
(dp3697
g62
(dp3698
sg71
g3684
sg64
(lp3699
g57
(g58
g59
NtRp3700
(dp3701
g62
(dp3702
g70
I5
ssg71
g3696
sg64
(lp3703
S'<cStringIO.StringO object at 0xd0f93c0>'
p3704
asbasbasbag57
(g73
g59
NtRp3705
(dp3706
g62
(dp3707
sg71
g3680
sg64
(lp3708
g57
(g78
g59
NtRp3709
(dp3710
g62
(dp3711
g82
g83
ssg71
g3705
sg64
(lp3712
g256
asbag57
(g78
g59
NtRp3713
(dp3714
g62
(dp3715
g89
g90
ssg71
g3705
sg64
(lp3716
S':'
asbag57
(g78
g59
NtRp3717
(dp3718
g62
(dp3719
sg71
g3705
sg64
(lp3720
g57
(g58
g59
NtRp3721
(dp3722
g62
(dp3723
g70
I5
ssg71
g3717
sg64
(lp3724
g57
(g66
g59
NtRp3725
(dp3726
g62
(dp3727
g70
I4
ssg71
Nsg64
(lp3728
g57
(g73
g59
NtRp3729
(dp3730
g62
(dp3731
sg71
g3725
sg64
(lp3732
g57
(g78
g59
NtRp3733
(dp3734
g62
(dp3735
g82
g83
ssg71
g3729
sg64
(lp3736
S'session_id_sicoin'
p3737
asbag57
(g78
g59
NtRp3738
(dp3739
g62
(dp3740
g89
g90
ssg71
g3729
sg64
(lp3741
S':'
asbag57
(g78
g59
NtRp3742
(dp3743
g62
(dp3744
sg71
g3729
sg64
(lp3745
g57
(g58
g59
NtRp3746
(dp3747
g62
(dp3748
g70
I4
ssg71
g3742
sg64
(lp3749
g488
ag57
(g66
g59
NtRp3750
(dp3751
g62
(dp3752
g70
I3
ssg71
Nsg64
(lp3753
g57
(g73
g59
NtRp3754
(dp3755
g62
(dp3756
sg71
g3750
sg64
(lp3757
g57
(g78
g59
NtRp3758
(dp3759
g62
(dp3760
g82
g83
ssg71
g3754
sg64
(lp3761
g307
asbag57
(g78
g59
NtRp3762
(dp3763
g62
(dp3764
g89
g90
ssg71
g3754
sg64
(lp3765
S':'
asbag57
(g78
g59
NtRp3766
(dp3767
g62
(dp3768
sg71
g3754
sg64
(lp3769
g57
(g58
g59
NtRp3770
(dp3771
g62
(dp3772
g70
I3
ssg71
g3766
sg64
(lp3773
S''
asbasbasbag57
(g73
g59
NtRp3774
(dp3775
g62
(dp3776
sg71
g3750
sg64
(lp3777
g57
(g78
g59
NtRp3778
(dp3779
g62
(dp3780
g82
g83
ssg71
g3774
sg64
(lp3781
g328
asbag57
(g78
g59
NtRp3782
(dp3783
g62
(dp3784
g89
g90
ssg71
g3774
sg64
(lp3785
S':'
asbag57
(g78
g59
NtRp3786
(dp3787
g62
(dp3788
sg71
g3774
sg64
(lp3789
g57
(g58
g59
NtRp3790
(dp3791
g62
(dp3792
g70
I3
ssg71
g3786
sg64
(lp3793
S''
asbasbasbag57
(g73
g59
NtRp3794
(dp3795
g62
(dp3796
sg71
g3750
sg64
(lp3797
g57
(g78
g59
NtRp3798
(dp3799
g62
(dp3800
g82
g83
ssg71
g3794
sg64
(lp3801
g349
asbag57
(g78
g59
NtRp3802
(dp3803
g62
(dp3804
g89
g90
ssg71
g3794
sg64
(lp3805
S':'
asbag57
(g78
g59
NtRp3806
(dp3807
g62
(dp3808
sg71
g3794
sg64
(lp3809
g57
(g58
g59
NtRp3810
(dp3811
g62
(dp3812
g70
I3
ssg71
g3806
sg64
(lp3813
S''
asbasbasbag57
(g73
g59
NtRp3814
(dp3815
g62
(dp3816
sg71
g3750
sg64
(lp3817
g57
(g78
g59
NtRp3818
(dp3819
g62
(dp3820
g82
g83
ssg71
g3814
sg64
(lp3821
g370
asbag57
(g78
g59
NtRp3822
(dp3823
g62
(dp3824
g89
g90
ssg71
g3814
sg64
(lp3825
S':'
asbag57
(g78
g59
NtRp3826
(dp3827
g62
(dp3828
sg71
g3814
sg64
(lp3829
g57
(g58
g59
NtRp3830
(dp3831
g62
(dp3832
g70
I3
ssg71
g3826
sg64
(lp3833
S''
asbasbasbag57
(g73
g59
NtRp3834
(dp3835
g62
(dp3836
sg71
g3750
sg64
(lp3837
g57
(g78
g59
NtRp3838
(dp3839
g62
(dp3840
g82
g83
ssg71
g3834
sg64
(lp3841
g391
asbag57
(g78
g59
NtRp3842
(dp3843
g62
(dp3844
g89
g90
ssg71
g3834
sg64
(lp3845
S':'
asbag57
(g78
g59
NtRp3846
(dp3847
g62
(dp3848
sg71
g3834
sg64
(lp3849
g57
(g58
g59
NtRp3850
(dp3851
g62
(dp3852
g70
I3
ssg71
g3846
sg64
(lp3853
S''
asbasbasbag57
(g73
g59
NtRp3854
(dp3855
g62
(dp3856
sg71
g3750
sg64
(lp3857
g57
(g78
g59
NtRp3858
(dp3859
g62
(dp3860
g82
g83
ssg71
g3854
sg64
(lp3861
g412
asbag57
(g78
g59
NtRp3862
(dp3863
g62
(dp3864
g89
g90
ssg71
g3854
sg64
(lp3865
S':'
asbag57
(g78
g59
NtRp3866
(dp3867
g62
(dp3868
sg71
g3854
sg64
(lp3869
g57
(g58
g59
NtRp3870
(dp3871
g62
(dp3872
g70
I3
ssg71
g3866
sg64
(lp3873
S'/'
asbasbasbag57
(g73
g59
NtRp3874
(dp3875
g62
(dp3876
sg71
g3750
sg64
(lp3877
g57
(g78
g59
NtRp3878
(dp3879
g62
(dp3880
g82
g83
ssg71
g3874
sg64
(lp3881
g433
asbag57
(g78
g59
NtRp3882
(dp3883
g62
(dp3884
g89
g90
ssg71
g3874
sg64
(lp3885
S':'
asbag57
(g78
g59
NtRp3886
(dp3887
g62
(dp3888
sg71
g3874
sg64
(lp3889
g57
(g58
g59
NtRp3890
(dp3891
g62
(dp3892
g70
I3
ssg71
g3886
sg64
(lp3893
S''
asbasbasbag57
(g73
g59
NtRp3894
(dp3895
g62
(dp3896
sg71
g3750
sg64
(lp3897
g57
(g78
g59
NtRp3898
(dp3899
g62
(dp3900
g82
g83
ssg71
g3894
sg64
(lp3901
g454
asbag57
(g78
g59
NtRp3902
(dp3903
g62
(dp3904
g89
g90
ssg71
g3894
sg64
(lp3905
S':'
asbag57
(g78
g59
NtRp3906
(dp3907
g62
(dp3908
sg71
g3894
sg64
(lp3909
g57
(g58
g59
NtRp3910
(dp3911
g62
(dp3912
g70
I3
ssg71
g3906
sg64
(lp3913
S''
asbasbasbasbasbasbasbasbasbasbasbag57
(g73
g59
NtRp3914
(dp3915
g62
(dp3916
sg71
g3680
sg64
(lp3917
g57
(g78
g59
NtRp3918
(dp3919
g62
(dp3920
g82
g83
ssg71
g3914
sg64
(lp3921
S'delimiters'
p3922
asbag57
(g78
g59
NtRp3923
(dp3924
g62
(dp3925
g89
g90
ssg71
g3914
sg64
(lp3926
S':'
asbag57
(g78
g59
NtRp3927
(dp3928
g62
(dp3929
sg71
g3914
sg64
(lp3930
g57
(g58
g59
NtRp3931
(dp3932
g62
(dp3933
g70
I5
ssg71
g3927
sg64
(lp3934
g57
(g66
g59
NtRp3935
(dp3936
g62
(dp3937
g70
I4
ssg71
Nsg64
(lp3938
g57
(g73
g59
NtRp3939
(dp3940
g62
(dp3941
sg71
g3935
sg64
(lp3942
g57
(g78
g59
NtRp3943
(dp3944
g62
(dp3945
sg71
g3939
sg64
(lp3946
g57
(g58
g59
NtRp3947
(dp3948
g62
(dp3949
g70
I4
ssg71
g3943
sg64
(lp3950
S'{{'
p3951
asbasbasbag57
(g73
g59
NtRp3952
(dp3953
g62
(dp3954
sg71
g3935
sg64
(lp3955
g57
(g78
g59
NtRp3956
(dp3957
g62
(dp3958
sg71
g3952
sg64
(lp3959
g57
(g58
g59
NtRp3960
(dp3961
g62
(dp3962
g70
I4
ssg71
g3956
sg64
(lp3963
S'}}'
p3964
asbasbasbasbasbasbasbag57
(g73
g59
NtRp3965
(dp3966
g62
(dp3967
sg71
g3680
sg64
(lp3968
g57
(g78
g59
NtRp3969
(dp3970
g62
(dp3971
g82
g83
ssg71
g3965
sg64
(lp3972
S'files'
p3973
asbag57
(g78
g59
NtRp3974
(dp3975
g62
(dp3976
g89
g90
ssg71
g3965
sg64
(lp3977
S':'
asbag57
(g78
g59
NtRp3978
(dp3979
g62
(dp3980
sg71
g3965
sg64
(lp3981
g57
(g58
g59
NtRp3982
(dp3983
g62
(dp3984
g70
I5
ssg71
g3978
sg64
(lp3985
g57
(g66
g59
NtRp3986
(dp3987
g62
(dp3988
g70
I4
ssg71
Nsg64
(lp3989
g57
(g73
g59
NtRp3990
(dp3991
g62
(dp3992
sg71
g3986
sg64
(lp3993
g57
(g78
g59
NtRp3994
(dp3995
g62
(dp3996
sg71
g3990
sg64
(lp3997
g57
(g58
g59
NtRp3998
(dp3999
g62
(dp4000
g70
I4
ssg71
g3994
sg64
(lp4001
S'/sicoin/static/js/jquery.js'
p4002
asbasbasbag57
(g73
g59
NtRp4003
(dp4004
g62
(dp4005
sg71
g3986
sg64
(lp4006
g57
(g78
g59
NtRp4007
(dp4008
g62
(dp4009
sg71
g4003
sg64
(lp4010
g57
(g58
g59
NtRp4011
(dp4012
g62
(dp4013
g70
I4
ssg71
g4007
sg64
(lp4014
S'/sicoin/static/css/calendar.css'
p4015
asbasbasbag57
(g73
g59
NtRp4016
(dp4017
g62
(dp4018
sg71
g3986
sg64
(lp4019
g57
(g78
g59
NtRp4020
(dp4021
g62
(dp4022
sg71
g4016
sg64
(lp4023
g57
(g58
g59
NtRp4024
(dp4025
g62
(dp4026
g70
I4
ssg71
g4020
sg64
(lp4027
S'/sicoin/static/js/calendar.js'
p4028
asbasbasbag57
(g73
g59
NtRp4029
(dp4030
g62
(dp4031
sg71
g3986
sg64
(lp4032
g57
(g78
g59
NtRp4033
(dp4034
g62
(dp4035
sg71
g4029
sg64
(lp4036
g57
(g58
g59
NtRp4037
(dp4038
g62
(dp4039
g70
I4
ssg71
g4033
sg64
(lp4040
S'/sicoin/static/js/web2py.js'
p4041
asbasbasbag57
(g73
g59
NtRp4042
(dp4043
g62
(dp4044
sg71
g3986
sg64
(lp4045
g57
(g78
g59
NtRp4046
(dp4047
g62
(dp4048
sg71
g4042
sg64
(lp4049
g57
(g58
g59
NtRp4050
(dp4051
g62
(dp4052
g70
I4
ssg71
g4046
sg64
(lp4053
S'/sicoin/static/css/bootstrap.min.css'
p4054
asbasbasbag57
(g73
g59
NtRp4055
(dp4056
g62
(dp4057
sg71
g3986
sg64
(lp4058
g57
(g78
g59
NtRp4059
(dp4060
g62
(dp4061
sg71
g4055
sg64
(lp4062
g57
(g58
g59
NtRp4063
(dp4064
g62
(dp4065
g70
I4
ssg71
g4059
sg64
(lp4066
S'/sicoin/static/css/bootstrap-responsive.min.css'
p4067
asbasbasbag57
(g73
g59
NtRp4068
(dp4069
g62
(dp4070
sg71
g3986
sg64
(lp4071
g57
(g78
g59
NtRp4072
(dp4073
g62
(dp4074
sg71
g4068
sg64
(lp4075
g57
(g58
g59
NtRp4076
(dp4077
g62
(dp4078
g70
I4
ssg71
g4072
sg64
(lp4079
S'/sicoin/static/css/web2py.css'
p4080
asbasbasbag57
(g73
g59
NtRp4081
(dp4082
g62
(dp4083
sg71
g3986
sg64
(lp4084
g57
(g78
g59
NtRp4085
(dp4086
g62
(dp4087
sg71
g4081
sg64
(lp4088
g57
(g58
g59
NtRp4089
(dp4090
g62
(dp4091
g70
I4
ssg71
g4085
sg64
(lp4092
S'/sicoin/static/css/web2py_bootstrap.css'
p4093
asbasbasbasbasbasbasbag57
(g73
g59
NtRp4094
(dp4095
g62
(dp4096
sg71
g3680
sg64
(lp4097
g57
(g78
g59
NtRp4098
(dp4099
g62
(dp4100
g82
g83
ssg71
g4094
sg64
(lp4101
S'flash'
p4102
asbag57
(g78
g59
NtRp4103
(dp4104
g62
(dp4105
g89
g90
ssg71
g4094
sg64
(lp4106
S':'
asbag57
(g78
g59
NtRp4107
(dp4108
g62
(dp4109
sg71
g4094
sg64
(lp4110
g57
(g58
g59
NtRp4111
(dp4112
g62
(dp4113
g70
I5
ssg71
g4107
sg64
(lp4114
S'Sesi\xc3\xb3n iniciada'
p4115
asbasbasbag57
(g73
g59
NtRp4116
(dp4117
g62
(dp4118
sg71
g3680
sg64
(lp4119
g57
(g78
g59
NtRp4120
(dp4121
g62
(dp4122
g82
g83
ssg71
g4116
sg64
(lp4123
S'generic_patterns'
p4124
asbag57
(g78
g59
NtRp4125
(dp4126
g62
(dp4127
g89
g90
ssg71
g4116
sg64
(lp4128
S':'
asbag57
(g78
g59
NtRp4129
(dp4130
g62
(dp4131
sg71
g4116
sg64
(lp4132
g57
(g58
g59
NtRp4133
(dp4134
g62
(dp4135
g70
I5
ssg71
g4129
sg64
(lp4136
g57
(g66
g59
NtRp4137
(dp4138
g62
(dp4139
g70
I4
ssg71
Nsg64
(lp4140
g57
(g73
g59
NtRp4141
(dp4142
g62
(dp4143
sg71
g4137
sg64
(lp4144
g57
(g78
g59
NtRp4145
(dp4146
g62
(dp4147
sg71
g4141
sg64
(lp4148
g57
(g58
g59
NtRp4149
(dp4150
g62
(dp4151
g70
I4
ssg71
g4145
sg64
(lp4152
S'*'
asbasbasbasbasbasbasbag57
(g73
g59
NtRp4153
(dp4154
g62
(dp4155
sg71
g3680
sg64
(lp4156
g57
(g78
g59
NtRp4157
(dp4158
g62
(dp4159
g82
g83
ssg71
g4153
sg64
(lp4160
S'headers'
p4161
asbag57
(g78
g59
NtRp4162
(dp4163
g62
(dp4164
g89
g90
ssg71
g4153
sg64
(lp4165
S':'
asbag57
(g78
g59
NtRp4166
(dp4167
g62
(dp4168
sg71
g4153
sg64
(lp4169
g57
(g58
g59
NtRp4170
(dp4171
g62
(dp4172
g70
I5
ssg71
g4166
sg64
(lp4173
g57
(g66
g59
NtRp4174
(dp4175
g62
(dp4176
g70
I4
ssg71
Nsg64
(lp4177
g57
(g73
g59
NtRp4178
(dp4179
g62
(dp4180
sg71
g4174
sg64
(lp4181
g57
(g78
g59
NtRp4182
(dp4183
g62
(dp4184
g82
g83
ssg71
g4178
sg64
(lp4185
S'X-Powered-By'
p4186
asbag57
(g78
g59
NtRp4187
(dp4188
g62
(dp4189
g89
g90
ssg71
g4178
sg64
(lp4190
S':'
asbag57
(g78
g59
NtRp4191
(dp4192
g62
(dp4193
sg71
g4178
sg64
(lp4194
g57
(g58
g59
NtRp4195
(dp4196
g62
(dp4197
g70
I4
ssg71
g4191
sg64
(lp4198
S'web2py'
p4199
asbasbasbasbasbasbasbag57
(g73
g59
NtRp4200
(dp4201
g62
(dp4202
sg71
g3680
sg64
(lp4203
g57
(g78
g59
NtRp4204
(dp4205
g62
(dp4206
g82
g83
ssg71
g4200
sg64
(lp4207
S'menu'
p4208
asbag57
(g78
g59
NtRp4209
(dp4210
g62
(dp4211
g89
g90
ssg71
g4200
sg64
(lp4212
S':'
asbag57
(g78
g59
NtRp4213
(dp4214
g62
(dp4215
sg71
g4200
sg64
(lp4216
g57
(g58
g59
NtRp4217
(dp4218
g62
(dp4219
g70
I5
ssg71
g4213
sg64
(lp4220
g57
(g66
g59
NtRp4221
(dp4222
g62
(dp4223
g70
I4
ssg71
Nsg64
(lp4224
g57
(g73
g59
NtRp4225
(dp4226
g62
(dp4227
sg71
g4221
sg64
(lp4228
g57
(g78
g59
NtRp4229
(dp4230
g62
(dp4231
sg71
g4225
sg64
(lp4232
g57
(g58
g59
NtRp4233
(dp4234
g62
(dp4235
g70
I4
ssg71
g4229
sg64
(lp4236
g57
(g66
g59
NtRp4237
(dp4238
g62
(dp4239
g70
I3
ssg71
Nsg64
(lp4240
g57
(g73
g59
NtRp4241
(dp4242
g62
(dp4243
sg71
g4237
sg64
(lp4244
g57
(g78
g59
NtRp4245
(dp4246
g62
(dp4247
sg71
g4241
sg64
(lp4248
g57
(g58
g59
NtRp4249
(dp4250
g62
(dp4251
g70
I3
ssg71
g4245
sg64
(lp4252
cgluon.languages
lazyT_unpickle
p4253
(S's\x06\x00\x00\x00Indice'
tRp4254
asbasbasbag57
(g73
g59
NtRp4255
(dp4256
g62
(dp4257
sg71
g4237
sg64
(lp4258
g57
(g78
g59
NtRp4259
(dp4260
g62
(dp4261
sg71
g4255
sg64
(lp4262
g57
(g58
g59
NtRp4263
(dp4264
g62
(dp4265
g70
I3
ssg71
g4259
sg64
(lp4266
g100
asbasbasbag57
(g73
g59
NtRp4267
(dp4268
g62
(dp4269
sg71
g4237
sg64
(lp4270
g57
(g78
g59
NtRp4271
(dp4272
g62
(dp4273
sg71
g4267
sg64
(lp4274
g57
(g58
g59
NtRp4275
(dp4276
g62
(dp4277
g70
I3
ssg71
g4271
sg64
(lp4278
S'/sicoin/default/index'
p4279
asbasbasbag57
(g73
g59
NtRp4280
(dp4281
g62
(dp4282
sg71
g4237
sg64
(lp4283
g57
(g78
g59
NtRp4284
(dp4285
g62
(dp4286
sg71
g4280
sg64
(lp4287
g57
(g58
g59
NtRp4288
(dp4289
g62
(dp4290
g70
I3
ssg71
g4284
sg64
(lp4291
g57
(g66
g59
NtRp4292
(dp4293
g62
(dp4294
g70
I2
ssg71
Nsg64
(lp4295
sbasbasbasbasbasbasbasbag57
(g73
g59
NtRp4296
(dp4297
g62
(dp4298
sg71
g4221
sg64
(lp4299
g57
(g78
g59
NtRp4300
(dp4301
g62
(dp4302
sg71
g4296
sg64
(lp4303
g57
(g58
g59
NtRp4304
(dp4305
g62
(dp4306
g70
I4
ssg71
g4300
sg64
(lp4307
g57
(g66
g59
NtRp4308
(dp4309
g62
(dp4310
g70
I3
ssg71
Nsg64
(lp4311
g57
(g73
g59
NtRp4312
(dp4313
g62
(dp4314
sg71
g4308
sg64
(lp4315
g57
(g78
g59
NtRp4316
(dp4317
g62
(dp4318
sg71
g4312
sg64
(lp4319
g57
(g58
g59
NtRp4320
(dp4321
g62
(dp4322
g70
I3
ssg71
g4316
sg64
(lp4323
S'Configuraci\xc3\xb3n'
p4324
asbasbasbag57
(g73
g59
NtRp4325
(dp4326
g62
(dp4327
sg71
g4308
sg64
(lp4328
g57
(g78
g59
NtRp4329
(dp4330
g62
(dp4331
sg71
g4325
sg64
(lp4332
g57
(g58
g59
NtRp4333
(dp4334
g62
(dp4335
g70
I3
ssg71
g4329
sg64
(lp4336
g100
asbasbasbag57
(g73
g59
NtRp4337
(dp4338
g62
(dp4339
sg71
g4308
sg64
(lp4340
g57
(g78
g59
NtRp4341
(dp4342
g62
(dp4343
sg71
g4337
sg64
(lp4344
g57
(g58
g59
NtRp4345
(dp4346
g62
(dp4347
g70
I3
ssg71
g4341
sg64
(lp4348
S'None'
p4349
asbasbasbag57
(g73
g59
NtRp4350
(dp4351
g62
(dp4352
sg71
g4308
sg64
(lp4353
g57
(g78
g59
NtRp4354
(dp4355
g62
(dp4356
sg71
g4350
sg64
(lp4357
g57
(g58
g59
NtRp4358
(dp4359
g62
(dp4360
g70
I3
ssg71
g4354
sg64
(lp4361
g57
(g66
g59
NtRp4362
(dp4363
g62
(dp4364
g70
I2
ssg71
Nsg64
(lp4365
g57
(g73
g59
NtRp4366
(dp4367
g62
(dp4368
sg71
g4362
sg64
(lp4369
g57
(g78
g59
NtRp4370
(dp4371
g62
(dp4372
sg71
g4366
sg64
(lp4373
g57
(g58
g59
NtRp4374
(dp4375
g62
(dp4376
g70
I2
ssg71
g4370
sg64
(lp4377
g57
(g66
g59
NtRp4378
(dp4379
g62
(dp4380
g70
I1
ssg71
Nsg64
(lp4381
g57
(g73
g59
NtRp4382
(dp4383
g62
(dp4384
sg71
g4378
sg64
(lp4385
g57
(g78
g59
NtRp4386
(dp4387
g62
(dp4388
sg71
g4382
sg64
(lp4389
g57
(g58
g59
NtRp4390
(dp4391
g62
(dp4392
g70
I1
ssg71
g4386
sg64
(lp4393
S'Dependencias'
p4394
asbasbasbag57
(g73
g59
NtRp4395
(dp4396
g62
(dp4397
sg71
g4378
sg64
(lp4398
g57
(g78
g59
NtRp4399
(dp4400
g62
(dp4401
sg71
g4395
sg64
(lp4402
g57
(g58
g59
NtRp4403
(dp4404
g62
(dp4405
g70
I1
ssg71
g4399
sg64
(lp4406
I00
asbasbasbag57
(g73
g59
NtRp4407
(dp4408
g62
(dp4409
sg71
g4378
sg64
(lp4410
g57
(g78
g59
NtRp4411
(dp4412
g62
(dp4413
sg71
g4407
sg64
(lp4414
g57
(g58
g59
NtRp4415
(dp4416
g62
(dp4417
g70
I1
ssg71
g4411
sg64
(lp4418
S'/sicoin/configuracion/listar_dependencias'
p4419
asbasbasbasbasbasbasbag57
(g73
g59
NtRp4420
(dp4421
g62
(dp4422
sg71
g4362
sg64
(lp4423
g57
(g78
g59
NtRp4424
(dp4425
g62
(dp4426
sg71
g4420
sg64
(lp4427
g57
(g58
g59
NtRp4428
(dp4429
g62
(dp4430
g70
I2
ssg71
g4424
sg64
(lp4431
g57
(g66
g59
NtRp4432
(dp4433
g62
(dp4434
g70
I1
ssg71
Nsg64
(lp4435
g57
(g73
g59
NtRp4436
(dp4437
g62
(dp4438
sg71
g4432
sg64
(lp4439
g57
(g78
g59
NtRp4440
(dp4441
g62
(dp4442
sg71
g4436
sg64
(lp4443
g57
(g58
g59
NtRp4444
(dp4445
g62
(dp4446
g70
I1
ssg71
g4440
sg64
(lp4447
S'Departamentos'
p4448
asbasbasbag57
(g73
g59
NtRp4449
(dp4450
g62
(dp4451
sg71
g4432
sg64
(lp4452
g57
(g78
g59
NtRp4453
(dp4454
g62
(dp4455
sg71
g4449
sg64
(lp4456
g57
(g58
g59
NtRp4457
(dp4458
g62
(dp4459
g70
I1
ssg71
g4453
sg64
(lp4460
I00
asbasbasbag57
(g73
g59
NtRp4461
(dp4462
g62
(dp4463
sg71
g4432
sg64
(lp4464
g57
(g78
g59
NtRp4465
(dp4466
g62
(dp4467
sg71
g4461
sg64
(lp4468
g57
(g58
g59
NtRp4469
(dp4470
g62
(dp4471
g70
I1
ssg71
g4465
sg64
(lp4472
S'/sicoin/configuracion/listar_departamentos'
p4473
asbasbasbasbasbasbasbasbasbasbasbasbasbasbasbasbasbasbasbag57
(g73
g59
NtRp4474
(dp4475
g62
(dp4476
sg71
g3680
sg64
(lp4477
g57
(g78
g59
NtRp4478
(dp4479
g62
(dp4480
g82
g83
ssg71
g4474
sg64
(lp4481
S'meta'
p4482
asbag57
(g78
g59
NtRp4483
(dp4484
g62
(dp4485
g89
g90
ssg71
g4474
sg64
(lp4486
S':'
asbag57
(g78
g59
NtRp4487
(dp4488
g62
(dp4489
sg71
g4474
sg64
(lp4490
g57
(g58
g59
NtRp4491
(dp4492
g62
(dp4493
g70
I5
ssg71
g4487
sg64
(lp4494
g57
(g66
g59
NtRp4495
(dp4496
g62
(dp4497
g70
I4
ssg71
Nsg64
(lp4498
g57
(g73
g59
NtRp4499
(dp4500
g62
(dp4501
sg71
g4495
sg64
(lp4502
g57
(g78
g59
NtRp4503
(dp4504
g62
(dp4505
g82
g83
ssg71
g4499
sg64
(lp4506
S'author'
p4507
asbag57
(g78
g59
NtRp4508
(dp4509
g62
(dp4510
g89
g90
ssg71
g4499
sg64
(lp4511
S':'
asbag57
(g78
g59
NtRp4512
(dp4513
g62
(dp4514
sg71
g4499
sg64
(lp4515
g57
(g58
g59
NtRp4516
(dp4517
g62
(dp4518
g70
I4
ssg71
g4512
sg64
(lp4519
S'TIC - FIPU <perdomor@ucv.ve>'
p4520
asbasbasbag57
(g73
g59
NtRp4521
(dp4522
g62
(dp4523
sg71
g4495
sg64
(lp4524
g57
(g78
g59
NtRp4525
(dp4526
g62
(dp4527
g82
g83
ssg71
g4521
sg64
(lp4528
S'description'
p4529
asbag57
(g78
g59
NtRp4530
(dp4531
g62
(dp4532
g89
g90
ssg71
g4521
sg64
(lp4533
S':'
asbag57
(g78
g59
NtRp4534
(dp4535
g62
(dp4536
sg71
g4521
sg64
(lp4537
g57
(g58
g59
NtRp4538
(dp4539
g62
(dp4540
g70
I4
ssg71
g4534
sg64
(lp4541
S''
asbasbasbag57
(g73
g59
NtRp4542
(dp4543
g62
(dp4544
sg71
g4495
sg64
(lp4545
g57
(g78
g59
NtRp4546
(dp4547
g62
(dp4548
g82
g83
ssg71
g4542
sg64
(lp4549
S'keywords'
p4550
asbag57
(g78
g59
NtRp4551
(dp4552
g62
(dp4553
g89
g90
ssg71
g4542
sg64
(lp4554
S':'
asbag57
(g78
g59
NtRp4555
(dp4556
g62
(dp4557
sg71
g4542
sg64
(lp4558
g57
(g58
g59
NtRp4559
(dp4560
g62
(dp4561
g70
I4
ssg71
g4555
sg64
(lp4562
S''
asbasbasbasbasbasbasbag57
(g73
g59
NtRp4563
(dp4564
g62
(dp4565
sg71
g3680
sg64
(lp4566
g57
(g78
g59
NtRp4567
(dp4568
g62
(dp4569
g82
g83
ssg71
g4563
sg64
(lp4570
S'models_to_run'
p4571
asbag57
(g78
g59
NtRp4572
(dp4573
g62
(dp4574
g89
g90
ssg71
g4563
sg64
(lp4575
S':'
asbag57
(g78
g59
NtRp4576
(dp4577
g62
(dp4578
sg71
g4563
sg64
(lp4579
g57
(g58
g59
NtRp4580
(dp4581
g62
(dp4582
g70
I5
ssg71
g4576
sg64
(lp4583
g57
(g66
g59
NtRp4584
(dp4585
g62
(dp4586
g70
I4
ssg71
Nsg64
(lp4587
g57
(g73
g59
NtRp4588
(dp4589
g62
(dp4590
sg71
g4584
sg64
(lp4591
g57
(g78
g59
NtRp4592
(dp4593
g62
(dp4594
sg71
g4588
sg64
(lp4595
g57
(g58
g59
NtRp4596
(dp4597
g62
(dp4598
g70
I4
ssg71
g4592
sg64
(lp4599
S'^\\w+\\.py$'
p4600
asbasbasbag57
(g73
g59
NtRp4601
(dp4602
g62
(dp4603
sg71
g4584
sg64
(lp4604
g57
(g78
g59
NtRp4605
(dp4606
g62
(dp4607
sg71
g4601
sg64
(lp4608
g57
(g58
g59
NtRp4609
(dp4610
g62
(dp4611
g70
I4
ssg71
g4605
sg64
(lp4612
S'^default/\\w+\\.py$'
p4613
asbasbasbag57
(g73
g59
NtRp4614
(dp4615
g62
(dp4616
sg71
g4584
sg64
(lp4617
g57
(g78
g59
NtRp4618
(dp4619
g62
(dp4620
sg71
g4614
sg64
(lp4621
g57
(g58
g59
NtRp4622
(dp4623
g62
(dp4624
g70
I4
ssg71
g4618
sg64
(lp4625
S'^default/user/\\w+\\.py$'
p4626
asbasbasbasbasbasbasbag57
(g73
g59
NtRp4627
(dp4628
g62
(dp4629
sg71
g3680
sg64
(lp4630
g57
(g78
g59
NtRp4631
(dp4632
g62
(dp4633
g82
g83
ssg71
g4627
sg64
(lp4634
S'postprocessing'
p4635
asbag57
(g78
g59
NtRp4636
(dp4637
g62
(dp4638
g89
g90
ssg71
g4627
sg64
(lp4639
S':'
asbag57
(g78
g59
NtRp4640
(dp4641
g62
(dp4642
sg71
g4627
sg64
(lp4643
g57
(g58
g59
NtRp4644
(dp4645
g62
(dp4646
g70
I5
ssg71
g4640
sg64
(lp4647
g57
(g66
g59
NtRp4648
(dp4649
g62
(dp4650
g70
I4
ssg71
Nsg64
(lp4651
sbasbasbasbag57
(g73
g59
NtRp4652
(dp4653
g62
(dp4654
sg71
g3680
sg64
(lp4655
g57
(g78
g59
NtRp4656
(dp4657
g62
(dp4658
g82
g83
ssg71
g4652
sg64
(lp4659
S'session_file'
p4660
asbag57
(g78
g59
NtRp4661
(dp4662
g62
(dp4663
g89
g90
ssg71
g4652
sg64
(lp4664
S':'
asbag57
(g78
g59
NtRp4665
(dp4666
g62
(dp4667
sg71
g4652
sg64
(lp4668
g57
(g58
g59
NtRp4669
(dp4670
g62
(dp4671
g70
I5
ssg71
g4665
sg64
(lp4672
S"<open file '/home/perdomor/web2py/applications/sicoin/sessions/127.0.0.1-61d71e2f-b29a-4c78-a591-3d7953b74a04', mode 'rb+' at 0xa173f40>"
p4673
asbasbasbag57
(g73
g59
NtRp4674
(dp4675
g62
(dp4676
sg71
g3680
sg64
(lp4677
g57
(g78
g59
NtRp4678
(dp4679
g62
(dp4680
g82
g83
ssg71
g4674
sg64
(lp4681
S'session_filename'
p4682
asbag57
(g78
g59
NtRp4683
(dp4684
g62
(dp4685
g89
g90
ssg71
g4674
sg64
(lp4686
S':'
asbag57
(g78
g59
NtRp4687
(dp4688
g62
(dp4689
sg71
g4674
sg64
(lp4690
g57
(g58
g59
NtRp4691
(dp4692
g62
(dp4693
g70
I5
ssg71
g4687
sg64
(lp4694
S'/home/perdomor/web2py/applications/sicoin/sessions/127.0.0.1-61d71e2f-b29a-4c78-a591-3d7953b74a04'
p4695
asbasbasbag57
(g73
g59
NtRp4696
(dp4697
g62
(dp4698
sg71
g3680
sg64
(lp4699
g57
(g78
g59
NtRp4700
(dp4701
g62
(dp4702
g82
g83
ssg71
g4696
sg64
(lp4703
S'session_id'
p4704
asbag57
(g78
g59
NtRp4705
(dp4706
g62
(dp4707
g89
g90
ssg71
g4696
sg64
(lp4708
S':'
asbag57
(g78
g59
NtRp4709
(dp4710
g62
(dp4711
sg71
g4696
sg64
(lp4712
g57
(g58
g59
NtRp4713
(dp4714
g62
(dp4715
g70
I5
ssg71
g4709
sg64
(lp4716
g488
asbasbasbag57
(g73
g59
NtRp4717
(dp4718
g62
(dp4719
sg71
g3680
sg64
(lp4720
g57
(g78
g59
NtRp4721
(dp4722
g62
(dp4723
g82
g83
ssg71
g4717
sg64
(lp4724
S'session_id_name'
p4725
asbag57
(g78
g59
NtRp4726
(dp4727
g62
(dp4728
g89
g90
ssg71
g4717
sg64
(lp4729
S':'
asbag57
(g78
g59
NtRp4730
(dp4731
g62
(dp4732
sg71
g4717
sg64
(lp4733
g57
(g58
g59
NtRp4734
(dp4735
g62
(dp4736
g70
I5
ssg71
g4730
sg64
(lp4737
g3737
asbasbasbag57
(g73
g59
NtRp4738
(dp4739
g62
(dp4740
sg71
g3680
sg64
(lp4741
g57
(g78
g59
NtRp4742
(dp4743
g62
(dp4744
g82
g83
ssg71
g4738
sg64
(lp4745
S'session_locked'
p4746
asbag57
(g78
g59
NtRp4747
(dp4748
g62
(dp4749
g89
g90
ssg71
g4738
sg64
(lp4750
S':'
asbag57
(g78
g59
NtRp4751
(dp4752
g62
(dp4753
sg71
g4738
sg64
(lp4754
g57
(g58
g59
NtRp4755
(dp4756
g62
(dp4757
g70
I5
ssg71
g4751
sg64
(lp4758
g1736
asbasbasbag57
(g73
g59
NtRp4759
(dp4760
g62
(dp4761
sg71
g3680
sg64
(lp4762
g57
(g78
g59
NtRp4763
(dp4764
g62
(dp4765
g82
g83
ssg71
g4759
sg64
(lp4766
S'session_new'
p4767
asbag57
(g78
g59
NtRp4768
(dp4769
g62
(dp4770
g89
g90
ssg71
g4759
sg64
(lp4771
S':'
asbag57
(g78
g59
NtRp4772
(dp4773
g62
(dp4774
sg71
g4759
sg64
(lp4775
g57
(g58
g59
NtRp4776
(dp4777
g62
(dp4778
g70
I5
ssg71
g4772
sg64
(lp4779
g100
asbasbasbag57
(g73
g59
NtRp4780
(dp4781
g62
(dp4782
sg71
g3680
sg64
(lp4783
g57
(g78
g59
NtRp4784
(dp4785
g62
(dp4786
g82
g83
ssg71
g4780
sg64
(lp4787
S'status'
p4788
asbag57
(g78
g59
NtRp4789
(dp4790
g62
(dp4791
g89
g90
ssg71
g4780
sg64
(lp4792
S':'
asbag57
(g78
g59
NtRp4793
(dp4794
g62
(dp4795
sg71
g4780
sg64
(lp4796
g57
(g58
g59
NtRp4797
(dp4798
g62
(dp4799
g70
I5
ssg71
g4793
sg64
(lp4800
S'200'
p4801
asbasbasbag57
(g73
g59
NtRp4802
(dp4803
g62
(dp4804
sg71
g3680
sg64
(lp4805
g57
(g78
g59
NtRp4806
(dp4807
g62
(dp4808
g82
g83
ssg71
g4802
sg64
(lp4809
S'subtitle'
p4810
asbag57
(g78
g59
NtRp4811
(dp4812
g62
(dp4813
g89
g90
ssg71
g4802
sg64
(lp4814
S':'
asbag57
(g78
g59
NtRp4815
(dp4816
g62
(dp4817
sg71
g4802
sg64
(lp4818
g57
(g58
g59
NtRp4819
(dp4820
g62
(dp4821
g70
I5
ssg71
g4815
sg64
(lp4822
S'Sistema Integrado de Correspondencia Interna'
p4823
asbasbasbag57
(g73
g59
NtRp4824
(dp4825
g62
(dp4826
sg71
g3680
sg64
(lp4827
g57
(g78
g59
NtRp4828
(dp4829
g62
(dp4830
g82
g83
ssg71
g4824
sg64
(lp4831
S'title'
p4832
asbag57
(g78
g59
NtRp4833
(dp4834
g62
(dp4835
g89
g90
ssg71
g4824
sg64
(lp4836
S':'
asbag57
(g78
g59
NtRp4837
(dp4838
g62
(dp4839
sg71
g4824
sg64
(lp4840
g57
(g58
g59
NtRp4841
(dp4842
g62
(dp4843
g70
I5
ssg71
g4837
sg64
(lp4844
S'SiCoIn'
p4845
asbasbasbag57
(g73
g59
NtRp4846
(dp4847
g62
(dp4848
sg71
g3680
sg64
(lp4849
g57
(g78
g59
NtRp4850
(dp4851
g62
(dp4852
g82
g83
ssg71
g4846
sg64
(lp4853
S'view'
p4854
asbag57
(g78
g59
NtRp4855
(dp4856
g62
(dp4857
g89
g90
ssg71
g4846
sg64
(lp4858
S':'
asbag57
(g78
g59
NtRp4859
(dp4860
g62
(dp4861
sg71
g4846
sg64
(lp4862
g57
(g58
g59
NtRp4863
(dp4864
g62
(dp4865
g70
I5
ssg71
g4859
sg64
(lp4866
S'default/user.html'
p4867
asbasbasbasbasbsS'locals'
p4868
(dp4869
S'self'
p4870
S"<Row {'registration_id': '', 'password': 'pbkdf2...gistration_key': '', 'email': 'perdomor@ucv.ve'}>"
p4871
sS'm'
S'None'
p4872
sS'key'
p4873
S"'first_name'"
p4874
sssS'traceback'
p4875
S'Traceback (most recent call last):\n  File "/home/perdomor/web2py/gluon/restricted.py", line 209, in restricted\n    exec ccode in environment\n  File "/home/perdomor/web2py/applications/sicoin/views/default/user.html", line 55, in <module>\n  File "/home/perdomor/web2py/gluon/tools.py", line 1239, in navbar\n    user_identifier = user_identifier % self.user\n  File "/home/perdomor/web2py/gluon/dal.py", line 6431, in __getitem__\n    return ogetattr(self, key)\nAttributeError: \'Row\' object has no attribute \'first_name\'\n'
p4876
s.