(dp1
S'output'
p2
S"<class 'gluon.contrib.pymysql.err.IntegrityError'> (1452, u'Cannot add or update a child row: a foreign key constraint fails (`db_sicoin`.`auth_event`, CONSTRAINT `auth_event_ibfk_1` FOREIGN KEY (`user_id`) REFERENCES `auth_user` (`id`) ON DELETE CASCADE)')"
p3
sS'layer'
p4
S'/home/perdomor/web2py/applications/sicoin/controllers/default.py'
p5
sS'code'
p6
S"# -*- coding: utf-8 -*-\n### required - do no delete\nT.force('es')\ndef user(): return dict(form=auth())\ndef download(): return response.download(request,db)\ndef call(): return service()\n### end requires\ndef index():\n    return dict()\n\ndef error():\n    return dict()\n\nresponse._vars=response._caller(user)\n"
p7
sS'snapshot'
p8
(dp9
S'exception'
p10
(dp11
S'__module__'
p12
S"'gluon.contrib.pymysql.err'"
p13
sS'__getslice__'
p14
S"<method-wrapper '__getslice__' of IntegrityError object>"
p15
sS'__str__'
p16
S"<method-wrapper '__str__' of IntegrityError object>"
p17
sS'__reduce__'
p18
S'<built-in method __reduce__ of IntegrityError object>'
p19
sS'__dict__'
p20
S'{}'
p21
sS'__sizeof__'
p22
S'<built-in method __sizeof__ of IntegrityError object>'
p23
sS'__weakref__'
p24
S'None'
p25
sS'__init__'
p26
S"<method-wrapper '__init__' of IntegrityError object>"
p27
sS'__setattr__'
p28
S"<method-wrapper '__setattr__' of IntegrityError object>"
p29
sS'__reduce_ex__'
p30
S'<built-in method __reduce_ex__ of IntegrityError object>'
p31
sS'__new__'
p32
S'<built-in method __new__ of type object>'
p33
sS'__format__'
p34
S'<built-in method __format__ of IntegrityError object>'
p35
sS'__class__'
p36
S"<class 'gluon.contrib.pymysql.err.IntegrityError'>"
p37
sS'__doc__'
p38
S"'Exception raised when the relational integrity o... foreign key check fails, duplicate key,\\n    etc.'"
p39
sS'__getitem__'
p40
S"<method-wrapper '__getitem__' of IntegrityError object>"
p41
sS'__setstate__'
p42
S'<built-in method __setstate__ of IntegrityError object>'
p43
sS'__getattribute__'
p44
S"<method-wrapper '__getattribute__' of IntegrityError object>"
p45
sS'args'
p46
S"(1452, u'Cannot add or update a child row: a foreign ke...REFERENCES `auth_user` (`id`) ON DELETE CASCADE)')"
p47
sS'__subclasshook__'
p48
S'<built-in method __subclasshook__ of type object>'
p49
sS'__unicode__'
p50
S'<built-in method __unicode__ of IntegrityError object>'
p51
sS'__delattr__'
p52
S"<method-wrapper '__delattr__' of IntegrityError object>"
p53
sS'__repr__'
p54
S"<method-wrapper '__repr__' of IntegrityError object>"
p55
sS'__hash__'
p56
S"<method-wrapper '__hash__' of IntegrityError object>"
p57
ssS'evalue'
p58
S"(1452, u'Cannot add or update a child row: a foreign key constraint fails (`db_sicoin`.`auth_event`, CONSTRAINT `auth_event_ibfk_1` FOREIGN KEY (`user_id`) REFERENCES `auth_user` (`id`) ON DELETE CASCADE)')"
p59
sS'request'
p60
ccopy_reg
_reconstructor
p61
(cgluon.html
BEAUTIFY
p62
c__builtin__
object
p63
NtRp64
(dp65
S'attributes'
p66
(dp67
sS'components'
p68
(lp69
g61
(cgluon.html
TABLE
p70
g63
NtRp71
(dp72
g66
(dp73
S'level'
p74
I5
ssS'parent'
p75
Nsg68
(lp76
g61
(cgluon.html
TR
p77
g63
NtRp78
(dp79
g66
(dp80
sg75
g71
sg68
(lp81
g61
(cgluon.html
TD
p82
g63
NtRp83
(dp84
g66
(dp85
S'_style'
p86
S'font-weight:bold;vertical-align:top'
p87
ssg75
g78
sg68
(lp88
S'ajax'
p89
asbag61
(g82
g63
NtRp90
(dp91
g66
(dp92
S'_valign'
p93
S'top'
p94
ssg75
g78
sg68
(lp95
S':'
asbag61
(g82
g63
NtRp96
(dp97
g66
(dp98
sg75
g78
sg68
(lp99
g61
(g62
g63
NtRp100
(dp101
g66
(dp102
g74
I5
ssg75
g96
sg68
(lp103
S'False'
p104
asbasbasbag61
(g77
g63
NtRp105
(dp106
g66
(dp107
sg75
g71
sg68
(lp108
g61
(g82
g63
NtRp109
(dp110
g66
(dp111
g86
g87
ssg75
g105
sg68
(lp112
S'application'
p113
asbag61
(g82
g63
NtRp114
(dp115
g66
(dp116
g93
g94
ssg75
g105
sg68
(lp117
S':'
asbag61
(g82
g63
NtRp118
(dp119
g66
(dp120
sg75
g105
sg68
(lp121
g61
(g62
g63
NtRp122
(dp123
g66
(dp124
g74
I5
ssg75
g118
sg68
(lp125
S'sicoin'
p126
asbasbasbag61
(g77
g63
NtRp127
(dp128
g66
(dp129
sg75
g71
sg68
(lp130
g61
(g82
g63
NtRp131
(dp132
g66
(dp133
g86
g87
ssg75
g127
sg68
(lp134
g46
asbag61
(g82
g63
NtRp135
(dp136
g66
(dp137
g93
g94
ssg75
g127
sg68
(lp138
S':'
asbag61
(g82
g63
NtRp139
(dp140
g66
(dp141
sg75
g127
sg68
(lp142
g61
(g62
g63
NtRp143
(dp144
g66
(dp145
g74
I5
ssg75
g139
sg68
(lp146
g61
(g70
g63
NtRp147
(dp148
g66
(dp149
g74
I4
ssg75
Nsg68
(lp150
g61
(g77
g63
NtRp151
(dp152
g66
(dp153
sg75
g147
sg68
(lp154
g61
(g82
g63
NtRp155
(dp156
g66
(dp157
sg75
g151
sg68
(lp158
g61
(g62
g63
NtRp159
(dp160
g66
(dp161
g74
I4
ssg75
g155
sg68
(lp162
S'logout'
p163
asbasbasbasbasbasbasbag61
(g77
g63
NtRp164
(dp165
g66
(dp166
sg75
g71
sg68
(lp167
g61
(g82
g63
NtRp168
(dp169
g66
(dp170
g86
g87
ssg75
g164
sg68
(lp171
S'body'
p172
asbag61
(g82
g63
NtRp173
(dp174
g66
(dp175
g93
g94
ssg75
g164
sg68
(lp176
S':'
asbag61
(g82
g63
NtRp177
(dp178
g66
(dp179
sg75
g164
sg68
(lp180
g61
(g62
g63
NtRp181
(dp182
g66
(dp183
g74
I5
ssg75
g177
sg68
(lp184
S'<cStringIO.StringO object at 0xb705f00>'
p185
asbasbasbag61
(g77
g63
NtRp186
(dp187
g66
(dp188
sg75
g71
sg68
(lp189
g61
(g82
g63
NtRp190
(dp191
g66
(dp192
g86
g87
ssg75
g186
sg68
(lp193
S'cid'
p194
asbag61
(g82
g63
NtRp195
(dp196
g66
(dp197
g93
g94
ssg75
g186
sg68
(lp198
S':'
asbag61
(g82
g63
NtRp199
(dp200
g66
(dp201
sg75
g186
sg68
(lp202
g61
(g62
g63
NtRp203
(dp204
g66
(dp205
g74
I5
ssg75
g199
sg68
(lp206
S'None'
p207
asbasbasbag61
(g77
g63
NtRp208
(dp209
g66
(dp210
sg75
g71
sg68
(lp211
g61
(g82
g63
NtRp212
(dp213
g66
(dp214
g86
g87
ssg75
g208
sg68
(lp215
S'client'
p216
asbag61
(g82
g63
NtRp217
(dp218
g66
(dp219
g93
g94
ssg75
g208
sg68
(lp220
S':'
asbag61
(g82
g63
NtRp221
(dp222
g66
(dp223
sg75
g208
sg68
(lp224
g61
(g62
g63
NtRp225
(dp226
g66
(dp227
g74
I5
ssg75
g221
sg68
(lp228
S'127.0.0.1'
p229
asbasbasbag61
(g77
g63
NtRp230
(dp231
g66
(dp232
sg75
g71
sg68
(lp233
g61
(g82
g63
NtRp234
(dp235
g66
(dp236
g86
g87
ssg75
g230
sg68
(lp237
S'controller'
p238
asbag61
(g82
g63
NtRp239
(dp240
g66
(dp241
g93
g94
ssg75
g230
sg68
(lp242
S':'
asbag61
(g82
g63
NtRp243
(dp244
g66
(dp245
sg75
g230
sg68
(lp246
g61
(g62
g63
NtRp247
(dp248
g66
(dp249
g74
I5
ssg75
g243
sg68
(lp250
S'default'
p251
asbasbasbag61
(g77
g63
NtRp252
(dp253
g66
(dp254
sg75
g71
sg68
(lp255
g61
(g82
g63
NtRp256
(dp257
g66
(dp258
g86
g87
ssg75
g252
sg68
(lp259
S'cookies'
p260
asbag61
(g82
g63
NtRp261
(dp262
g66
(dp263
g93
g94
ssg75
g252
sg68
(lp264
S':'
asbag61
(g82
g63
NtRp265
(dp266
g66
(dp267
sg75
g252
sg68
(lp268
g61
(g62
g63
NtRp269
(dp270
g66
(dp271
g74
I5
ssg75
g265
sg68
(lp272
g61
(g70
g63
NtRp273
(dp274
g66
(dp275
g74
I4
ssg75
Nsg68
(lp276
g61
(g77
g63
NtRp277
(dp278
g66
(dp279
sg75
g273
sg68
(lp280
g61
(g82
g63
NtRp281
(dp282
g66
(dp283
g86
g87
ssg75
g277
sg68
(lp284
S'session_id_admin'
p285
asbag61
(g82
g63
NtRp286
(dp287
g66
(dp288
g93
g94
ssg75
g277
sg68
(lp289
S':'
asbag61
(g82
g63
NtRp290
(dp291
g66
(dp292
sg75
g277
sg68
(lp293
g61
(g62
g63
NtRp294
(dp295
g66
(dp296
g74
I4
ssg75
g290
sg68
(lp297
S'127.0.0.1-066dd267-6b62-4d60-bf0e-674b8bda1d0a'
p298
ag61
(g70
g63
NtRp299
(dp300
g66
(dp301
g74
I3
ssg75
Nsg68
(lp302
g61
(g77
g63
NtRp303
(dp304
g66
(dp305
sg75
g299
sg68
(lp306
g61
(g82
g63
NtRp307
(dp308
g66
(dp309
g86
g87
ssg75
g303
sg68
(lp310
S'comment'
p311
asbag61
(g82
g63
NtRp312
(dp313
g66
(dp314
g93
g94
ssg75
g303
sg68
(lp315
S':'
asbag61
(g82
g63
NtRp316
(dp317
g66
(dp318
sg75
g303
sg68
(lp319
g61
(g62
g63
NtRp320
(dp321
g66
(dp322
g74
I3
ssg75
g316
sg68
(lp323
S''
asbasbasbag61
(g77
g63
NtRp324
(dp325
g66
(dp326
sg75
g299
sg68
(lp327
g61
(g82
g63
NtRp328
(dp329
g66
(dp330
g86
g87
ssg75
g324
sg68
(lp331
S'domain'
p332
asbag61
(g82
g63
NtRp333
(dp334
g66
(dp335
g93
g94
ssg75
g324
sg68
(lp336
S':'
asbag61
(g82
g63
NtRp337
(dp338
g66
(dp339
sg75
g324
sg68
(lp340
g61
(g62
g63
NtRp341
(dp342
g66
(dp343
g74
I3
ssg75
g337
sg68
(lp344
S''
asbasbasbag61
(g77
g63
NtRp345
(dp346
g66
(dp347
sg75
g299
sg68
(lp348
g61
(g82
g63
NtRp349
(dp350
g66
(dp351
g86
g87
ssg75
g345
sg68
(lp352
S'expires'
p353
asbag61
(g82
g63
NtRp354
(dp355
g66
(dp356
g93
g94
ssg75
g345
sg68
(lp357
S':'
asbag61
(g82
g63
NtRp358
(dp359
g66
(dp360
sg75
g345
sg68
(lp361
g61
(g62
g63
NtRp362
(dp363
g66
(dp364
g74
I3
ssg75
g358
sg68
(lp365
S''
asbasbasbag61
(g77
g63
NtRp366
(dp367
g66
(dp368
sg75
g299
sg68
(lp369
g61
(g82
g63
NtRp370
(dp371
g66
(dp372
g86
g87
ssg75
g366
sg68
(lp373
S'httponly'
p374
asbag61
(g82
g63
NtRp375
(dp376
g66
(dp377
g93
g94
ssg75
g366
sg68
(lp378
S':'
asbag61
(g82
g63
NtRp379
(dp380
g66
(dp381
sg75
g366
sg68
(lp382
g61
(g62
g63
NtRp383
(dp384
g66
(dp385
g74
I3
ssg75
g379
sg68
(lp386
S''
asbasbasbag61
(g77
g63
NtRp387
(dp388
g66
(dp389
sg75
g299
sg68
(lp390
g61
(g82
g63
NtRp391
(dp392
g66
(dp393
g86
g87
ssg75
g387
sg68
(lp394
S'max-age'
p395
asbag61
(g82
g63
NtRp396
(dp397
g66
(dp398
g93
g94
ssg75
g387
sg68
(lp399
S':'
asbag61
(g82
g63
NtRp400
(dp401
g66
(dp402
sg75
g387
sg68
(lp403
g61
(g62
g63
NtRp404
(dp405
g66
(dp406
g74
I3
ssg75
g400
sg68
(lp407
S''
asbasbasbag61
(g77
g63
NtRp408
(dp409
g66
(dp410
sg75
g299
sg68
(lp411
g61
(g82
g63
NtRp412
(dp413
g66
(dp414
g86
g87
ssg75
g408
sg68
(lp415
S'path'
p416
asbag61
(g82
g63
NtRp417
(dp418
g66
(dp419
g93
g94
ssg75
g408
sg68
(lp420
S':'
asbag61
(g82
g63
NtRp421
(dp422
g66
(dp423
sg75
g408
sg68
(lp424
g61
(g62
g63
NtRp425
(dp426
g66
(dp427
g74
I3
ssg75
g421
sg68
(lp428
S''
asbasbasbag61
(g77
g63
NtRp429
(dp430
g66
(dp431
sg75
g299
sg68
(lp432
g61
(g82
g63
NtRp433
(dp434
g66
(dp435
g86
g87
ssg75
g429
sg68
(lp436
S'secure'
p437
asbag61
(g82
g63
NtRp438
(dp439
g66
(dp440
g93
g94
ssg75
g429
sg68
(lp441
S':'
asbag61
(g82
g63
NtRp442
(dp443
g66
(dp444
sg75
g429
sg68
(lp445
g61
(g62
g63
NtRp446
(dp447
g66
(dp448
g74
I3
ssg75
g442
sg68
(lp449
S''
asbasbasbag61
(g77
g63
NtRp450
(dp451
g66
(dp452
sg75
g299
sg68
(lp453
g61
(g82
g63
NtRp454
(dp455
g66
(dp456
g86
g87
ssg75
g450
sg68
(lp457
S'version'
p458
asbag61
(g82
g63
NtRp459
(dp460
g66
(dp461
g93
g94
ssg75
g450
sg68
(lp462
S':'
asbag61
(g82
g63
NtRp463
(dp464
g66
(dp465
sg75
g450
sg68
(lp466
g61
(g62
g63
NtRp467
(dp468
g66
(dp469
g74
I3
ssg75
g463
sg68
(lp470
S''
asbasbasbasbasbasbasbag61
(g77
g63
NtRp471
(dp472
g66
(dp473
sg75
g273
sg68
(lp474
g61
(g82
g63
NtRp475
(dp476
g66
(dp477
g86
g87
ssg75
g471
sg68
(lp478
S'session_id_sicoin'
p479
asbag61
(g82
g63
NtRp480
(dp481
g66
(dp482
g93
g94
ssg75
g471
sg68
(lp483
S':'
asbag61
(g82
g63
NtRp484
(dp485
g66
(dp486
sg75
g471
sg68
(lp487
g61
(g62
g63
NtRp488
(dp489
g66
(dp490
g74
I4
ssg75
g484
sg68
(lp491
S'127.0.0.1-d70fa1a1-b5a4-4163-adc6-17d65db896f7'
p492
ag61
(g70
g63
NtRp493
(dp494
g66
(dp495
g74
I3
ssg75
Nsg68
(lp496
g61
(g77
g63
NtRp497
(dp498
g66
(dp499
sg75
g493
sg68
(lp500
g61
(g82
g63
NtRp501
(dp502
g66
(dp503
g86
g87
ssg75
g497
sg68
(lp504
g311
asbag61
(g82
g63
NtRp505
(dp506
g66
(dp507
g93
g94
ssg75
g497
sg68
(lp508
S':'
asbag61
(g82
g63
NtRp509
(dp510
g66
(dp511
sg75
g497
sg68
(lp512
g61
(g62
g63
NtRp513
(dp514
g66
(dp515
g74
I3
ssg75
g509
sg68
(lp516
S''
asbasbasbag61
(g77
g63
NtRp517
(dp518
g66
(dp519
sg75
g493
sg68
(lp520
g61
(g82
g63
NtRp521
(dp522
g66
(dp523
g86
g87
ssg75
g517
sg68
(lp524
g332
asbag61
(g82
g63
NtRp525
(dp526
g66
(dp527
g93
g94
ssg75
g517
sg68
(lp528
S':'
asbag61
(g82
g63
NtRp529
(dp530
g66
(dp531
sg75
g517
sg68
(lp532
g61
(g62
g63
NtRp533
(dp534
g66
(dp535
g74
I3
ssg75
g529
sg68
(lp536
S''
asbasbasbag61
(g77
g63
NtRp537
(dp538
g66
(dp539
sg75
g493
sg68
(lp540
g61
(g82
g63
NtRp541
(dp542
g66
(dp543
g86
g87
ssg75
g537
sg68
(lp544
g353
asbag61
(g82
g63
NtRp545
(dp546
g66
(dp547
g93
g94
ssg75
g537
sg68
(lp548
S':'
asbag61
(g82
g63
NtRp549
(dp550
g66
(dp551
sg75
g537
sg68
(lp552
g61
(g62
g63
NtRp553
(dp554
g66
(dp555
g74
I3
ssg75
g549
sg68
(lp556
S''
asbasbasbag61
(g77
g63
NtRp557
(dp558
g66
(dp559
sg75
g493
sg68
(lp560
g61
(g82
g63
NtRp561
(dp562
g66
(dp563
g86
g87
ssg75
g557
sg68
(lp564
g374
asbag61
(g82
g63
NtRp565
(dp566
g66
(dp567
g93
g94
ssg75
g557
sg68
(lp568
S':'
asbag61
(g82
g63
NtRp569
(dp570
g66
(dp571
sg75
g557
sg68
(lp572
g61
(g62
g63
NtRp573
(dp574
g66
(dp575
g74
I3
ssg75
g569
sg68
(lp576
S''
asbasbasbag61
(g77
g63
NtRp577
(dp578
g66
(dp579
sg75
g493
sg68
(lp580
g61
(g82
g63
NtRp581
(dp582
g66
(dp583
g86
g87
ssg75
g577
sg68
(lp584
g395
asbag61
(g82
g63
NtRp585
(dp586
g66
(dp587
g93
g94
ssg75
g577
sg68
(lp588
S':'
asbag61
(g82
g63
NtRp589
(dp590
g66
(dp591
sg75
g577
sg68
(lp592
g61
(g62
g63
NtRp593
(dp594
g66
(dp595
g74
I3
ssg75
g589
sg68
(lp596
S''
asbasbasbag61
(g77
g63
NtRp597
(dp598
g66
(dp599
sg75
g493
sg68
(lp600
g61
(g82
g63
NtRp601
(dp602
g66
(dp603
g86
g87
ssg75
g597
sg68
(lp604
g416
asbag61
(g82
g63
NtRp605
(dp606
g66
(dp607
g93
g94
ssg75
g597
sg68
(lp608
S':'
asbag61
(g82
g63
NtRp609
(dp610
g66
(dp611
sg75
g597
sg68
(lp612
g61
(g62
g63
NtRp613
(dp614
g66
(dp615
g74
I3
ssg75
g609
sg68
(lp616
S''
asbasbasbag61
(g77
g63
NtRp617
(dp618
g66
(dp619
sg75
g493
sg68
(lp620
g61
(g82
g63
NtRp621
(dp622
g66
(dp623
g86
g87
ssg75
g617
sg68
(lp624
g437
asbag61
(g82
g63
NtRp625
(dp626
g66
(dp627
g93
g94
ssg75
g617
sg68
(lp628
S':'
asbag61
(g82
g63
NtRp629
(dp630
g66
(dp631
sg75
g617
sg68
(lp632
g61
(g62
g63
NtRp633
(dp634
g66
(dp635
g74
I3
ssg75
g629
sg68
(lp636
S''
asbasbasbag61
(g77
g63
NtRp637
(dp638
g66
(dp639
sg75
g493
sg68
(lp640
g61
(g82
g63
NtRp641
(dp642
g66
(dp643
g86
g87
ssg75
g637
sg68
(lp644
g458
asbag61
(g82
g63
NtRp645
(dp646
g66
(dp647
g93
g94
ssg75
g637
sg68
(lp648
S':'
asbag61
(g82
g63
NtRp649
(dp650
g66
(dp651
sg75
g637
sg68
(lp652
g61
(g62
g63
NtRp653
(dp654
g66
(dp655
g74
I3
ssg75
g649
sg68
(lp656
S''
asbasbasbasbasbasbasbasbasbasbasbag61
(g77
g63
NtRp657
(dp658
g66
(dp659
sg75
g71
sg68
(lp660
g61
(g82
g63
NtRp661
(dp662
g66
(dp663
g86
g87
ssg75
g657
sg68
(lp664
S'env'
p665
asbag61
(g82
g63
NtRp666
(dp667
g66
(dp668
g93
g94
ssg75
g657
sg68
(lp669
S':'
asbag61
(g82
g63
NtRp670
(dp671
g66
(dp672
sg75
g657
sg68
(lp673
g61
(g62
g63
NtRp674
(dp675
g66
(dp676
g74
I5
ssg75
g670
sg68
(lp677
g61
(g70
g63
NtRp678
(dp679
g66
(dp680
g74
I4
ssg75
Nsg68
(lp681
g61
(g77
g63
NtRp682
(dp683
g66
(dp684
sg75
g678
sg68
(lp685
g61
(g82
g63
NtRp686
(dp687
g66
(dp688
g86
g87
ssg75
g682
sg68
(lp689
S'app_folders'
p690
asbag61
(g82
g63
NtRp691
(dp692
g66
(dp693
g93
g94
ssg75
g682
sg68
(lp694
S':'
asbag61
(g82
g63
NtRp695
(dp696
g66
(dp697
sg75
g682
sg68
(lp698
g61
(g62
g63
NtRp699
(dp700
g66
(dp701
g74
I4
ssg75
g695
sg68
(lp702
S"set(['/home/perdomor/web2py/applications/sicoin/', '/home/perdomor/web2py/applications/welcome/', '/home/perdomor/web2py/applications/admin/'])"
p703
asbasbasbag61
(g77
g63
NtRp704
(dp705
g66
(dp706
sg75
g678
sg68
(lp707
g61
(g82
g63
NtRp708
(dp709
g66
(dp710
g86
g87
ssg75
g704
sg68
(lp711
S'applications_parent'
p712
asbag61
(g82
g63
NtRp713
(dp714
g66
(dp715
g93
g94
ssg75
g704
sg68
(lp716
S':'
asbag61
(g82
g63
NtRp717
(dp718
g66
(dp719
sg75
g704
sg68
(lp720
g61
(g62
g63
NtRp721
(dp722
g66
(dp723
g74
I4
ssg75
g717
sg68
(lp724
S'/home/perdomor/web2py'
p725
asbasbasbag61
(g77
g63
NtRp726
(dp727
g66
(dp728
sg75
g678
sg68
(lp729
g61
(g82
g63
NtRp730
(dp731
g66
(dp732
g86
g87
ssg75
g726
sg68
(lp733
S'cmd_args'
p734
asbag61
(g82
g63
NtRp735
(dp736
g66
(dp737
g93
g94
ssg75
g726
sg68
(lp738
S':'
asbag61
(g82
g63
NtRp739
(dp740
g66
(dp741
sg75
g726
sg68
(lp742
g61
(g62
g63
NtRp743
(dp744
g66
(dp745
g74
I4
ssg75
g739
sg68
(lp746
g61
(g70
g63
NtRp747
(dp748
g66
(dp749
g74
I3
ssg75
Nsg68
(lp750
sbasbasbasbag61
(g77
g63
NtRp751
(dp752
g66
(dp753
sg75
g678
sg68
(lp754
g61
(g82
g63
NtRp755
(dp756
g66
(dp757
g86
g87
ssg75
g751
sg68
(lp758
S'cmd_options'
p759
asbag61
(g82
g63
NtRp760
(dp761
g66
(dp762
g93
g94
ssg75
g751
sg68
(lp763
S':'
asbag61
(g82
g63
NtRp764
(dp765
g66
(dp766
sg75
g751
sg68
(lp767
g61
(g62
g63
NtRp768
(dp769
g66
(dp770
g74
I4
ssg75
g764
sg68
(lp771
S"<Values at 0x9d5186c: {'verbose': False, 'ip': '127.0.0.1', 'with_scheduler': False, 'ips': ['127.0.1.1'], 'shutdown_timeout': 5, 'taskbar': False, 'port': 8000, 'maxthreads': None, 'softcron': False, 'server_name': 'perdomor', 'bpython': False, 'nogui': False, 'nocron': False, 'extcron': False, 'run_system_tests': False, 'test': None, 'folder': '/home/perdomor/web2py', 'config': '', 'import_models': False, 'winservice': '', 'shell': None, 'run': '', 'log_filename': 'httpserver.log', 'debuglevel': 30, 'args': [''], 'socket_timeout': 5, 'ssl_ca_certificate': None, 'scheduler': None, 'profiler_filename': None, 'ssl_private_key': '', 'scheduler_groups': None, 'password': '<ask>', 'request_queue_size': 5, 'ssl_certificate': '', 'cronjob': False, 'numthreads': None, 'quiet': False, 'interfaces': None, 'minthreads': None, 'timeout': 10, 'plain': False, 'nobanner': False, 'pid_filename': 'httpserver.pid'}>"
p772
asbasbasbag61
(g77
g63
NtRp773
(dp774
g66
(dp775
sg75
g678
sg68
(lp776
g61
(g82
g63
NtRp777
(dp778
g66
(dp779
g86
g87
ssg75
g773
sg68
(lp780
S'db_sessions'
p781
asbag61
(g82
g63
NtRp782
(dp783
g66
(dp784
g93
g94
ssg75
g773
sg68
(lp785
S':'
asbag61
(g82
g63
NtRp786
(dp787
g66
(dp788
sg75
g773
sg68
(lp789
g61
(g62
g63
NtRp790
(dp791
g66
(dp792
g74
I4
ssg75
g786
sg68
(lp793
S'set([])'
p794
asbasbasbag61
(g77
g63
NtRp795
(dp796
g66
(dp797
sg75
g678
sg68
(lp798
g61
(g82
g63
NtRp799
(dp800
g66
(dp801
g86
g87
ssg75
g795
sg68
(lp802
S'debugging'
p803
asbag61
(g82
g63
NtRp804
(dp805
g66
(dp806
g93
g94
ssg75
g795
sg68
(lp807
S':'
asbag61
(g82
g63
NtRp808
(dp809
g66
(dp810
sg75
g795
sg68
(lp811
g61
(g62
g63
NtRp812
(dp813
g66
(dp814
g74
I4
ssg75
g808
sg68
(lp815
g104
asbasbasbag61
(g77
g63
NtRp816
(dp817
g66
(dp818
sg75
g678
sg68
(lp819
g61
(g82
g63
NtRp820
(dp821
g66
(dp822
g86
g87
ssg75
g816
sg68
(lp823
S'gluon_parent'
p824
asbag61
(g82
g63
NtRp825
(dp826
g66
(dp827
g93
g94
ssg75
g816
sg68
(lp828
S':'
asbag61
(g82
g63
NtRp829
(dp830
g66
(dp831
sg75
g816
sg68
(lp832
g61
(g62
g63
NtRp833
(dp834
g66
(dp835
g74
I4
ssg75
g829
sg68
(lp836
S'/home/perdomor/web2py'
p837
asbasbasbag61
(g77
g63
NtRp838
(dp839
g66
(dp840
sg75
g678
sg68
(lp841
g61
(g82
g63
NtRp842
(dp843
g66
(dp844
g86
g87
ssg75
g838
sg68
(lp845
S'http_accept'
p846
asbag61
(g82
g63
NtRp847
(dp848
g66
(dp849
g93
g94
ssg75
g838
sg68
(lp850
S':'
asbag61
(g82
g63
NtRp851
(dp852
g66
(dp853
sg75
g838
sg68
(lp854
g61
(g62
g63
NtRp855
(dp856
g66
(dp857
g74
I4
ssg75
g851
sg68
(lp858
S'text/html,application/xhtml+xml,application/xml;q=0.9,*/*;q=0.8'
p859
asbasbasbag61
(g77
g63
NtRp860
(dp861
g66
(dp862
sg75
g678
sg68
(lp863
g61
(g82
g63
NtRp864
(dp865
g66
(dp866
g86
g87
ssg75
g860
sg68
(lp867
S'http_accept_charset'
p868
asbag61
(g82
g63
NtRp869
(dp870
g66
(dp871
g93
g94
ssg75
g860
sg68
(lp872
S':'
asbag61
(g82
g63
NtRp873
(dp874
g66
(dp875
sg75
g860
sg68
(lp876
g61
(g62
g63
NtRp877
(dp878
g66
(dp879
g74
I4
ssg75
g873
sg68
(lp880
S'ISO-8859-1,utf-8;q=0.7,*;q=0.3'
p881
asbasbasbag61
(g77
g63
NtRp882
(dp883
g66
(dp884
sg75
g678
sg68
(lp885
g61
(g82
g63
NtRp886
(dp887
g66
(dp888
g86
g87
ssg75
g882
sg68
(lp889
S'http_accept_encoding'
p890
asbag61
(g82
g63
NtRp891
(dp892
g66
(dp893
g93
g94
ssg75
g882
sg68
(lp894
S':'
asbag61
(g82
g63
NtRp895
(dp896
g66
(dp897
sg75
g882
sg68
(lp898
g61
(g62
g63
NtRp899
(dp900
g66
(dp901
g74
I4
ssg75
g895
sg68
(lp902
S'gzip,deflate,sdch'
p903
asbasbasbag61
(g77
g63
NtRp904
(dp905
g66
(dp906
sg75
g678
sg68
(lp907
g61
(g82
g63
NtRp908
(dp909
g66
(dp910
g86
g87
ssg75
g904
sg68
(lp911
S'http_accept_language'
p912
asbag61
(g82
g63
NtRp913
(dp914
g66
(dp915
g93
g94
ssg75
g904
sg68
(lp916
S':'
asbag61
(g82
g63
NtRp917
(dp918
g66
(dp919
sg75
g904
sg68
(lp920
g61
(g62
g63
NtRp921
(dp922
g66
(dp923
g74
I4
ssg75
g917
sg68
(lp924
S'es-419,es;q=0.8'
p925
asbasbasbag61
(g77
g63
NtRp926
(dp927
g66
(dp928
sg75
g678
sg68
(lp929
g61
(g82
g63
NtRp930
(dp931
g66
(dp932
g86
g87
ssg75
g926
sg68
(lp933
S'http_connection'
p934
asbag61
(g82
g63
NtRp935
(dp936
g66
(dp937
g93
g94
ssg75
g926
sg68
(lp938
S':'
asbag61
(g82
g63
NtRp939
(dp940
g66
(dp941
sg75
g926
sg68
(lp942
g61
(g62
g63
NtRp943
(dp944
g66
(dp945
g74
I4
ssg75
g939
sg68
(lp946
S'keep-alive'
p947
asbasbasbag61
(g77
g63
NtRp948
(dp949
g66
(dp950
sg75
g678
sg68
(lp951
g61
(g82
g63
NtRp952
(dp953
g66
(dp954
g86
g87
ssg75
g948
sg68
(lp955
S'http_cookie'
p956
asbag61
(g82
g63
NtRp957
(dp958
g66
(dp959
g93
g94
ssg75
g948
sg68
(lp960
S':'
asbag61
(g82
g63
NtRp961
(dp962
g66
(dp963
sg75
g948
sg68
(lp964
g61
(g62
g63
NtRp965
(dp966
g66
(dp967
g74
I4
ssg75
g961
sg68
(lp968
S'session_id_admin=127.0.0.1-066dd267-6b62-4d60-bf0e-674b8bda1d0a; session_id_sicoin=127.0.0.1-d70fa1a1-b5a4-4163-adc6-17d65db896f7'
p969
asbasbasbag61
(g77
g63
NtRp970
(dp971
g66
(dp972
sg75
g678
sg68
(lp973
g61
(g82
g63
NtRp974
(dp975
g66
(dp976
g86
g87
ssg75
g970
sg68
(lp977
S'http_host'
p978
asbag61
(g82
g63
NtRp979
(dp980
g66
(dp981
g93
g94
ssg75
g970
sg68
(lp982
S':'
asbag61
(g82
g63
NtRp983
(dp984
g66
(dp985
sg75
g970
sg68
(lp986
g61
(g62
g63
NtRp987
(dp988
g66
(dp989
g74
I4
ssg75
g983
sg68
(lp990
S'127.0.0.1:8080'
p991
asbasbasbag61
(g77
g63
NtRp992
(dp993
g66
(dp994
sg75
g678
sg68
(lp995
g61
(g82
g63
NtRp996
(dp997
g66
(dp998
g86
g87
ssg75
g992
sg68
(lp999
S'http_referer'
p1000
asbag61
(g82
g63
NtRp1001
(dp1002
g66
(dp1003
g93
g94
ssg75
g992
sg68
(lp1004
S':'
asbag61
(g82
g63
NtRp1005
(dp1006
g66
(dp1007
sg75
g992
sg68
(lp1008
g61
(g62
g63
NtRp1009
(dp1010
g66
(dp1011
g74
I4
ssg75
g1005
sg68
(lp1012
S'http://127.0.0.1:8080/sicoin/'
p1013
asbasbasbag61
(g77
g63
NtRp1014
(dp1015
g66
(dp1016
sg75
g678
sg68
(lp1017
g61
(g82
g63
NtRp1018
(dp1019
g66
(dp1020
g86
g87
ssg75
g1014
sg68
(lp1021
S'http_user_agent'
p1022
asbag61
(g82
g63
NtRp1023
(dp1024
g66
(dp1025
g93
g94
ssg75
g1014
sg68
(lp1026
S':'
asbag61
(g82
g63
NtRp1027
(dp1028
g66
(dp1029
sg75
g1014
sg68
(lp1030
g61
(g62
g63
NtRp1031
(dp1032
g66
(dp1033
g74
I4
ssg75
g1027
sg68
(lp1034
S'Mozilla/5.0 (X11; Linux i686) AppleWebKit/535.19 (KHTML, like Gecko) Ubuntu/11.10 Chromium/18.0.1025.168 Chrome/18.0.1025.168 Safari/535.19'
p1035
asbasbasbag61
(g77
g63
NtRp1036
(dp1037
g66
(dp1038
sg75
g678
sg68
(lp1039
g61
(g82
g63
NtRp1040
(dp1041
g66
(dp1042
g86
g87
ssg75
g1036
sg68
(lp1043
S'is_jython'
p1044
asbag61
(g82
g63
NtRp1045
(dp1046
g66
(dp1047
g93
g94
ssg75
g1036
sg68
(lp1048
S':'
asbag61
(g82
g63
NtRp1049
(dp1050
g66
(dp1051
sg75
g1036
sg68
(lp1052
g61
(g62
g63
NtRp1053
(dp1054
g66
(dp1055
g74
I4
ssg75
g1049
sg68
(lp1056
g104
asbasbasbag61
(g77
g63
NtRp1057
(dp1058
g66
(dp1059
sg75
g678
sg68
(lp1060
g61
(g82
g63
NtRp1061
(dp1062
g66
(dp1063
g86
g87
ssg75
g1057
sg68
(lp1064
S'is_pypy'
p1065
asbag61
(g82
g63
NtRp1066
(dp1067
g66
(dp1068
g93
g94
ssg75
g1057
sg68
(lp1069
S':'
asbag61
(g82
g63
NtRp1070
(dp1071
g66
(dp1072
sg75
g1057
sg68
(lp1073
g61
(g62
g63
NtRp1074
(dp1075
g66
(dp1076
g74
I4
ssg75
g1070
sg68
(lp1077
g104
asbasbasbag61
(g77
g63
NtRp1078
(dp1079
g66
(dp1080
sg75
g678
sg68
(lp1081
g61
(g82
g63
NtRp1082
(dp1083
g66
(dp1084
g86
g87
ssg75
g1078
sg68
(lp1085
S'path_info'
p1086
asbag61
(g82
g63
NtRp1087
(dp1088
g66
(dp1089
g93
g94
ssg75
g1078
sg68
(lp1090
S':'
asbag61
(g82
g63
NtRp1091
(dp1092
g66
(dp1093
sg75
g1078
sg68
(lp1094
g61
(g62
g63
NtRp1095
(dp1096
g66
(dp1097
g74
I4
ssg75
g1091
sg68
(lp1098
S'/sicoin/default/user/logout'
p1099
asbasbasbag61
(g77
g63
NtRp1100
(dp1101
g66
(dp1102
sg75
g678
sg68
(lp1103
g61
(g82
g63
NtRp1104
(dp1105
g66
(dp1106
g86
g87
ssg75
g1100
sg68
(lp1107
S'query_string'
p1108
asbag61
(g82
g63
NtRp1109
(dp1110
g66
(dp1111
g93
g94
ssg75
g1100
sg68
(lp1112
S':'
asbag61
(g82
g63
NtRp1113
(dp1114
g66
(dp1115
sg75
g1100
sg68
(lp1116
g61
(g62
g63
NtRp1117
(dp1118
g66
(dp1119
g74
I4
ssg75
g1113
sg68
(lp1120
S'_next=/sicoin/default/index'
p1121
asbasbasbag61
(g77
g63
NtRp1122
(dp1123
g66
(dp1124
sg75
g678
sg68
(lp1125
g61
(g82
g63
NtRp1126
(dp1127
g66
(dp1128
g86
g87
ssg75
g1122
sg68
(lp1129
S'remote_addr'
p1130
asbag61
(g82
g63
NtRp1131
(dp1132
g66
(dp1133
g93
g94
ssg75
g1122
sg68
(lp1134
S':'
asbag61
(g82
g63
NtRp1135
(dp1136
g66
(dp1137
sg75
g1122
sg68
(lp1138
g61
(g62
g63
NtRp1139
(dp1140
g66
(dp1141
g74
I4
ssg75
g1135
sg68
(lp1142
g229
asbasbasbag61
(g77
g63
NtRp1143
(dp1144
g66
(dp1145
sg75
g678
sg68
(lp1146
g61
(g82
g63
NtRp1147
(dp1148
g66
(dp1149
g86
g87
ssg75
g1143
sg68
(lp1150
S'remote_port'
p1151
asbag61
(g82
g63
NtRp1152
(dp1153
g66
(dp1154
g93
g94
ssg75
g1143
sg68
(lp1155
S':'
asbag61
(g82
g63
NtRp1156
(dp1157
g66
(dp1158
sg75
g1143
sg68
(lp1159
g61
(g62
g63
NtRp1160
(dp1161
g66
(dp1162
g74
I4
ssg75
g1156
sg68
(lp1163
S'35464'
p1164
asbasbasbag61
(g77
g63
NtRp1165
(dp1166
g66
(dp1167
sg75
g678
sg68
(lp1168
g61
(g82
g63
NtRp1169
(dp1170
g66
(dp1171
g86
g87
ssg75
g1165
sg68
(lp1172
S'request_method'
p1173
asbag61
(g82
g63
NtRp1174
(dp1175
g66
(dp1176
g93
g94
ssg75
g1165
sg68
(lp1177
S':'
asbag61
(g82
g63
NtRp1178
(dp1179
g66
(dp1180
sg75
g1165
sg68
(lp1181
g61
(g62
g63
NtRp1182
(dp1183
g66
(dp1184
g74
I4
ssg75
g1178
sg68
(lp1185
S'GET'
p1186
asbasbasbag61
(g77
g63
NtRp1187
(dp1188
g66
(dp1189
sg75
g678
sg68
(lp1190
g61
(g82
g63
NtRp1191
(dp1192
g66
(dp1193
g86
g87
ssg75
g1187
sg68
(lp1194
S'request_uri'
p1195
asbag61
(g82
g63
NtRp1196
(dp1197
g66
(dp1198
g93
g94
ssg75
g1187
sg68
(lp1199
S':'
asbag61
(g82
g63
NtRp1200
(dp1201
g66
(dp1202
sg75
g1187
sg68
(lp1203
g61
(g62
g63
NtRp1204
(dp1205
g66
(dp1206
g74
I4
ssg75
g1200
sg68
(lp1207
S'/sicoin/default/user/logout?_next=/sicoin/default/index'
p1208
asbasbasbag61
(g77
g63
NtRp1209
(dp1210
g66
(dp1211
sg75
g678
sg68
(lp1212
g61
(g82
g63
NtRp1213
(dp1214
g66
(dp1215
g86
g87
ssg75
g1209
sg68
(lp1216
S'script_name'
p1217
asbag61
(g82
g63
NtRp1218
(dp1219
g66
(dp1220
g93
g94
ssg75
g1209
sg68
(lp1221
S':'
asbag61
(g82
g63
NtRp1222
(dp1223
g66
(dp1224
sg75
g1209
sg68
(lp1225
g61
(g62
g63
NtRp1226
(dp1227
g66
(dp1228
g74
I4
ssg75
g1222
sg68
(lp1229
S''
asbasbasbag61
(g77
g63
NtRp1230
(dp1231
g66
(dp1232
sg75
g678
sg68
(lp1233
g61
(g82
g63
NtRp1234
(dp1235
g66
(dp1236
g86
g87
ssg75
g1230
sg68
(lp1237
S'server_name'
p1238
asbag61
(g82
g63
NtRp1239
(dp1240
g66
(dp1241
g93
g94
ssg75
g1230
sg68
(lp1242
S':'
asbag61
(g82
g63
NtRp1243
(dp1244
g66
(dp1245
sg75
g1230
sg68
(lp1246
g61
(g62
g63
NtRp1247
(dp1248
g66
(dp1249
g74
I4
ssg75
g1243
sg68
(lp1250
S'perdomor'
p1251
asbasbasbag61
(g77
g63
NtRp1252
(dp1253
g66
(dp1254
sg75
g678
sg68
(lp1255
g61
(g82
g63
NtRp1256
(dp1257
g66
(dp1258
g86
g87
ssg75
g1252
sg68
(lp1259
S'server_port'
p1260
asbag61
(g82
g63
NtRp1261
(dp1262
g66
(dp1263
g93
g94
ssg75
g1252
sg68
(lp1264
S':'
asbag61
(g82
g63
NtRp1265
(dp1266
g66
(dp1267
sg75
g1252
sg68
(lp1268
g61
(g62
g63
NtRp1269
(dp1270
g66
(dp1271
g74
I4
ssg75
g1265
sg68
(lp1272
S'8080'
p1273
asbasbasbag61
(g77
g63
NtRp1274
(dp1275
g66
(dp1276
sg75
g678
sg68
(lp1277
g61
(g82
g63
NtRp1278
(dp1279
g66
(dp1280
g86
g87
ssg75
g1274
sg68
(lp1281
S'server_protocol'
p1282
asbag61
(g82
g63
NtRp1283
(dp1284
g66
(dp1285
g93
g94
ssg75
g1274
sg68
(lp1286
S':'
asbag61
(g82
g63
NtRp1287
(dp1288
g66
(dp1289
sg75
g1274
sg68
(lp1290
g61
(g62
g63
NtRp1291
(dp1292
g66
(dp1293
g74
I4
ssg75
g1287
sg68
(lp1294
S'HTTP/1.1'
p1295
asbasbasbag61
(g77
g63
NtRp1296
(dp1297
g66
(dp1298
sg75
g678
sg68
(lp1299
g61
(g82
g63
NtRp1300
(dp1301
g66
(dp1302
g86
g87
ssg75
g1296
sg68
(lp1303
S'server_software'
p1304
asbag61
(g82
g63
NtRp1305
(dp1306
g66
(dp1307
g93
g94
ssg75
g1296
sg68
(lp1308
S':'
asbag61
(g82
g63
NtRp1309
(dp1310
g66
(dp1311
sg75
g1296
sg68
(lp1312
g61
(g62
g63
NtRp1313
(dp1314
g66
(dp1315
g74
I4
ssg75
g1309
sg68
(lp1316
S'Rocket 1.2.4'
p1317
asbasbasbag61
(g77
g63
NtRp1318
(dp1319
g66
(dp1320
sg75
g678
sg68
(lp1321
g61
(g82
g63
NtRp1322
(dp1323
g66
(dp1324
g86
g87
ssg75
g1318
sg68
(lp1325
S'web2py_crontype'
p1326
asbag61
(g82
g63
NtRp1327
(dp1328
g66
(dp1329
g93
g94
ssg75
g1318
sg68
(lp1330
S':'
asbag61
(g82
g63
NtRp1331
(dp1332
g66
(dp1333
sg75
g1318
sg68
(lp1334
g61
(g62
g63
NtRp1335
(dp1336
g66
(dp1337
g74
I4
ssg75
g1331
sg68
(lp1338
S'hard'
p1339
asbasbasbag61
(g77
g63
NtRp1340
(dp1341
g66
(dp1342
sg75
g678
sg68
(lp1343
g61
(g82
g63
NtRp1344
(dp1345
g66
(dp1346
g86
g87
ssg75
g1340
sg68
(lp1347
S'web2py_path'
p1348
asbag61
(g82
g63
NtRp1349
(dp1350
g66
(dp1351
g93
g94
ssg75
g1340
sg68
(lp1352
S':'
asbag61
(g82
g63
NtRp1353
(dp1354
g66
(dp1355
sg75
g1340
sg68
(lp1356
g61
(g62
g63
NtRp1357
(dp1358
g66
(dp1359
g74
I4
ssg75
g1353
sg68
(lp1360
g725
asbasbasbag61
(g77
g63
NtRp1361
(dp1362
g66
(dp1363
sg75
g678
sg68
(lp1364
g61
(g82
g63
NtRp1365
(dp1366
g66
(dp1367
g86
g87
ssg75
g1361
sg68
(lp1368
S'web2py_version'
p1369
asbag61
(g82
g63
NtRp1370
(dp1371
g66
(dp1372
g93
g94
ssg75
g1361
sg68
(lp1373
S':'
asbag61
(g82
g63
NtRp1374
(dp1375
g66
(dp1376
sg75
g1361
sg68
(lp1377
g61
(g62
g63
NtRp1378
(dp1379
g66
(dp1380
g74
I4
ssg75
g1374
sg68
(lp1381
g61
(g70
g63
NtRp1382
(dp1383
g66
(dp1384
g74
I3
ssg75
Nsg68
(lp1385
g61
(g77
g63
NtRp1386
(dp1387
g66
(dp1388
sg75
g1382
sg68
(lp1389
g61
(g82
g63
NtRp1390
(dp1391
g66
(dp1392
sg75
g1386
sg68
(lp1393
g61
(g62
g63
NtRp1394
(dp1395
g66
(dp1396
g74
I3
ssg75
g1390
sg68
(lp1397
S'2'
asbasbasbag61
(g77
g63
NtRp1398
(dp1399
g66
(dp1400
sg75
g1382
sg68
(lp1401
g61
(g82
g63
NtRp1402
(dp1403
g66
(dp1404
sg75
g1398
sg68
(lp1405
g61
(g62
g63
NtRp1406
(dp1407
g66
(dp1408
g74
I3
ssg75
g1402
sg68
(lp1409
S'0'
asbasbasbag61
(g77
g63
NtRp1410
(dp1411
g66
(dp1412
sg75
g1382
sg68
(lp1413
g61
(g82
g63
NtRp1414
(dp1415
g66
(dp1416
sg75
g1410
sg68
(lp1417
g61
(g62
g63
NtRp1418
(dp1419
g66
(dp1420
g74
I3
ssg75
g1414
sg68
(lp1421
S'9'
asbasbasbag61
(g77
g63
NtRp1422
(dp1423
g66
(dp1424
sg75
g1382
sg68
(lp1425
g61
(g82
g63
NtRp1426
(dp1427
g66
(dp1428
sg75
g1422
sg68
(lp1429
g61
(g62
g63
NtRp1430
(dp1431
g66
(dp1432
g74
I3
ssg75
g1426
sg68
(lp1433
S'datetime.datetime(2012, 9, 13, 23, 51, 30)'
p1434
asbasbasbag61
(g77
g63
NtRp1435
(dp1436
g66
(dp1437
sg75
g1382
sg68
(lp1438
g61
(g82
g63
NtRp1439
(dp1440
g66
(dp1441
sg75
g1435
sg68
(lp1442
g61
(g62
g63
NtRp1443
(dp1444
g66
(dp1445
g74
I3
ssg75
g1439
sg68
(lp1446
S'stable'
p1447
asbasbasbasbasbasbasbag61
(g77
g63
NtRp1448
(dp1449
g66
(dp1450
sg75
g678
sg68
(lp1451
g61
(g82
g63
NtRp1452
(dp1453
g66
(dp1454
g86
g87
ssg75
g1448
sg68
(lp1455
S'wsgi_errors'
p1456
asbag61
(g82
g63
NtRp1457
(dp1458
g66
(dp1459
g93
g94
ssg75
g1448
sg68
(lp1460
S':'
asbag61
(g82
g63
NtRp1461
(dp1462
g66
(dp1463
sg75
g1448
sg68
(lp1464
g61
(g62
g63
NtRp1465
(dp1466
g66
(dp1467
g74
I4
ssg75
g1461
sg68
(lp1468
S"<open file '<stderr>', mode 'w' at 0xb77a70d0>"
p1469
asbasbasbag61
(g77
g63
NtRp1470
(dp1471
g66
(dp1472
sg75
g678
sg68
(lp1473
g61
(g82
g63
NtRp1474
(dp1475
g66
(dp1476
g86
g87
ssg75
g1470
sg68
(lp1477
S'wsgi_file_wrapper'
p1478
asbag61
(g82
g63
NtRp1479
(dp1480
g66
(dp1481
g93
g94
ssg75
g1470
sg68
(lp1482
S':'
asbag61
(g82
g63
NtRp1483
(dp1484
g66
(dp1485
sg75
g1470
sg68
(lp1486
g61
(g62
g63
NtRp1487
(dp1488
g66
(dp1489
g74
I4
ssg75
g1483
sg68
(lp1490
S'<class wsgiref.util.FileWrapper at 0x9d0586c>'
p1491
asbasbasbag61
(g77
g63
NtRp1492
(dp1493
g66
(dp1494
sg75
g678
sg68
(lp1495
g61
(g82
g63
NtRp1496
(dp1497
g66
(dp1498
g86
g87
ssg75
g1492
sg68
(lp1499
S'wsgi_input'
p1500
asbag61
(g82
g63
NtRp1501
(dp1502
g66
(dp1503
g93
g94
ssg75
g1492
sg68
(lp1504
S':'
asbag61
(g82
g63
NtRp1505
(dp1506
g66
(dp1507
sg75
g1492
sg68
(lp1508
g61
(g62
g63
NtRp1509
(dp1510
g66
(dp1511
g74
I4
ssg75
g1505
sg68
(lp1512
S'<socket._fileobject object at 0xb58b02c>'
p1513
asbasbasbag61
(g77
g63
NtRp1514
(dp1515
g66
(dp1516
sg75
g678
sg68
(lp1517
g61
(g82
g63
NtRp1518
(dp1519
g66
(dp1520
g86
g87
ssg75
g1514
sg68
(lp1521
S'wsgi_multiprocess'
p1522
asbag61
(g82
g63
NtRp1523
(dp1524
g66
(dp1525
g93
g94
ssg75
g1514
sg68
(lp1526
S':'
asbag61
(g82
g63
NtRp1527
(dp1528
g66
(dp1529
sg75
g1514
sg68
(lp1530
g61
(g62
g63
NtRp1531
(dp1532
g66
(dp1533
g74
I4
ssg75
g1527
sg68
(lp1534
g104
asbasbasbag61
(g77
g63
NtRp1535
(dp1536
g66
(dp1537
sg75
g678
sg68
(lp1538
g61
(g82
g63
NtRp1539
(dp1540
g66
(dp1541
g86
g87
ssg75
g1535
sg68
(lp1542
S'wsgi_multithread'
p1543
asbag61
(g82
g63
NtRp1544
(dp1545
g66
(dp1546
g93
g94
ssg75
g1535
sg68
(lp1547
S':'
asbag61
(g82
g63
NtRp1548
(dp1549
g66
(dp1550
sg75
g1535
sg68
(lp1551
g61
(g62
g63
NtRp1552
(dp1553
g66
(dp1554
g74
I4
ssg75
g1548
sg68
(lp1555
S'True'
p1556
asbasbasbag61
(g77
g63
NtRp1557
(dp1558
g66
(dp1559
sg75
g678
sg68
(lp1560
g61
(g82
g63
NtRp1561
(dp1562
g66
(dp1563
g86
g87
ssg75
g1557
sg68
(lp1564
S'wsgi_run_once'
p1565
asbag61
(g82
g63
NtRp1566
(dp1567
g66
(dp1568
g93
g94
ssg75
g1557
sg68
(lp1569
S':'
asbag61
(g82
g63
NtRp1570
(dp1571
g66
(dp1572
sg75
g1557
sg68
(lp1573
g61
(g62
g63
NtRp1574
(dp1575
g66
(dp1576
g74
I4
ssg75
g1570
sg68
(lp1577
g104
asbasbasbag61
(g77
g63
NtRp1578
(dp1579
g66
(dp1580
sg75
g678
sg68
(lp1581
g61
(g82
g63
NtRp1582
(dp1583
g66
(dp1584
g86
g87
ssg75
g1578
sg68
(lp1585
S'wsgi_url_scheme'
p1586
asbag61
(g82
g63
NtRp1587
(dp1588
g66
(dp1589
g93
g94
ssg75
g1578
sg68
(lp1590
S':'
asbag61
(g82
g63
NtRp1591
(dp1592
g66
(dp1593
sg75
g1578
sg68
(lp1594
g61
(g62
g63
NtRp1595
(dp1596
g66
(dp1597
g74
I4
ssg75
g1591
sg68
(lp1598
S'http'
p1599
asbasbasbag61
(g77
g63
NtRp1600
(dp1601
g66
(dp1602
sg75
g678
sg68
(lp1603
g61
(g82
g63
NtRp1604
(dp1605
g66
(dp1606
g86
g87
ssg75
g1600
sg68
(lp1607
S'wsgi_version'
p1608
asbag61
(g82
g63
NtRp1609
(dp1610
g66
(dp1611
g93
g94
ssg75
g1600
sg68
(lp1612
S':'
asbag61
(g82
g63
NtRp1613
(dp1614
g66
(dp1615
sg75
g1600
sg68
(lp1616
g61
(g62
g63
NtRp1617
(dp1618
g66
(dp1619
g74
I4
ssg75
g1613
sg68
(lp1620
g61
(g70
g63
NtRp1621
(dp1622
g66
(dp1623
g74
I3
ssg75
Nsg68
(lp1624
g61
(g77
g63
NtRp1625
(dp1626
g66
(dp1627
sg75
g1621
sg68
(lp1628
g61
(g82
g63
NtRp1629
(dp1630
g66
(dp1631
sg75
g1625
sg68
(lp1632
g61
(g62
g63
NtRp1633
(dp1634
g66
(dp1635
g74
I3
ssg75
g1629
sg68
(lp1636
S'1'
asbasbasbag61
(g77
g63
NtRp1637
(dp1638
g66
(dp1639
sg75
g1621
sg68
(lp1640
g61
(g82
g63
NtRp1641
(dp1642
g66
(dp1643
sg75
g1637
sg68
(lp1644
g61
(g62
g63
NtRp1645
(dp1646
g66
(dp1647
g74
I3
ssg75
g1641
sg68
(lp1648
S'0'
asbasbasbasbasbasbasbasbasbasbasbag61
(g77
g63
NtRp1649
(dp1650
g66
(dp1651
sg75
g71
sg68
(lp1652
g61
(g82
g63
NtRp1653
(dp1654
g66
(dp1655
g86
g87
ssg75
g1649
sg68
(lp1656
S'extension'
p1657
asbag61
(g82
g63
NtRp1658
(dp1659
g66
(dp1660
g93
g94
ssg75
g1649
sg68
(lp1661
S':'
asbag61
(g82
g63
NtRp1662
(dp1663
g66
(dp1664
sg75
g1649
sg68
(lp1665
g61
(g62
g63
NtRp1666
(dp1667
g66
(dp1668
g74
I5
ssg75
g1662
sg68
(lp1669
S'html'
p1670
asbasbasbag61
(g77
g63
NtRp1671
(dp1672
g66
(dp1673
sg75
g71
sg68
(lp1674
g61
(g82
g63
NtRp1675
(dp1676
g66
(dp1677
g86
g87
ssg75
g1671
sg68
(lp1678
S'folder'
p1679
asbag61
(g82
g63
NtRp1680
(dp1681
g66
(dp1682
g93
g94
ssg75
g1671
sg68
(lp1683
S':'
asbag61
(g82
g63
NtRp1684
(dp1685
g66
(dp1686
sg75
g1671
sg68
(lp1687
g61
(g62
g63
NtRp1688
(dp1689
g66
(dp1690
g74
I5
ssg75
g1684
sg68
(lp1691
S'/home/perdomor/web2py/applications/sicoin/'
p1692
asbasbasbag61
(g77
g63
NtRp1693
(dp1694
g66
(dp1695
sg75
g71
sg68
(lp1696
g61
(g82
g63
NtRp1697
(dp1698
g66
(dp1699
g86
g87
ssg75
g1693
sg68
(lp1700
S'function'
p1701
asbag61
(g82
g63
NtRp1702
(dp1703
g66
(dp1704
g93
g94
ssg75
g1693
sg68
(lp1705
S':'
asbag61
(g82
g63
NtRp1706
(dp1707
g66
(dp1708
sg75
g1693
sg68
(lp1709
g61
(g62
g63
NtRp1710
(dp1711
g66
(dp1712
g74
I5
ssg75
g1706
sg68
(lp1713
S'user'
p1714
asbasbasbag61
(g77
g63
NtRp1715
(dp1716
g66
(dp1717
sg75
g71
sg68
(lp1718
g61
(g82
g63
NtRp1719
(dp1720
g66
(dp1721
g86
g87
ssg75
g1715
sg68
(lp1722
S'get_vars'
p1723
asbag61
(g82
g63
NtRp1724
(dp1725
g66
(dp1726
g93
g94
ssg75
g1715
sg68
(lp1727
S':'
asbag61
(g82
g63
NtRp1728
(dp1729
g66
(dp1730
sg75
g1715
sg68
(lp1731
g61
(g62
g63
NtRp1732
(dp1733
g66
(dp1734
g74
I5
ssg75
g1728
sg68
(lp1735
g61
(g70
g63
NtRp1736
(dp1737
g66
(dp1738
g74
I4
ssg75
Nsg68
(lp1739
sbasbasbasbag61
(g77
g63
NtRp1740
(dp1741
g66
(dp1742
sg75
g71
sg68
(lp1743
g61
(g82
g63
NtRp1744
(dp1745
g66
(dp1746
g86
g87
ssg75
g1740
sg68
(lp1747
S'global_settings'
p1748
asbag61
(g82
g63
NtRp1749
(dp1750
g66
(dp1751
g93
g94
ssg75
g1740
sg68
(lp1752
S':'
asbag61
(g82
g63
NtRp1753
(dp1754
g66
(dp1755
sg75
g1740
sg68
(lp1756
g61
(g62
g63
NtRp1757
(dp1758
g66
(dp1759
g74
I5
ssg75
g1753
sg68
(lp1760
g61
(g70
g63
NtRp1761
(dp1762
g66
(dp1763
g74
I4
ssg75
Nsg68
(lp1764
g61
(g77
g63
NtRp1765
(dp1766
g66
(dp1767
sg75
g1761
sg68
(lp1768
g61
(g82
g63
NtRp1769
(dp1770
g66
(dp1771
g86
g87
ssg75
g1765
sg68
(lp1772
g690
asbag61
(g82
g63
NtRp1773
(dp1774
g66
(dp1775
g93
g94
ssg75
g1765
sg68
(lp1776
S':'
asbag61
(g82
g63
NtRp1777
(dp1778
g66
(dp1779
sg75
g1765
sg68
(lp1780
g61
(g62
g63
NtRp1781
(dp1782
g66
(dp1783
g74
I4
ssg75
g1777
sg68
(lp1784
S"set(['/home/perdomor/web2py/applications/sicoin/', '/home/perdomor/web2py/applications/welcome/', '/home/perdomor/web2py/applications/admin/'])"
p1785
asbasbasbag61
(g77
g63
NtRp1786
(dp1787
g66
(dp1788
sg75
g1761
sg68
(lp1789
g61
(g82
g63
NtRp1790
(dp1791
g66
(dp1792
g86
g87
ssg75
g1786
sg68
(lp1793
g712
asbag61
(g82
g63
NtRp1794
(dp1795
g66
(dp1796
g93
g94
ssg75
g1786
sg68
(lp1797
S':'
asbag61
(g82
g63
NtRp1798
(dp1799
g66
(dp1800
sg75
g1786
sg68
(lp1801
g61
(g62
g63
NtRp1802
(dp1803
g66
(dp1804
g74
I4
ssg75
g1798
sg68
(lp1805
g725
asbasbasbag61
(g77
g63
NtRp1806
(dp1807
g66
(dp1808
sg75
g1761
sg68
(lp1809
g61
(g82
g63
NtRp1810
(dp1811
g66
(dp1812
g86
g87
ssg75
g1806
sg68
(lp1813
g734
asbag61
(g82
g63
NtRp1814
(dp1815
g66
(dp1816
g93
g94
ssg75
g1806
sg68
(lp1817
S':'
asbag61
(g82
g63
NtRp1818
(dp1819
g66
(dp1820
sg75
g1806
sg68
(lp1821
g61
(g62
g63
NtRp1822
(dp1823
g66
(dp1824
g74
I4
ssg75
g1818
sg68
(lp1825
g61
(g70
g63
NtRp1826
(dp1827
g66
(dp1828
g74
I3
ssg75
Nsg68
(lp1829
sbasbasbasbag61
(g77
g63
NtRp1830
(dp1831
g66
(dp1832
sg75
g1761
sg68
(lp1833
g61
(g82
g63
NtRp1834
(dp1835
g66
(dp1836
g86
g87
ssg75
g1830
sg68
(lp1837
g759
asbag61
(g82
g63
NtRp1838
(dp1839
g66
(dp1840
g93
g94
ssg75
g1830
sg68
(lp1841
S':'
asbag61
(g82
g63
NtRp1842
(dp1843
g66
(dp1844
sg75
g1830
sg68
(lp1845
g61
(g62
g63
NtRp1846
(dp1847
g66
(dp1848
g74
I4
ssg75
g1842
sg68
(lp1849
S"<Values at 0x9d5186c: {'verbose': False, 'ip': '127.0.0.1', 'with_scheduler': False, 'ips': ['127.0.1.1'], 'shutdown_timeout': 5, 'taskbar': False, 'port': 8000, 'maxthreads': None, 'softcron': False, 'server_name': 'perdomor', 'bpython': False, 'nogui': False, 'nocron': False, 'extcron': False, 'run_system_tests': False, 'test': None, 'folder': '/home/perdomor/web2py', 'config': '', 'import_models': False, 'winservice': '', 'shell': None, 'run': '', 'log_filename': 'httpserver.log', 'debuglevel': 30, 'args': [''], 'socket_timeout': 5, 'ssl_ca_certificate': None, 'scheduler': None, 'profiler_filename': None, 'ssl_private_key': '', 'scheduler_groups': None, 'password': '<ask>', 'request_queue_size': 5, 'ssl_certificate': '', 'cronjob': False, 'numthreads': None, 'quiet': False, 'interfaces': None, 'minthreads': None, 'timeout': 10, 'plain': False, 'nobanner': False, 'pid_filename': 'httpserver.pid'}>"
p1850
asbasbasbag61
(g77
g63
NtRp1851
(dp1852
g66
(dp1853
sg75
g1761
sg68
(lp1854
g61
(g82
g63
NtRp1855
(dp1856
g66
(dp1857
g86
g87
ssg75
g1851
sg68
(lp1858
g781
asbag61
(g82
g63
NtRp1859
(dp1860
g66
(dp1861
g93
g94
ssg75
g1851
sg68
(lp1862
S':'
asbag61
(g82
g63
NtRp1863
(dp1864
g66
(dp1865
sg75
g1851
sg68
(lp1866
g61
(g62
g63
NtRp1867
(dp1868
g66
(dp1869
g74
I4
ssg75
g1863
sg68
(lp1870
S'set([])'
p1871
asbasbasbag61
(g77
g63
NtRp1872
(dp1873
g66
(dp1874
sg75
g1761
sg68
(lp1875
g61
(g82
g63
NtRp1876
(dp1877
g66
(dp1878
g86
g87
ssg75
g1872
sg68
(lp1879
g803
asbag61
(g82
g63
NtRp1880
(dp1881
g66
(dp1882
g93
g94
ssg75
g1872
sg68
(lp1883
S':'
asbag61
(g82
g63
NtRp1884
(dp1885
g66
(dp1886
sg75
g1872
sg68
(lp1887
g61
(g62
g63
NtRp1888
(dp1889
g66
(dp1890
g74
I4
ssg75
g1884
sg68
(lp1891
g104
asbasbasbag61
(g77
g63
NtRp1892
(dp1893
g66
(dp1894
sg75
g1761
sg68
(lp1895
g61
(g82
g63
NtRp1896
(dp1897
g66
(dp1898
g86
g87
ssg75
g1892
sg68
(lp1899
g824
asbag61
(g82
g63
NtRp1900
(dp1901
g66
(dp1902
g93
g94
ssg75
g1892
sg68
(lp1903
S':'
asbag61
(g82
g63
NtRp1904
(dp1905
g66
(dp1906
sg75
g1892
sg68
(lp1907
g61
(g62
g63
NtRp1908
(dp1909
g66
(dp1910
g74
I4
ssg75
g1904
sg68
(lp1911
g837
asbasbasbag61
(g77
g63
NtRp1912
(dp1913
g66
(dp1914
sg75
g1761
sg68
(lp1915
g61
(g82
g63
NtRp1916
(dp1917
g66
(dp1918
g86
g87
ssg75
g1912
sg68
(lp1919
g1044
asbag61
(g82
g63
NtRp1920
(dp1921
g66
(dp1922
g93
g94
ssg75
g1912
sg68
(lp1923
S':'
asbag61
(g82
g63
NtRp1924
(dp1925
g66
(dp1926
sg75
g1912
sg68
(lp1927
g61
(g62
g63
NtRp1928
(dp1929
g66
(dp1930
g74
I4
ssg75
g1924
sg68
(lp1931
g104
asbasbasbag61
(g77
g63
NtRp1932
(dp1933
g66
(dp1934
sg75
g1761
sg68
(lp1935
g61
(g82
g63
NtRp1936
(dp1937
g66
(dp1938
g86
g87
ssg75
g1932
sg68
(lp1939
g1065
asbag61
(g82
g63
NtRp1940
(dp1941
g66
(dp1942
g93
g94
ssg75
g1932
sg68
(lp1943
S':'
asbag61
(g82
g63
NtRp1944
(dp1945
g66
(dp1946
sg75
g1932
sg68
(lp1947
g61
(g62
g63
NtRp1948
(dp1949
g66
(dp1950
g74
I4
ssg75
g1944
sg68
(lp1951
g104
asbasbasbag61
(g77
g63
NtRp1952
(dp1953
g66
(dp1954
sg75
g1761
sg68
(lp1955
g61
(g82
g63
NtRp1956
(dp1957
g66
(dp1958
g86
g87
ssg75
g1952
sg68
(lp1959
g1326
asbag61
(g82
g63
NtRp1960
(dp1961
g66
(dp1962
g93
g94
ssg75
g1952
sg68
(lp1963
S':'
asbag61
(g82
g63
NtRp1964
(dp1965
g66
(dp1966
sg75
g1952
sg68
(lp1967
g61
(g62
g63
NtRp1968
(dp1969
g66
(dp1970
g74
I4
ssg75
g1964
sg68
(lp1971
g1339
asbasbasbag61
(g77
g63
NtRp1972
(dp1973
g66
(dp1974
sg75
g1761
sg68
(lp1975
g61
(g82
g63
NtRp1976
(dp1977
g66
(dp1978
g86
g87
ssg75
g1972
sg68
(lp1979
g1369
asbag61
(g82
g63
NtRp1980
(dp1981
g66
(dp1982
g93
g94
ssg75
g1972
sg68
(lp1983
S':'
asbag61
(g82
g63
NtRp1984
(dp1985
g66
(dp1986
sg75
g1972
sg68
(lp1987
g61
(g62
g63
NtRp1988
(dp1989
g66
(dp1990
g74
I4
ssg75
g1984
sg68
(lp1991
g61
(g70
g63
NtRp1992
(dp1993
g66
(dp1994
g74
I3
ssg75
Nsg68
(lp1995
g61
(g77
g63
NtRp1996
(dp1997
g66
(dp1998
sg75
g1992
sg68
(lp1999
g61
(g82
g63
NtRp2000
(dp2001
g66
(dp2002
sg75
g1996
sg68
(lp2003
g61
(g62
g63
NtRp2004
(dp2005
g66
(dp2006
g74
I3
ssg75
g2000
sg68
(lp2007
S'2'
asbasbasbag61
(g77
g63
NtRp2008
(dp2009
g66
(dp2010
sg75
g1992
sg68
(lp2011
g61
(g82
g63
NtRp2012
(dp2013
g66
(dp2014
sg75
g2008
sg68
(lp2015
g61
(g62
g63
NtRp2016
(dp2017
g66
(dp2018
g74
I3
ssg75
g2012
sg68
(lp2019
S'0'
asbasbasbag61
(g77
g63
NtRp2020
(dp2021
g66
(dp2022
sg75
g1992
sg68
(lp2023
g61
(g82
g63
NtRp2024
(dp2025
g66
(dp2026
sg75
g2020
sg68
(lp2027
g61
(g62
g63
NtRp2028
(dp2029
g66
(dp2030
g74
I3
ssg75
g2024
sg68
(lp2031
S'9'
asbasbasbag61
(g77
g63
NtRp2032
(dp2033
g66
(dp2034
sg75
g1992
sg68
(lp2035
g61
(g82
g63
NtRp2036
(dp2037
g66
(dp2038
sg75
g2032
sg68
(lp2039
g61
(g62
g63
NtRp2040
(dp2041
g66
(dp2042
g74
I3
ssg75
g2036
sg68
(lp2043
S'datetime.datetime(2012, 9, 13, 23, 51, 30)'
p2044
asbasbasbag61
(g77
g63
NtRp2045
(dp2046
g66
(dp2047
sg75
g1992
sg68
(lp2048
g61
(g82
g63
NtRp2049
(dp2050
g66
(dp2051
sg75
g2045
sg68
(lp2052
g61
(g62
g63
NtRp2053
(dp2054
g66
(dp2055
g74
I3
ssg75
g2049
sg68
(lp2056
g1447
asbasbasbasbasbasbasbasbasbasbasbag61
(g77
g63
NtRp2057
(dp2058
g66
(dp2059
sg75
g71
sg68
(lp2060
g61
(g82
g63
NtRp2061
(dp2062
g66
(dp2063
g86
g87
ssg75
g2057
sg68
(lp2064
S'is_https'
p2065
asbag61
(g82
g63
NtRp2066
(dp2067
g66
(dp2068
g93
g94
ssg75
g2057
sg68
(lp2069
S':'
asbag61
(g82
g63
NtRp2070
(dp2071
g66
(dp2072
sg75
g2057
sg68
(lp2073
g61
(g62
g63
NtRp2074
(dp2075
g66
(dp2076
g74
I5
ssg75
g2070
sg68
(lp2077
g104
asbasbasbag61
(g77
g63
NtRp2078
(dp2079
g66
(dp2080
sg75
g71
sg68
(lp2081
g61
(g82
g63
NtRp2082
(dp2083
g66
(dp2084
g86
g87
ssg75
g2078
sg68
(lp2085
S'is_local'
p2086
asbag61
(g82
g63
NtRp2087
(dp2088
g66
(dp2089
g93
g94
ssg75
g2078
sg68
(lp2090
S':'
asbag61
(g82
g63
NtRp2091
(dp2092
g66
(dp2093
sg75
g2078
sg68
(lp2094
g61
(g62
g63
NtRp2095
(dp2096
g66
(dp2097
g74
I5
ssg75
g2091
sg68
(lp2098
g1556
asbasbasbag61
(g77
g63
NtRp2099
(dp2100
g66
(dp2101
sg75
g71
sg68
(lp2102
g61
(g82
g63
NtRp2103
(dp2104
g66
(dp2105
g86
g87
ssg75
g2099
sg68
(lp2106
S'is_restful'
p2107
asbag61
(g82
g63
NtRp2108
(dp2109
g66
(dp2110
g93
g94
ssg75
g2099
sg68
(lp2111
S':'
asbag61
(g82
g63
NtRp2112
(dp2113
g66
(dp2114
sg75
g2099
sg68
(lp2115
g61
(g62
g63
NtRp2116
(dp2117
g66
(dp2118
g74
I5
ssg75
g2112
sg68
(lp2119
g104
asbasbasbag61
(g77
g63
NtRp2120
(dp2121
g66
(dp2122
sg75
g71
sg68
(lp2123
g61
(g82
g63
NtRp2124
(dp2125
g66
(dp2126
g86
g87
ssg75
g2120
sg68
(lp2127
S'now'
p2128
asbag61
(g82
g63
NtRp2129
(dp2130
g66
(dp2131
g93
g94
ssg75
g2120
sg68
(lp2132
S':'
asbag61
(g82
g63
NtRp2133
(dp2134
g66
(dp2135
sg75
g2120
sg68
(lp2136
g61
(g62
g63
NtRp2137
(dp2138
g66
(dp2139
g74
I5
ssg75
g2133
sg68
(lp2140
S'datetime.datetime(2012, 10, 18, 8, 54, 50, 781499)'
p2141
asbasbasbag61
(g77
g63
NtRp2142
(dp2143
g66
(dp2144
sg75
g71
sg68
(lp2145
g61
(g82
g63
NtRp2146
(dp2147
g66
(dp2148
g86
g87
ssg75
g2142
sg68
(lp2149
S'post_vars'
p2150
asbag61
(g82
g63
NtRp2151
(dp2152
g66
(dp2153
g93
g94
ssg75
g2142
sg68
(lp2154
S':'
asbag61
(g82
g63
NtRp2155
(dp2156
g66
(dp2157
sg75
g2142
sg68
(lp2158
g61
(g62
g63
NtRp2159
(dp2160
g66
(dp2161
g74
I5
ssg75
g2155
sg68
(lp2162
g61
(g70
g63
NtRp2163
(dp2164
g66
(dp2165
g74
I4
ssg75
Nsg68
(lp2166
sbasbasbasbag61
(g77
g63
NtRp2167
(dp2168
g66
(dp2169
sg75
g71
sg68
(lp2170
g61
(g82
g63
NtRp2171
(dp2172
g66
(dp2173
g86
g87
ssg75
g2167
sg68
(lp2174
S'raw_args'
p2175
asbag61
(g82
g63
NtRp2176
(dp2177
g66
(dp2178
g93
g94
ssg75
g2167
sg68
(lp2179
S':'
asbag61
(g82
g63
NtRp2180
(dp2181
g66
(dp2182
sg75
g2167
sg68
(lp2183
g61
(g62
g63
NtRp2184
(dp2185
g66
(dp2186
g74
I5
ssg75
g2180
sg68
(lp2187
g163
asbasbasbag61
(g77
g63
NtRp2188
(dp2189
g66
(dp2190
sg75
g71
sg68
(lp2191
g61
(g82
g63
NtRp2192
(dp2193
g66
(dp2194
g86
g87
ssg75
g2188
sg68
(lp2195
S'raw_extension'
p2196
asbag61
(g82
g63
NtRp2197
(dp2198
g66
(dp2199
g93
g94
ssg75
g2188
sg68
(lp2200
S':'
asbag61
(g82
g63
NtRp2201
(dp2202
g66
(dp2203
sg75
g2188
sg68
(lp2204
g61
(g62
g63
NtRp2205
(dp2206
g66
(dp2207
g74
I5
ssg75
g2201
sg68
(lp2208
S'None'
p2209
asbasbasbag61
(g77
g63
NtRp2210
(dp2211
g66
(dp2212
sg75
g71
sg68
(lp2213
g61
(g82
g63
NtRp2214
(dp2215
g66
(dp2216
g86
g87
ssg75
g2210
sg68
(lp2217
S'url'
p2218
asbag61
(g82
g63
NtRp2219
(dp2220
g66
(dp2221
g93
g94
ssg75
g2210
sg68
(lp2222
S':'
asbag61
(g82
g63
NtRp2223
(dp2224
g66
(dp2225
sg75
g2210
sg68
(lp2226
g61
(g62
g63
NtRp2227
(dp2228
g66
(dp2229
g74
I5
ssg75
g2223
sg68
(lp2230
g1099
asbasbasbag61
(g77
g63
NtRp2231
(dp2232
g66
(dp2233
sg75
g71
sg68
(lp2234
g61
(g82
g63
NtRp2235
(dp2236
g66
(dp2237
g86
g87
ssg75
g2231
sg68
(lp2238
S'utcnow'
p2239
asbag61
(g82
g63
NtRp2240
(dp2241
g66
(dp2242
g93
g94
ssg75
g2231
sg68
(lp2243
S':'
asbag61
(g82
g63
NtRp2244
(dp2245
g66
(dp2246
sg75
g2231
sg68
(lp2247
g61
(g62
g63
NtRp2248
(dp2249
g66
(dp2250
g74
I5
ssg75
g2244
sg68
(lp2251
S'datetime.datetime(2012, 10, 18, 13, 24, 50, 781532)'
p2252
asbasbasbag61
(g77
g63
NtRp2253
(dp2254
g66
(dp2255
sg75
g71
sg68
(lp2256
g61
(g82
g63
NtRp2257
(dp2258
g66
(dp2259
g86
g87
ssg75
g2253
sg68
(lp2260
S'uuid'
p2261
asbag61
(g82
g63
NtRp2262
(dp2263
g66
(dp2264
g93
g94
ssg75
g2253
sg68
(lp2265
S':'
asbag61
(g82
g63
NtRp2266
(dp2267
g66
(dp2268
sg75
g2253
sg68
(lp2269
g61
(g62
g63
NtRp2270
(dp2271
g66
(dp2272
g74
I5
ssg75
g2266
sg68
(lp2273
S'sicoin/127.0.0.1.2012-10-18.08-54-50.658f1e58-d644-49dc-ac0d-7188a0c438c0'
p2274
asbasbasbag61
(g77
g63
NtRp2275
(dp2276
g66
(dp2277
sg75
g71
sg68
(lp2278
g61
(g82
g63
NtRp2279
(dp2280
g66
(dp2281
g86
g87
ssg75
g2275
sg68
(lp2282
S'vars'
p2283
asbag61
(g82
g63
NtRp2284
(dp2285
g66
(dp2286
g93
g94
ssg75
g2275
sg68
(lp2287
S':'
asbag61
(g82
g63
NtRp2288
(dp2289
g66
(dp2290
sg75
g2275
sg68
(lp2291
g61
(g62
g63
NtRp2292
(dp2293
g66
(dp2294
g74
I5
ssg75
g2288
sg68
(lp2295
g61
(g70
g63
NtRp2296
(dp2297
g66
(dp2298
g74
I4
ssg75
Nsg68
(lp2299
sbasbasbasbag61
(g77
g63
NtRp2300
(dp2301
g66
(dp2302
sg75
g71
sg68
(lp2303
g61
(g82
g63
NtRp2304
(dp2305
g66
(dp2306
g86
g87
ssg75
g2300
sg68
(lp2307
S'wsgi'
p2308
asbag61
(g82
g63
NtRp2309
(dp2310
g66
(dp2311
g93
g94
ssg75
g2300
sg68
(lp2312
S':'
asbag61
(g82
g63
NtRp2313
(dp2314
g66
(dp2315
sg75
g2300
sg68
(lp2316
g61
(g62
g63
NtRp2317
(dp2318
g66
(dp2319
g74
I5
ssg75
g2313
sg68
(lp2320
g61
(g70
g63
NtRp2321
(dp2322
g66
(dp2323
g74
I4
ssg75
Nsg68
(lp2324
g61
(g77
g63
NtRp2325
(dp2326
g66
(dp2327
sg75
g2321
sg68
(lp2328
g61
(g82
g63
NtRp2329
(dp2330
g66
(dp2331
g86
g87
ssg75
g2325
sg68
(lp2332
S'environ'
p2333
asbag61
(g82
g63
NtRp2334
(dp2335
g66
(dp2336
g93
g94
ssg75
g2325
sg68
(lp2337
S':'
asbag61
(g82
g63
NtRp2338
(dp2339
g66
(dp2340
sg75
g2325
sg68
(lp2341
g61
(g62
g63
NtRp2342
(dp2343
g66
(dp2344
g74
I4
ssg75
g2338
sg68
(lp2345
g61
(g70
g63
NtRp2346
(dp2347
g66
(dp2348
g74
I3
ssg75
Nsg68
(lp2349
g61
(g77
g63
NtRp2350
(dp2351
g66
(dp2352
sg75
g2346
sg68
(lp2353
g61
(g82
g63
NtRp2354
(dp2355
g66
(dp2356
g86
g87
ssg75
g2350
sg68
(lp2357
S'HTTP_ACCEPT'
p2358
asbag61
(g82
g63
NtRp2359
(dp2360
g66
(dp2361
g93
g94
ssg75
g2350
sg68
(lp2362
S':'
asbag61
(g82
g63
NtRp2363
(dp2364
g66
(dp2365
sg75
g2350
sg68
(lp2366
g61
(g62
g63
NtRp2367
(dp2368
g66
(dp2369
g74
I3
ssg75
g2363
sg68
(lp2370
g859
asbasbasbag61
(g77
g63
NtRp2371
(dp2372
g66
(dp2373
sg75
g2346
sg68
(lp2374
g61
(g82
g63
NtRp2375
(dp2376
g66
(dp2377
g86
g87
ssg75
g2371
sg68
(lp2378
S'HTTP_ACCEPT_CHARSET'
p2379
asbag61
(g82
g63
NtRp2380
(dp2381
g66
(dp2382
g93
g94
ssg75
g2371
sg68
(lp2383
S':'
asbag61
(g82
g63
NtRp2384
(dp2385
g66
(dp2386
sg75
g2371
sg68
(lp2387
g61
(g62
g63
NtRp2388
(dp2389
g66
(dp2390
g74
I3
ssg75
g2384
sg68
(lp2391
g881
asbasbasbag61
(g77
g63
NtRp2392
(dp2393
g66
(dp2394
sg75
g2346
sg68
(lp2395
g61
(g82
g63
NtRp2396
(dp2397
g66
(dp2398
g86
g87
ssg75
g2392
sg68
(lp2399
S'HTTP_ACCEPT_ENCODING'
p2400
asbag61
(g82
g63
NtRp2401
(dp2402
g66
(dp2403
g93
g94
ssg75
g2392
sg68
(lp2404
S':'
asbag61
(g82
g63
NtRp2405
(dp2406
g66
(dp2407
sg75
g2392
sg68
(lp2408
g61
(g62
g63
NtRp2409
(dp2410
g66
(dp2411
g74
I3
ssg75
g2405
sg68
(lp2412
g903
asbasbasbag61
(g77
g63
NtRp2413
(dp2414
g66
(dp2415
sg75
g2346
sg68
(lp2416
g61
(g82
g63
NtRp2417
(dp2418
g66
(dp2419
g86
g87
ssg75
g2413
sg68
(lp2420
S'HTTP_ACCEPT_LANGUAGE'
p2421
asbag61
(g82
g63
NtRp2422
(dp2423
g66
(dp2424
g93
g94
ssg75
g2413
sg68
(lp2425
S':'
asbag61
(g82
g63
NtRp2426
(dp2427
g66
(dp2428
sg75
g2413
sg68
(lp2429
g61
(g62
g63
NtRp2430
(dp2431
g66
(dp2432
g74
I3
ssg75
g2426
sg68
(lp2433
g925
asbasbasbag61
(g77
g63
NtRp2434
(dp2435
g66
(dp2436
sg75
g2346
sg68
(lp2437
g61
(g82
g63
NtRp2438
(dp2439
g66
(dp2440
g86
g87
ssg75
g2434
sg68
(lp2441
S'HTTP_CONNECTION'
p2442
asbag61
(g82
g63
NtRp2443
(dp2444
g66
(dp2445
g93
g94
ssg75
g2434
sg68
(lp2446
S':'
asbag61
(g82
g63
NtRp2447
(dp2448
g66
(dp2449
sg75
g2434
sg68
(lp2450
g61
(g62
g63
NtRp2451
(dp2452
g66
(dp2453
g74
I3
ssg75
g2447
sg68
(lp2454
g947
asbasbasbag61
(g77
g63
NtRp2455
(dp2456
g66
(dp2457
sg75
g2346
sg68
(lp2458
g61
(g82
g63
NtRp2459
(dp2460
g66
(dp2461
g86
g87
ssg75
g2455
sg68
(lp2462
S'HTTP_COOKIE'
p2463
asbag61
(g82
g63
NtRp2464
(dp2465
g66
(dp2466
g93
g94
ssg75
g2455
sg68
(lp2467
S':'
asbag61
(g82
g63
NtRp2468
(dp2469
g66
(dp2470
sg75
g2455
sg68
(lp2471
g61
(g62
g63
NtRp2472
(dp2473
g66
(dp2474
g74
I3
ssg75
g2468
sg68
(lp2475
g969
asbasbasbag61
(g77
g63
NtRp2476
(dp2477
g66
(dp2478
sg75
g2346
sg68
(lp2479
g61
(g82
g63
NtRp2480
(dp2481
g66
(dp2482
g86
g87
ssg75
g2476
sg68
(lp2483
S'HTTP_HOST'
p2484
asbag61
(g82
g63
NtRp2485
(dp2486
g66
(dp2487
g93
g94
ssg75
g2476
sg68
(lp2488
S':'
asbag61
(g82
g63
NtRp2489
(dp2490
g66
(dp2491
sg75
g2476
sg68
(lp2492
g61
(g62
g63
NtRp2493
(dp2494
g66
(dp2495
g74
I3
ssg75
g2489
sg68
(lp2496
g991
asbasbasbag61
(g77
g63
NtRp2497
(dp2498
g66
(dp2499
sg75
g2346
sg68
(lp2500
g61
(g82
g63
NtRp2501
(dp2502
g66
(dp2503
g86
g87
ssg75
g2497
sg68
(lp2504
S'HTTP_REFERER'
p2505
asbag61
(g82
g63
NtRp2506
(dp2507
g66
(dp2508
g93
g94
ssg75
g2497
sg68
(lp2509
S':'
asbag61
(g82
g63
NtRp2510
(dp2511
g66
(dp2512
sg75
g2497
sg68
(lp2513
g61
(g62
g63
NtRp2514
(dp2515
g66
(dp2516
g74
I3
ssg75
g2510
sg68
(lp2517
g1013
asbasbasbag61
(g77
g63
NtRp2518
(dp2519
g66
(dp2520
sg75
g2346
sg68
(lp2521
g61
(g82
g63
NtRp2522
(dp2523
g66
(dp2524
g86
g87
ssg75
g2518
sg68
(lp2525
S'HTTP_USER_AGENT'
p2526
asbag61
(g82
g63
NtRp2527
(dp2528
g66
(dp2529
g93
g94
ssg75
g2518
sg68
(lp2530
S':'
asbag61
(g82
g63
NtRp2531
(dp2532
g66
(dp2533
sg75
g2518
sg68
(lp2534
g61
(g62
g63
NtRp2535
(dp2536
g66
(dp2537
g74
I3
ssg75
g2531
sg68
(lp2538
g1035
asbasbasbag61
(g77
g63
NtRp2539
(dp2540
g66
(dp2541
sg75
g2346
sg68
(lp2542
g61
(g82
g63
NtRp2543
(dp2544
g66
(dp2545
g86
g87
ssg75
g2539
sg68
(lp2546
S'PATH_INFO'
p2547
asbag61
(g82
g63
NtRp2548
(dp2549
g66
(dp2550
g93
g94
ssg75
g2539
sg68
(lp2551
S':'
asbag61
(g82
g63
NtRp2552
(dp2553
g66
(dp2554
sg75
g2539
sg68
(lp2555
g61
(g62
g63
NtRp2556
(dp2557
g66
(dp2558
g74
I3
ssg75
g2552
sg68
(lp2559
g1099
asbasbasbag61
(g77
g63
NtRp2560
(dp2561
g66
(dp2562
sg75
g2346
sg68
(lp2563
g61
(g82
g63
NtRp2564
(dp2565
g66
(dp2566
g86
g87
ssg75
g2560
sg68
(lp2567
S'QUERY_STRING'
p2568
asbag61
(g82
g63
NtRp2569
(dp2570
g66
(dp2571
g93
g94
ssg75
g2560
sg68
(lp2572
S':'
asbag61
(g82
g63
NtRp2573
(dp2574
g66
(dp2575
sg75
g2560
sg68
(lp2576
g61
(g62
g63
NtRp2577
(dp2578
g66
(dp2579
g74
I3
ssg75
g2573
sg68
(lp2580
g1121
asbasbasbag61
(g77
g63
NtRp2581
(dp2582
g66
(dp2583
sg75
g2346
sg68
(lp2584
g61
(g82
g63
NtRp2585
(dp2586
g66
(dp2587
g86
g87
ssg75
g2581
sg68
(lp2588
S'REMOTE_ADDR'
p2589
asbag61
(g82
g63
NtRp2590
(dp2591
g66
(dp2592
g93
g94
ssg75
g2581
sg68
(lp2593
S':'
asbag61
(g82
g63
NtRp2594
(dp2595
g66
(dp2596
sg75
g2581
sg68
(lp2597
g61
(g62
g63
NtRp2598
(dp2599
g66
(dp2600
g74
I3
ssg75
g2594
sg68
(lp2601
g229
asbasbasbag61
(g77
g63
NtRp2602
(dp2603
g66
(dp2604
sg75
g2346
sg68
(lp2605
g61
(g82
g63
NtRp2606
(dp2607
g66
(dp2608
g86
g87
ssg75
g2602
sg68
(lp2609
S'REMOTE_PORT'
p2610
asbag61
(g82
g63
NtRp2611
(dp2612
g66
(dp2613
g93
g94
ssg75
g2602
sg68
(lp2614
S':'
asbag61
(g82
g63
NtRp2615
(dp2616
g66
(dp2617
sg75
g2602
sg68
(lp2618
g61
(g62
g63
NtRp2619
(dp2620
g66
(dp2621
g74
I3
ssg75
g2615
sg68
(lp2622
g1164
asbasbasbag61
(g77
g63
NtRp2623
(dp2624
g66
(dp2625
sg75
g2346
sg68
(lp2626
g61
(g82
g63
NtRp2627
(dp2628
g66
(dp2629
g86
g87
ssg75
g2623
sg68
(lp2630
S'REQUEST_METHOD'
p2631
asbag61
(g82
g63
NtRp2632
(dp2633
g66
(dp2634
g93
g94
ssg75
g2623
sg68
(lp2635
S':'
asbag61
(g82
g63
NtRp2636
(dp2637
g66
(dp2638
sg75
g2623
sg68
(lp2639
g61
(g62
g63
NtRp2640
(dp2641
g66
(dp2642
g74
I3
ssg75
g2636
sg68
(lp2643
g1186
asbasbasbag61
(g77
g63
NtRp2644
(dp2645
g66
(dp2646
sg75
g2346
sg68
(lp2647
g61
(g82
g63
NtRp2648
(dp2649
g66
(dp2650
g86
g87
ssg75
g2644
sg68
(lp2651
S'REQUEST_URI'
p2652
asbag61
(g82
g63
NtRp2653
(dp2654
g66
(dp2655
g93
g94
ssg75
g2644
sg68
(lp2656
S':'
asbag61
(g82
g63
NtRp2657
(dp2658
g66
(dp2659
sg75
g2644
sg68
(lp2660
g61
(g62
g63
NtRp2661
(dp2662
g66
(dp2663
g74
I3
ssg75
g2657
sg68
(lp2664
g1208
asbasbasbag61
(g77
g63
NtRp2665
(dp2666
g66
(dp2667
sg75
g2346
sg68
(lp2668
g61
(g82
g63
NtRp2669
(dp2670
g66
(dp2671
g86
g87
ssg75
g2665
sg68
(lp2672
S'SCRIPT_NAME'
p2673
asbag61
(g82
g63
NtRp2674
(dp2675
g66
(dp2676
g93
g94
ssg75
g2665
sg68
(lp2677
S':'
asbag61
(g82
g63
NtRp2678
(dp2679
g66
(dp2680
sg75
g2665
sg68
(lp2681
g61
(g62
g63
NtRp2682
(dp2683
g66
(dp2684
g74
I3
ssg75
g2678
sg68
(lp2685
S''
asbasbasbag61
(g77
g63
NtRp2686
(dp2687
g66
(dp2688
sg75
g2346
sg68
(lp2689
g61
(g82
g63
NtRp2690
(dp2691
g66
(dp2692
g86
g87
ssg75
g2686
sg68
(lp2693
S'SERVER_NAME'
p2694
asbag61
(g82
g63
NtRp2695
(dp2696
g66
(dp2697
g93
g94
ssg75
g2686
sg68
(lp2698
S':'
asbag61
(g82
g63
NtRp2699
(dp2700
g66
(dp2701
sg75
g2686
sg68
(lp2702
g61
(g62
g63
NtRp2703
(dp2704
g66
(dp2705
g74
I3
ssg75
g2699
sg68
(lp2706
g1251
asbasbasbag61
(g77
g63
NtRp2707
(dp2708
g66
(dp2709
sg75
g2346
sg68
(lp2710
g61
(g82
g63
NtRp2711
(dp2712
g66
(dp2713
g86
g87
ssg75
g2707
sg68
(lp2714
S'SERVER_PORT'
p2715
asbag61
(g82
g63
NtRp2716
(dp2717
g66
(dp2718
g93
g94
ssg75
g2707
sg68
(lp2719
S':'
asbag61
(g82
g63
NtRp2720
(dp2721
g66
(dp2722
sg75
g2707
sg68
(lp2723
g61
(g62
g63
NtRp2724
(dp2725
g66
(dp2726
g74
I3
ssg75
g2720
sg68
(lp2727
g1273
asbasbasbag61
(g77
g63
NtRp2728
(dp2729
g66
(dp2730
sg75
g2346
sg68
(lp2731
g61
(g82
g63
NtRp2732
(dp2733
g66
(dp2734
g86
g87
ssg75
g2728
sg68
(lp2735
S'SERVER_PROTOCOL'
p2736
asbag61
(g82
g63
NtRp2737
(dp2738
g66
(dp2739
g93
g94
ssg75
g2728
sg68
(lp2740
S':'
asbag61
(g82
g63
NtRp2741
(dp2742
g66
(dp2743
sg75
g2728
sg68
(lp2744
g61
(g62
g63
NtRp2745
(dp2746
g66
(dp2747
g74
I3
ssg75
g2741
sg68
(lp2748
g1295
asbasbasbag61
(g77
g63
NtRp2749
(dp2750
g66
(dp2751
sg75
g2346
sg68
(lp2752
g61
(g82
g63
NtRp2753
(dp2754
g66
(dp2755
g86
g87
ssg75
g2749
sg68
(lp2756
S'SERVER_SOFTWARE'
p2757
asbag61
(g82
g63
NtRp2758
(dp2759
g66
(dp2760
g93
g94
ssg75
g2749
sg68
(lp2761
S':'
asbag61
(g82
g63
NtRp2762
(dp2763
g66
(dp2764
sg75
g2749
sg68
(lp2765
g61
(g62
g63
NtRp2766
(dp2767
g66
(dp2768
g74
I3
ssg75
g2762
sg68
(lp2769
g1317
asbasbasbag61
(g77
g63
NtRp2770
(dp2771
g66
(dp2772
sg75
g2346
sg68
(lp2773
g61
(g82
g63
NtRp2774
(dp2775
g66
(dp2776
g86
g87
ssg75
g2770
sg68
(lp2777
S'wsgi.errors'
p2778
asbag61
(g82
g63
NtRp2779
(dp2780
g66
(dp2781
g93
g94
ssg75
g2770
sg68
(lp2782
S':'
asbag61
(g82
g63
NtRp2783
(dp2784
g66
(dp2785
sg75
g2770
sg68
(lp2786
g61
(g62
g63
NtRp2787
(dp2788
g66
(dp2789
g74
I3
ssg75
g2783
sg68
(lp2790
S"<open file '<stderr>', mode 'w' at 0xb77a70d0>"
p2791
asbasbasbag61
(g77
g63
NtRp2792
(dp2793
g66
(dp2794
sg75
g2346
sg68
(lp2795
g61
(g82
g63
NtRp2796
(dp2797
g66
(dp2798
g86
g87
ssg75
g2792
sg68
(lp2799
S'wsgi.file_wrapper'
p2800
asbag61
(g82
g63
NtRp2801
(dp2802
g66
(dp2803
g93
g94
ssg75
g2792
sg68
(lp2804
S':'
asbag61
(g82
g63
NtRp2805
(dp2806
g66
(dp2807
sg75
g2792
sg68
(lp2808
g61
(g62
g63
NtRp2809
(dp2810
g66
(dp2811
g74
I3
ssg75
g2805
sg68
(lp2812
S'<class wsgiref.util.FileWrapper at 0x9d0586c>'
p2813
asbasbasbag61
(g77
g63
NtRp2814
(dp2815
g66
(dp2816
sg75
g2346
sg68
(lp2817
g61
(g82
g63
NtRp2818
(dp2819
g66
(dp2820
g86
g87
ssg75
g2814
sg68
(lp2821
S'wsgi.input'
p2822
asbag61
(g82
g63
NtRp2823
(dp2824
g66
(dp2825
g93
g94
ssg75
g2814
sg68
(lp2826
S':'
asbag61
(g82
g63
NtRp2827
(dp2828
g66
(dp2829
sg75
g2814
sg68
(lp2830
g61
(g62
g63
NtRp2831
(dp2832
g66
(dp2833
g74
I3
ssg75
g2827
sg68
(lp2834
S'<cStringIO.StringO object at 0xb705f00>'
p2835
asbasbasbag61
(g77
g63
NtRp2836
(dp2837
g66
(dp2838
sg75
g2346
sg68
(lp2839
g61
(g82
g63
NtRp2840
(dp2841
g66
(dp2842
g86
g87
ssg75
g2836
sg68
(lp2843
S'wsgi.multiprocess'
p2844
asbag61
(g82
g63
NtRp2845
(dp2846
g66
(dp2847
g93
g94
ssg75
g2836
sg68
(lp2848
S':'
asbag61
(g82
g63
NtRp2849
(dp2850
g66
(dp2851
sg75
g2836
sg68
(lp2852
g61
(g62
g63
NtRp2853
(dp2854
g66
(dp2855
g74
I3
ssg75
g2849
sg68
(lp2856
g104
asbasbasbag61
(g77
g63
NtRp2857
(dp2858
g66
(dp2859
sg75
g2346
sg68
(lp2860
g61
(g82
g63
NtRp2861
(dp2862
g66
(dp2863
g86
g87
ssg75
g2857
sg68
(lp2864
S'wsgi.multithread'
p2865
asbag61
(g82
g63
NtRp2866
(dp2867
g66
(dp2868
g93
g94
ssg75
g2857
sg68
(lp2869
S':'
asbag61
(g82
g63
NtRp2870
(dp2871
g66
(dp2872
sg75
g2857
sg68
(lp2873
g61
(g62
g63
NtRp2874
(dp2875
g66
(dp2876
g74
I3
ssg75
g2870
sg68
(lp2877
g1556
asbasbasbag61
(g77
g63
NtRp2878
(dp2879
g66
(dp2880
sg75
g2346
sg68
(lp2881
g61
(g82
g63
NtRp2882
(dp2883
g66
(dp2884
g86
g87
ssg75
g2878
sg68
(lp2885
S'wsgi.run_once'
p2886
asbag61
(g82
g63
NtRp2887
(dp2888
g66
(dp2889
g93
g94
ssg75
g2878
sg68
(lp2890
S':'
asbag61
(g82
g63
NtRp2891
(dp2892
g66
(dp2893
sg75
g2878
sg68
(lp2894
g61
(g62
g63
NtRp2895
(dp2896
g66
(dp2897
g74
I3
ssg75
g2891
sg68
(lp2898
g104
asbasbasbag61
(g77
g63
NtRp2899
(dp2900
g66
(dp2901
sg75
g2346
sg68
(lp2902
g61
(g82
g63
NtRp2903
(dp2904
g66
(dp2905
g86
g87
ssg75
g2899
sg68
(lp2906
S'wsgi.url_scheme'
p2907
asbag61
(g82
g63
NtRp2908
(dp2909
g66
(dp2910
g93
g94
ssg75
g2899
sg68
(lp2911
S':'
asbag61
(g82
g63
NtRp2912
(dp2913
g66
(dp2914
sg75
g2899
sg68
(lp2915
g61
(g62
g63
NtRp2916
(dp2917
g66
(dp2918
g74
I3
ssg75
g2912
sg68
(lp2919
g1599
asbasbasbag61
(g77
g63
NtRp2920
(dp2921
g66
(dp2922
sg75
g2346
sg68
(lp2923
g61
(g82
g63
NtRp2924
(dp2925
g66
(dp2926
g86
g87
ssg75
g2920
sg68
(lp2927
S'wsgi.version'
p2928
asbag61
(g82
g63
NtRp2929
(dp2930
g66
(dp2931
g93
g94
ssg75
g2920
sg68
(lp2932
S':'
asbag61
(g82
g63
NtRp2933
(dp2934
g66
(dp2935
sg75
g2920
sg68
(lp2936
g61
(g62
g63
NtRp2937
(dp2938
g66
(dp2939
g74
I3
ssg75
g2933
sg68
(lp2940
S'1'
asbasbasbasbasbasbasbasbasbasbasbasbasbsS'frames'
p2941
(lp2942
(dp2943
S'file'
p2944
S'/home/perdomor/web2py/gluon/restricted.py'
p2945
sS'dump'
p2946
(dp2947
S'environment'
p2948
S"{'A': <class 'gluon.html.A'>, 'Auth': <class 'gluon.tools.Auth'>, 'B': <class 'gluon.html.B'>, 'BEAUTIFY': <class 'gluon.html.BEAUTIFY'>, 'BODY': <class 'gluon.html.BODY'>, 'BR': <class 'gluon.html.BR'>, 'BUTTON': <class 'gluon.html.BUTTON'>, 'CAT': <class 'gluon.html.CAT'>, 'CENTER': <class 'gluon.html.CENTER'>, 'CLEANUP': <class 'gluon.validators.CLEANUP'>, ...}"
p2949
sS'ccode'
p2950
S'<code object <module> at 0xac418d8, file "/home/...lications/sicoin/controllers/default.py", line 3>'
p2951
ssS'lnum'
p2952
I209
sS'lines'
p2953
(dp2954
I204
S'    try:'
p2955
sI205
S'        if type(code) == types.CodeType:'
p2956
sI206
S'            ccode = code'
p2957
sI207
S'        else:'
p2958
sI208
S'            ccode = compile2(code,layer)'
p2959
sI209
S'        exec ccode in environment'
p2960
sI210
S'    except HTTP:'
p2961
sI211
S'        raise'
p2962
sI212
S'    except RestrictedError:'
p2963
sI213
S'        # do not encapsulate (obfuscate) the original RestrictedError'
p2964
ssS'call'
p2965
S"(code='# -*- coding: utf-8 -*-\\n### required - do no del...rn dict()\\n\\nresponse._vars=response._caller(user)\\n', environment={'A': <class 'gluon.html.A'>, 'Auth': <class 'gluon.tools.Auth'>, 'B': <class 'gluon.html.B'>, 'BEAUTIFY': <class 'gluon.html.BEAUTIFY'>, 'BODY': <class 'gluon.html.BODY'>, 'BR': <class 'gluon.html.BR'>, 'BUTTON': <class 'gluon.html.BUTTON'>, 'CAT': <class 'gluon.html.CAT'>, 'CENTER': <class 'gluon.html.CENTER'>, 'CLEANUP': <class 'gluon.validators.CLEANUP'>, ...}, layer='/home/perdomor/web2py/applications/sicoin/controllers/default.py')"
p2966
sS'func'
p2967
S'restricted'
p2968
sa(dp2969
g2944
S'/home/perdomor/web2py/applications/sicoin/controllers/default.py'
p2970
sg2946
(dp2971
sg2952
I14
sg2953
(dp2972
I3
S"T.force('es')"
p2973
sI4
S'def user(): return dict(form=auth())'
p2974
sI5
S'def download(): return response.download(request,db)'
p2975
sI6
S'def call(): return service()'
p2976
sI7
S'### end requires'
p2977
sI8
S'def index():'
p2978
sI9
S'    return dict()'
p2979
sI10
S''
sI11
S'def error():'
p2980
sI12
S'    return dict()'
p2981
ssg2965
S'()'
p2982
sg2967
S'<module>'
p2983
sa(dp2984
g2944
S'/home/perdomor/web2py/gluon/globals.py'
p2985
sg2946
(dp2986
S'self'
p2987
S'undefined'
p2988
sS'f'
S'<function user>'
p2989
ssg2952
I186
sg2953
(dp2990
I181
S'        self.menu = []             # used by the default view layout'
p2991
sI182
S'        self.files = []            # used by web2py_ajax.html'
p2992
sI183
S'        self.generic_patterns = [] # patterns to allow generic views'
p2993
sI184
S"        self.delimiters = ('{{','}}')"
p2994
sI185
S'        self._vars = None'
p2995
sI186
S'        self._caller = lambda f: f()'
p2996
sI187
S'        self._view_environment = None'
p2997
sI188
S'        self._custom_commit = None'
p2998
sI189
S'        self._custom_rollback = None'
p2999
sI190
S''
ssg2965
S'(f=<function user>)'
p3000
sg2967
S'<lambda>'
p3001
sa(dp3002
g2944
S'/home/perdomor/web2py/applications/sicoin/controllers/default.py'
p3003
sg2946
(dp3004
S'global auth'
p3005
S'<gluon.tools.Auth object>'
p3006
sS'form'
p3007
g2988
sS'global user'
p3008
S'<function user>'
p3009
sS'builtindict'
p3010
S"<type 'dict'>"
p3011
ssg2952
I4
sg2953
(dp3012
I2
S'### required - do no delete'
p3013
sI3
S"T.force('es')"
p3014
sI4
S'def user(): return dict(form=auth())'
p3015
sI5
S'def download(): return response.download(request,db)'
p3016
sI6
S'def call(): return service()'
p3017
sI7
S'### end requires'
p3018
sI8
S'def index():'
p3019
sI9
S'    return dict()'
p3020
sI10
S''
sI11
S'def error():'
p3021
ssg2965
S'()'
p3022
sg2967
S'user'
p3023
sa(dp3024
g2944
S'/home/perdomor/web2py/gluon/tools.py'
p3025
sg2946
(dp3026
S'self'
p3027
S'<gluon.tools.Auth object>'
p3028
sS'args'
p3029
S"['logout']"
p3030
sS'builtingetattr'
p3031
S'<built-in function getattr>'
p3032
ssg2952
I1194
sg2953
(dp3033
I1189
S"        if args[0] in ('login','logout','register','verify_email',"
p3034
sI1190
S"                       'retrieve_username','retrieve_password',"
p3035
sI1191
S"                       'reset_password','request_reset_password',"
p3036
sI1192
S"                       'change_password','profile','groups',"
p3037
sI1193
S"                       'impersonate','not_authorized'):"
p3038
sI1194
S'            return getattr(self,args[0])()'
p3039
sI1195
S"        elif args[0]=='cas' and not self.settings.cas_provider:"
p3040
sI1196
S"            if args(1) == self.settings.cas_actions['login']:"
p3041
sI1197
S'                return self.cas_login(version=2)'
p3042
sI1198
S"            elif args(1) == self.settings.cas_actions['validate']:"
p3043
ssg2965
S'(self=<gluon.tools.Auth object>)'
p3044
sg2967
S'__call__'
p3045
sa(dp3046
g2944
S'/home/perdomor/web2py/gluon/tools.py'
p3047
sg2946
(dp3048
S'self'
p3049
S'<gluon.tools.Auth object>'
p3050
sS'self.user'
p3051
S"<Row {'first_name': 'Roberto', 'last_name': 'Per...207ff30d9ef01', 'registration_key': '', 'id': 1}>"
p3052
sS'self.log_event'
p3053
S'<bound method Auth.log_event of <gluon.tools.Auth object>>'
p3054
sS'log'
p3055
S"'Usuario %(id)s ha finalizado sesi\\xc3\\xb3n'"
p3056
ssg2952
I2050
sg2953
(dp3057
I2048
S'            log = self.messages.logout_log'
p3058
sI2049
S'        if self.user:'
p3059
sI2050
S'            self.log_event(log, self.user)'
p3060
sI2051
S'        if self.settings.login_form != self:'
p3061
sI2052
S'            cas = self.settings.login_form'
p3062
sI2053
S'            cas_user = cas.get_user()'
p3063
sI2054
S'            if cas_user:'
p3064
sI2045
S'        if onlogout:'
p3065
sI2046
S'            onlogout(self.user)'
p3066
sI2047
S'        if log is DEFAULT:'
p3067
ssg2965
S"(self=<gluon.tools.Auth object>, next='/sicoin/default/index', onlogout=None, log='Usuario %(id)s ha finalizado sesi\\xc3\\xb3n')"
p3068
sg2967
S'logout'
p3069
sa(dp3070
g2944
S'/home/perdomor/web2py/gluon/tools.py'
p3071
sg2946
(dp3072
S'origin'
p3073
S"'auth'"
p3074
sS'user_id'
p3075
S'1'
ssg2952
I1635
sg2953
(dp3076
I1632
S'        vars = vars or {}'
p3077
sI1633
S'        self.table_event().insert('
p3078
sI1634
S'            description=description % vars,'
p3079
sI1635
S'            origin=origin, user_id=user_id)'
p3080
sI1636
S''
sI1637
S"    def get_or_create_user(self, keys, update_fields=['email']):"
p3081
sI1638
S'        """'
p3082
sI1639
S'        Used for alternate login methods:'
p3083
sI1630
S'        else:'
p3084
sI1631
S'            user_id = None  # user unknown'
p3085
ssg2965
S"(self=<gluon.tools.Auth object>, description='Usuario %(id)s ha finalizado sesi\\xc3\\xb3n', vars=<Row {'first_name': 'Roberto', 'last_name': 'Per...207ff30d9ef01', 'registration_key': '', 'id': 1}>, origin='auth')"
p3086
sg2967
S'log_event'
p3087
sa(dp3088
g2944
S'/home/perdomor/web2py/gluon/dal.py'
p3089
sg2946
(dp3090
S'self._listify'
p3091
S'<bound method Table._listify of <Table auth_even...ime_stamp,client_ip,user_id,origin,description)>>'
p3092
sS'fields'
p3093
S"{'client_ip': '127.0.0.1', 'description': 'Usuario 1 ha finalizado sesi\\xc3\\xb3n', 'origin': 'auth', 'time_stamp': datetime.datetime(2012, 10, 18, 8, 54, 50, 781499), 'user_id': 1}"
p3094
sS'self'
p3095
S'<Table auth_event (id,time_stamp,client_ip,user_id,origin,description)>'
p3096
sS'ret'
p3097
g2988
sS'self._db._adapter'
p3098
S'<gluon.dal.MySQLAdapter object>'
p3099
sS'self._db._adapter.insert'
p3100
S'<bound method MySQLAdapter.insert of <gluon.dal.MySQLAdapter object>>'
p3101
sS'self._db'
p3102
S'<DAL mysql://root:12345@localhost/db_sicoin>'
p3103
ssg2952
I7793
sg2953
(dp3104
I7788
S'        return self._db._adapter._insert(self,self._listify(fields))'
p3105
sI7789
S''
sI7790
S'    def insert(self, **fields):'
p3106
sI7791
S'        self._attempt_upload(fields)'
p3107
sI7792
S'        if any(f(fields) for f in self._before_insert): return 0'
p3108
sI7793
S'        ret =  self._db._adapter.insert(self,self._listify(fields))'
p3109
sI7794
S'        if ret and self._after_insert:'
p3110
sI7795
S'            fields = Row(fields)'
p3111
sI7796
S'            [f(fields,ret) for f in self._after_insert]'
p3112
sI7797
S'        return ret'
p3113
ssg2965
S"(self=<Table auth_event (id,time_stamp,client_ip,user_id,origin,description)>, **fields={'client_ip': '127.0.0.1', 'description': 'Usuario 1 ha finalizado sesi\\xc3\\xb3n', 'origin': 'auth', 'time_stamp': datetime.datetime(2012, 10, 18, 8, 54, 50, 781499), 'user_id': 1})"
p3114
sg2967
S'insert'
p3115
sa(dp3116
g2944
S'/home/perdomor/web2py/gluon/dal.py'
p3117
sg2946
(dp3118
S'e'
S"IntegrityError(1452, u'Cannot add or update a ch...EFERENCES `auth_user` (`id`) ON DELETE CASCADE)')"
p3119
ssg2952
I1142
sg2953
(dp3120
I1137
S'        try:'
p3121
sI1138
S'            self.execute(query)'
p3122
sI1139
S'        except Exception, e:'
p3123
sI1140
S'            if isinstance(e,self.integrity_error_class()):'
p3124
sI1141
S'                return None'
p3125
sI1142
S'            raise e'
p3126
sI1143
S"        if hasattr(table,'_primarykey'):"
p3127
sI1144
S'            return dict([(k[0].name, k[1]) for k in fields \\'
p3128
sI1145
S'                             if k[0].name in table._primarykey])'
p3129
sI1146
S'        id = self.lastrowid(table)'
p3130
ssg2965
S"(self=<gluon.dal.MySQLAdapter object>, table=<Table auth_event (id,time_stamp,client_ip,user_id,origin,description)>, fields=[(<gluon.dal.Field object>, 'auth'), (<gluon.dal.Field object>, datetime.datetime(2012, 10, 18, 8, 54, 50, 781499)), (<gluon.dal.Field object>, '127.0.0.1'), (<gluon.dal.Field object>, 1), (<gluon.dal.Field object>, 'Usuario 1 ha finalizado sesi\\xc3\\xb3n')])"
p3131
sg2967
g3115
sasS'pyver'
p3132
S'Python 2.7.2+: /usr/bin/python'
p3133
sS'session'
p3134
g61
(g62
g63
NtRp3135
(dp3136
g66
(dp3137
sg68
(lp3138
g61
(g70
g63
NtRp3139
(dp3140
g66
(dp3141
g74
I5
ssg75
Nsg68
(lp3142
g61
(g77
g63
NtRp3143
(dp3144
g66
(dp3145
sg75
g3139
sg68
(lp3146
g61
(g82
g63
NtRp3147
(dp3148
g66
(dp3149
g86
g87
ssg75
g3143
sg68
(lp3150
S'auth'
p3151
asbag61
(g82
g63
NtRp3152
(dp3153
g66
(dp3154
g93
g94
ssg75
g3143
sg68
(lp3155
S':'
asbag61
(g82
g63
NtRp3156
(dp3157
g66
(dp3158
sg75
g3143
sg68
(lp3159
g61
(g62
g63
NtRp3160
(dp3161
g66
(dp3162
g74
I5
ssg75
g3156
sg68
(lp3163
g61
(g70
g63
NtRp3164
(dp3165
g66
(dp3166
g74
I4
ssg75
Nsg68
(lp3167
g61
(g77
g63
NtRp3168
(dp3169
g66
(dp3170
sg75
g3164
sg68
(lp3171
g61
(g82
g63
NtRp3172
(dp3173
g66
(dp3174
g86
g87
ssg75
g3168
sg68
(lp3175
S'expiration'
p3176
asbag61
(g82
g63
NtRp3177
(dp3178
g66
(dp3179
g93
g94
ssg75
g3168
sg68
(lp3180
S':'
asbag61
(g82
g63
NtRp3181
(dp3182
g66
(dp3183
sg75
g3168
sg68
(lp3184
g61
(g62
g63
NtRp3185
(dp3186
g66
(dp3187
g74
I4
ssg75
g3181
sg68
(lp3188
S'3600'
p3189
asbasbasbag61
(g77
g63
NtRp3190
(dp3191
g66
(dp3192
sg75
g3164
sg68
(lp3193
g61
(g82
g63
NtRp3194
(dp3195
g66
(dp3196
g86
g87
ssg75
g3190
sg68
(lp3197
S'hmac_key'
p3198
asbag61
(g82
g63
NtRp3199
(dp3200
g66
(dp3201
g93
g94
ssg75
g3190
sg68
(lp3202
S':'
asbag61
(g82
g63
NtRp3203
(dp3204
g66
(dp3205
sg75
g3190
sg68
(lp3206
g61
(g62
g63
NtRp3207
(dp3208
g66
(dp3209
g74
I4
ssg75
g3203
sg68
(lp3210
S'b510dd12-ec61-4989-a2a1-d9485538ccab'
p3211
asbasbasbag61
(g77
g63
NtRp3212
(dp3213
g66
(dp3214
sg75
g3164
sg68
(lp3215
g61
(g82
g63
NtRp3216
(dp3217
g66
(dp3218
g86
g87
ssg75
g3212
sg68
(lp3219
S'last_visit'
p3220
asbag61
(g82
g63
NtRp3221
(dp3222
g66
(dp3223
g93
g94
ssg75
g3212
sg68
(lp3224
S':'
asbag61
(g82
g63
NtRp3225
(dp3226
g66
(dp3227
sg75
g3212
sg68
(lp3228
g61
(g62
g63
NtRp3229
(dp3230
g66
(dp3231
g74
I4
ssg75
g3225
sg68
(lp3232
S'datetime.datetime(2012, 10, 18, 8, 54, 47, 424244)'
p3233
asbasbasbag61
(g77
g63
NtRp3234
(dp3235
g66
(dp3236
sg75
g3164
sg68
(lp3237
g61
(g82
g63
NtRp3238
(dp3239
g66
(dp3240
g86
g87
ssg75
g3234
sg68
(lp3241
S'remember'
p3242
asbag61
(g82
g63
NtRp3243
(dp3244
g66
(dp3245
g93
g94
ssg75
g3234
sg68
(lp3246
S':'
asbag61
(g82
g63
NtRp3247
(dp3248
g66
(dp3249
sg75
g3234
sg68
(lp3250
g61
(g62
g63
NtRp3251
(dp3252
g66
(dp3253
g74
I4
ssg75
g3247
sg68
(lp3254
g104
asbasbasbag61
(g77
g63
NtRp3255
(dp3256
g66
(dp3257
sg75
g3164
sg68
(lp3258
g61
(g82
g63
NtRp3259
(dp3260
g66
(dp3261
g86
g87
ssg75
g3255
sg68
(lp3262
S'user'
p3263
asbag61
(g82
g63
NtRp3264
(dp3265
g66
(dp3266
g93
g94
ssg75
g3255
sg68
(lp3267
S':'
asbag61
(g82
g63
NtRp3268
(dp3269
g66
(dp3270
sg75
g3255
sg68
(lp3271
g61
(g62
g63
NtRp3272
(dp3273
g66
(dp3274
g74
I4
ssg75
g3268
sg68
(lp3275
g61
(g70
g63
NtRp3276
(dp3277
g66
(dp3278
g74
I3
ssg75
Nsg68
(lp3279
g61
(g77
g63
NtRp3280
(dp3281
g66
(dp3282
sg75
g3276
sg68
(lp3283
g61
(g82
g63
NtRp3284
(dp3285
g66
(dp3286
g86
g87
ssg75
g3280
sg68
(lp3287
S'departamento'
p3288
asbag61
(g82
g63
NtRp3289
(dp3290
g66
(dp3291
g93
g94
ssg75
g3280
sg68
(lp3292
S':'
asbag61
(g82
g63
NtRp3293
(dp3294
g66
(dp3295
sg75
g3280
sg68
(lp3296
g61
(g62
g63
NtRp3297
(dp3298
g66
(dp3299
g74
I3
ssg75
g3293
sg68
(lp3300
S'1'
asbasbasbag61
(g77
g63
NtRp3301
(dp3302
g66
(dp3303
sg75
g3276
sg68
(lp3304
g61
(g82
g63
NtRp3305
(dp3306
g66
(dp3307
g86
g87
ssg75
g3301
sg68
(lp3308
S'email'
p3309
asbag61
(g82
g63
NtRp3310
(dp3311
g66
(dp3312
g93
g94
ssg75
g3301
sg68
(lp3313
S':'
asbag61
(g82
g63
NtRp3314
(dp3315
g66
(dp3316
sg75
g3301
sg68
(lp3317
g61
(g62
g63
NtRp3318
(dp3319
g66
(dp3320
g74
I3
ssg75
g3314
sg68
(lp3321
S'perdomor@ucv.ve'
p3322
asbasbasbag61
(g77
g63
NtRp3323
(dp3324
g66
(dp3325
sg75
g3276
sg68
(lp3326
g61
(g82
g63
NtRp3327
(dp3328
g66
(dp3329
g86
g87
ssg75
g3323
sg68
(lp3330
S'first_name'
p3331
asbag61
(g82
g63
NtRp3332
(dp3333
g66
(dp3334
g93
g94
ssg75
g3323
sg68
(lp3335
S':'
asbag61
(g82
g63
NtRp3336
(dp3337
g66
(dp3338
sg75
g3323
sg68
(lp3339
g61
(g62
g63
NtRp3340
(dp3341
g66
(dp3342
g74
I3
ssg75
g3336
sg68
(lp3343
S'Roberto'
p3344
asbasbasbag61
(g77
g63
NtRp3345
(dp3346
g66
(dp3347
sg75
g3276
sg68
(lp3348
g61
(g82
g63
NtRp3349
(dp3350
g66
(dp3351
g86
g87
ssg75
g3345
sg68
(lp3352
S'id'
p3353
asbag61
(g82
g63
NtRp3354
(dp3355
g66
(dp3356
g93
g94
ssg75
g3345
sg68
(lp3357
S':'
asbag61
(g82
g63
NtRp3358
(dp3359
g66
(dp3360
sg75
g3345
sg68
(lp3361
g61
(g62
g63
NtRp3362
(dp3363
g66
(dp3364
g74
I3
ssg75
g3358
sg68
(lp3365
S'1'
asbasbasbag61
(g77
g63
NtRp3366
(dp3367
g66
(dp3368
sg75
g3276
sg68
(lp3369
g61
(g82
g63
NtRp3370
(dp3371
g66
(dp3372
g86
g87
ssg75
g3366
sg68
(lp3373
S'last_name'
p3374
asbag61
(g82
g63
NtRp3375
(dp3376
g66
(dp3377
g93
g94
ssg75
g3366
sg68
(lp3378
S':'
asbag61
(g82
g63
NtRp3379
(dp3380
g66
(dp3381
sg75
g3366
sg68
(lp3382
g61
(g62
g63
NtRp3383
(dp3384
g66
(dp3385
g74
I3
ssg75
g3379
sg68
(lp3386
S'Perdomo'
p3387
asbasbasbag61
(g77
g63
NtRp3388
(dp3389
g66
(dp3390
sg75
g3276
sg68
(lp3391
g61
(g82
g63
NtRp3392
(dp3393
g66
(dp3394
g86
g87
ssg75
g3388
sg68
(lp3395
S'password'
p3396
asbag61
(g82
g63
NtRp3397
(dp3398
g66
(dp3399
g93
g94
ssg75
g3388
sg68
(lp3400
S':'
asbag61
(g82
g63
NtRp3401
(dp3402
g66
(dp3403
sg75
g3388
sg68
(lp3404
g61
(g62
g63
NtRp3405
(dp3406
g66
(dp3407
g74
I3
ssg75
g3401
sg68
(lp3408
S'pbkdf2(1000,20,sha512)$bd33bc05e2fa04dc$7ce9fead62fb0444f7eda53b131207ff30d9ef01'
p3409
asbasbasbag61
(g77
g63
NtRp3410
(dp3411
g66
(dp3412
sg75
g3276
sg68
(lp3413
g61
(g82
g63
NtRp3414
(dp3415
g66
(dp3416
g86
g87
ssg75
g3410
sg68
(lp3417
S'registration_id'
p3418
asbag61
(g82
g63
NtRp3419
(dp3420
g66
(dp3421
g93
g94
ssg75
g3410
sg68
(lp3422
S':'
asbag61
(g82
g63
NtRp3423
(dp3424
g66
(dp3425
sg75
g3410
sg68
(lp3426
g61
(g62
g63
NtRp3427
(dp3428
g66
(dp3429
g74
I3
ssg75
g3423
sg68
(lp3430
S''
asbasbasbag61
(g77
g63
NtRp3431
(dp3432
g66
(dp3433
sg75
g3276
sg68
(lp3434
g61
(g82
g63
NtRp3435
(dp3436
g66
(dp3437
g86
g87
ssg75
g3431
sg68
(lp3438
S'registration_key'
p3439
asbag61
(g82
g63
NtRp3440
(dp3441
g66
(dp3442
g93
g94
ssg75
g3431
sg68
(lp3443
S':'
asbag61
(g82
g63
NtRp3444
(dp3445
g66
(dp3446
sg75
g3431
sg68
(lp3447
g61
(g62
g63
NtRp3448
(dp3449
g66
(dp3450
g74
I3
ssg75
g3444
sg68
(lp3451
S''
asbasbasbag61
(g77
g63
NtRp3452
(dp3453
g66
(dp3454
sg75
g3276
sg68
(lp3455
g61
(g82
g63
NtRp3456
(dp3457
g66
(dp3458
g86
g87
ssg75
g3452
sg68
(lp3459
S'reset_password_key'
p3460
asbag61
(g82
g63
NtRp3461
(dp3462
g66
(dp3463
g93
g94
ssg75
g3452
sg68
(lp3464
S':'
asbag61
(g82
g63
NtRp3465
(dp3466
g66
(dp3467
sg75
g3452
sg68
(lp3468
g61
(g62
g63
NtRp3469
(dp3470
g66
(dp3471
g74
I3
ssg75
g3465
sg68
(lp3472
S''
asbasbasbasbasbasbasbag61
(g77
g63
NtRp3473
(dp3474
g66
(dp3475
sg75
g3164
sg68
(lp3476
g61
(g82
g63
NtRp3477
(dp3478
g66
(dp3479
g86
g87
ssg75
g3473
sg68
(lp3480
S'user_groups'
p3481
asbag61
(g82
g63
NtRp3482
(dp3483
g66
(dp3484
g93
g94
ssg75
g3473
sg68
(lp3485
S':'
asbag61
(g82
g63
NtRp3486
(dp3487
g66
(dp3488
sg75
g3473
sg68
(lp3489
g61
(g62
g63
NtRp3490
(dp3491
g66
(dp3492
g74
I4
ssg75
g3486
sg68
(lp3493
g61
(g70
g63
NtRp3494
(dp3495
g66
(dp3496
g74
I3
ssg75
Nsg68
(lp3497
g61
(g77
g63
NtRp3498
(dp3499
g66
(dp3500
sg75
g3494
sg68
(lp3501
g61
(g82
g63
NtRp3502
(dp3503
g66
(dp3504
g86
g87
ssg75
g3498
sg68
(lp3505
S'1'
asbag61
(g82
g63
NtRp3506
(dp3507
g66
(dp3508
g93
g94
ssg75
g3498
sg68
(lp3509
S':'
asbag61
(g82
g63
NtRp3510
(dp3511
g66
(dp3512
sg75
g3498
sg68
(lp3513
g61
(g62
g63
NtRp3514
(dp3515
g66
(dp3516
g74
I3
ssg75
g3510
sg68
(lp3517
S'user_1'
p3518
asbasbasbag61
(g77
g63
NtRp3519
(dp3520
g66
(dp3521
sg75
g3494
sg68
(lp3522
g61
(g82
g63
NtRp3523
(dp3524
g66
(dp3525
g86
g87
ssg75
g3519
sg68
(lp3526
S'2'
asbag61
(g82
g63
NtRp3527
(dp3528
g66
(dp3529
g93
g94
ssg75
g3519
sg68
(lp3530
S':'
asbag61
(g82
g63
NtRp3531
(dp3532
g66
(dp3533
sg75
g3519
sg68
(lp3534
g61
(g62
g63
NtRp3535
(dp3536
g66
(dp3537
g74
I3
ssg75
g3531
sg68
(lp3538
S'administrador'
p3539
asbasbasbag61
(g77
g63
NtRp3540
(dp3541
g66
(dp3542
sg75
g3494
sg68
(lp3543
g61
(g82
g63
NtRp3544
(dp3545
g66
(dp3546
g86
g87
ssg75
g3540
sg68
(lp3547
S'4'
asbag61
(g82
g63
NtRp3548
(dp3549
g66
(dp3550
g93
g94
ssg75
g3540
sg68
(lp3551
S':'
asbag61
(g82
g63
NtRp3552
(dp3553
g66
(dp3554
sg75
g3540
sg68
(lp3555
g61
(g62
g63
NtRp3556
(dp3557
g66
(dp3558
g74
I3
ssg75
g3552
sg68
(lp3559
S'analista'
p3560
asbasbasbasbasbasbasbasbasbasbasbag61
(g77
g63
NtRp3561
(dp3562
g66
(dp3563
sg75
g3139
sg68
(lp3564
g61
(g82
g63
NtRp3565
(dp3566
g66
(dp3567
g86
g87
ssg75
g3561
sg68
(lp3568
S'flash'
p3569
asbag61
(g82
g63
NtRp3570
(dp3571
g66
(dp3572
g93
g94
ssg75
g3561
sg68
(lp3573
S':'
asbag61
(g82
g63
NtRp3574
(dp3575
g66
(dp3576
sg75
g3561
sg68
(lp3577
g61
(g62
g63
NtRp3578
(dp3579
g66
(dp3580
g74
I5
ssg75
g3574
sg68
(lp3581
S'None'
p3582
asbasbasbag61
(g77
g63
NtRp3583
(dp3584
g66
(dp3585
sg75
g3139
sg68
(lp3586
g61
(g82
g63
NtRp3587
(dp3588
g66
(dp3589
g86
g87
ssg75
g3583
sg68
(lp3590
S'last_orderby'
p3591
asbag61
(g82
g63
NtRp3592
(dp3593
g66
(dp3594
g93
g94
ssg75
g3583
sg68
(lp3595
S':'
asbag61
(g82
g63
NtRp3596
(dp3597
g66
(dp3598
sg75
g3583
sg68
(lp3599
g61
(g62
g63
NtRp3600
(dp3601
g66
(dp3602
g74
I5
ssg75
g3596
sg68
(lp3603
S'None'
p3604
asbasbasbag61
(g77
g63
NtRp3605
(dp3606
g66
(dp3607
sg75
g3139
sg68
(lp3608
g61
(g82
g63
NtRp3609
(dp3610
g66
(dp3611
g86
g87
ssg75
g3605
sg68
(lp3612
S'last_query'
p3613
asbag61
(g82
g63
NtRp3614
(dp3615
g66
(dp3616
g93
g94
ssg75
g3605
sg68
(lp3617
S':'
asbag61
(g82
g63
NtRp3618
(dp3619
g66
(dp3620
sg75
g3605
sg68
(lp3621
g61
(g62
g63
NtRp3622
(dp3623
g66
(dp3624
g74
I5
ssg75
g3618
sg68
(lp3625
S'db.auth_user.id>0'
p3626
asbasbasbasbasbsS'etype'
p3627
S"<class 'gluon.contrib.pymysql.err.IntegrityError'>"
p3628
sS'date'
p3629
S'Thu Oct 18 08:54:50 2012'
p3630
sS'response'
p3631
g61
(g62
g63
NtRp3632
(dp3633
g66
(dp3634
sg68
(lp3635
g61
(g70
g63
NtRp3636
(dp3637
g66
(dp3638
g74
I5
ssg75
Nsg68
(lp3639
g61
(g77
g63
NtRp3640
(dp3641
g66
(dp3642
sg75
g3636
sg68
(lp3643
g61
(g82
g63
NtRp3644
(dp3645
g66
(dp3646
g86
g87
ssg75
g3640
sg68
(lp3647
g172
asbag61
(g82
g63
NtRp3648
(dp3649
g66
(dp3650
g93
g94
ssg75
g3640
sg68
(lp3651
S':'
asbag61
(g82
g63
NtRp3652
(dp3653
g66
(dp3654
sg75
g3640
sg68
(lp3655
g61
(g62
g63
NtRp3656
(dp3657
g66
(dp3658
g74
I5
ssg75
g3652
sg68
(lp3659
S'<cStringIO.StringO object at 0xa5c6dc0>'
p3660
asbasbasbag61
(g77
g63
NtRp3661
(dp3662
g66
(dp3663
sg75
g3636
sg68
(lp3664
g61
(g82
g63
NtRp3665
(dp3666
g66
(dp3667
g86
g87
ssg75
g3661
sg68
(lp3668
g260
asbag61
(g82
g63
NtRp3669
(dp3670
g66
(dp3671
g93
g94
ssg75
g3661
sg68
(lp3672
S':'
asbag61
(g82
g63
NtRp3673
(dp3674
g66
(dp3675
sg75
g3661
sg68
(lp3676
g61
(g62
g63
NtRp3677
(dp3678
g66
(dp3679
g74
I5
ssg75
g3673
sg68
(lp3680
g61
(g70
g63
NtRp3681
(dp3682
g66
(dp3683
g74
I4
ssg75
Nsg68
(lp3684
g61
(g77
g63
NtRp3685
(dp3686
g66
(dp3687
sg75
g3681
sg68
(lp3688
g61
(g82
g63
NtRp3689
(dp3690
g66
(dp3691
g86
g87
ssg75
g3685
sg68
(lp3692
S'session_id_sicoin'
p3693
asbag61
(g82
g63
NtRp3694
(dp3695
g66
(dp3696
g93
g94
ssg75
g3685
sg68
(lp3697
S':'
asbag61
(g82
g63
NtRp3698
(dp3699
g66
(dp3700
sg75
g3685
sg68
(lp3701
g61
(g62
g63
NtRp3702
(dp3703
g66
(dp3704
g74
I4
ssg75
g3698
sg68
(lp3705
g492
ag61
(g70
g63
NtRp3706
(dp3707
g66
(dp3708
g74
I3
ssg75
Nsg68
(lp3709
g61
(g77
g63
NtRp3710
(dp3711
g66
(dp3712
sg75
g3706
sg68
(lp3713
g61
(g82
g63
NtRp3714
(dp3715
g66
(dp3716
g86
g87
ssg75
g3710
sg68
(lp3717
g311
asbag61
(g82
g63
NtRp3718
(dp3719
g66
(dp3720
g93
g94
ssg75
g3710
sg68
(lp3721
S':'
asbag61
(g82
g63
NtRp3722
(dp3723
g66
(dp3724
sg75
g3710
sg68
(lp3725
g61
(g62
g63
NtRp3726
(dp3727
g66
(dp3728
g74
I3
ssg75
g3722
sg68
(lp3729
S''
asbasbasbag61
(g77
g63
NtRp3730
(dp3731
g66
(dp3732
sg75
g3706
sg68
(lp3733
g61
(g82
g63
NtRp3734
(dp3735
g66
(dp3736
g86
g87
ssg75
g3730
sg68
(lp3737
g332
asbag61
(g82
g63
NtRp3738
(dp3739
g66
(dp3740
g93
g94
ssg75
g3730
sg68
(lp3741
S':'
asbag61
(g82
g63
NtRp3742
(dp3743
g66
(dp3744
sg75
g3730
sg68
(lp3745
g61
(g62
g63
NtRp3746
(dp3747
g66
(dp3748
g74
I3
ssg75
g3742
sg68
(lp3749
S''
asbasbasbag61
(g77
g63
NtRp3750
(dp3751
g66
(dp3752
sg75
g3706
sg68
(lp3753
g61
(g82
g63
NtRp3754
(dp3755
g66
(dp3756
g86
g87
ssg75
g3750
sg68
(lp3757
g353
asbag61
(g82
g63
NtRp3758
(dp3759
g66
(dp3760
g93
g94
ssg75
g3750
sg68
(lp3761
S':'
asbag61
(g82
g63
NtRp3762
(dp3763
g66
(dp3764
sg75
g3750
sg68
(lp3765
g61
(g62
g63
NtRp3766
(dp3767
g66
(dp3768
g74
I3
ssg75
g3762
sg68
(lp3769
S''
asbasbasbag61
(g77
g63
NtRp3770
(dp3771
g66
(dp3772
sg75
g3706
sg68
(lp3773
g61
(g82
g63
NtRp3774
(dp3775
g66
(dp3776
g86
g87
ssg75
g3770
sg68
(lp3777
g374
asbag61
(g82
g63
NtRp3778
(dp3779
g66
(dp3780
g93
g94
ssg75
g3770
sg68
(lp3781
S':'
asbag61
(g82
g63
NtRp3782
(dp3783
g66
(dp3784
sg75
g3770
sg68
(lp3785
g61
(g62
g63
NtRp3786
(dp3787
g66
(dp3788
g74
I3
ssg75
g3782
sg68
(lp3789
S''
asbasbasbag61
(g77
g63
NtRp3790
(dp3791
g66
(dp3792
sg75
g3706
sg68
(lp3793
g61
(g82
g63
NtRp3794
(dp3795
g66
(dp3796
g86
g87
ssg75
g3790
sg68
(lp3797
g395
asbag61
(g82
g63
NtRp3798
(dp3799
g66
(dp3800
g93
g94
ssg75
g3790
sg68
(lp3801
S':'
asbag61
(g82
g63
NtRp3802
(dp3803
g66
(dp3804
sg75
g3790
sg68
(lp3805
g61
(g62
g63
NtRp3806
(dp3807
g66
(dp3808
g74
I3
ssg75
g3802
sg68
(lp3809
S''
asbasbasbag61
(g77
g63
NtRp3810
(dp3811
g66
(dp3812
sg75
g3706
sg68
(lp3813
g61
(g82
g63
NtRp3814
(dp3815
g66
(dp3816
g86
g87
ssg75
g3810
sg68
(lp3817
g416
asbag61
(g82
g63
NtRp3818
(dp3819
g66
(dp3820
g93
g94
ssg75
g3810
sg68
(lp3821
S':'
asbag61
(g82
g63
NtRp3822
(dp3823
g66
(dp3824
sg75
g3810
sg68
(lp3825
g61
(g62
g63
NtRp3826
(dp3827
g66
(dp3828
g74
I3
ssg75
g3822
sg68
(lp3829
S'/'
asbasbasbag61
(g77
g63
NtRp3830
(dp3831
g66
(dp3832
sg75
g3706
sg68
(lp3833
g61
(g82
g63
NtRp3834
(dp3835
g66
(dp3836
g86
g87
ssg75
g3830
sg68
(lp3837
g437
asbag61
(g82
g63
NtRp3838
(dp3839
g66
(dp3840
g93
g94
ssg75
g3830
sg68
(lp3841
S':'
asbag61
(g82
g63
NtRp3842
(dp3843
g66
(dp3844
sg75
g3830
sg68
(lp3845
g61
(g62
g63
NtRp3846
(dp3847
g66
(dp3848
g74
I3
ssg75
g3842
sg68
(lp3849
S''
asbasbasbag61
(g77
g63
NtRp3850
(dp3851
g66
(dp3852
sg75
g3706
sg68
(lp3853
g61
(g82
g63
NtRp3854
(dp3855
g66
(dp3856
g86
g87
ssg75
g3850
sg68
(lp3857
g458
asbag61
(g82
g63
NtRp3858
(dp3859
g66
(dp3860
g93
g94
ssg75
g3850
sg68
(lp3861
S':'
asbag61
(g82
g63
NtRp3862
(dp3863
g66
(dp3864
sg75
g3850
sg68
(lp3865
g61
(g62
g63
NtRp3866
(dp3867
g66
(dp3868
g74
I3
ssg75
g3862
sg68
(lp3869
S''
asbasbasbasbasbasbasbasbasbasbasbag61
(g77
g63
NtRp3870
(dp3871
g66
(dp3872
sg75
g3636
sg68
(lp3873
g61
(g82
g63
NtRp3874
(dp3875
g66
(dp3876
g86
g87
ssg75
g3870
sg68
(lp3877
S'delimiters'
p3878
asbag61
(g82
g63
NtRp3879
(dp3880
g66
(dp3881
g93
g94
ssg75
g3870
sg68
(lp3882
S':'
asbag61
(g82
g63
NtRp3883
(dp3884
g66
(dp3885
sg75
g3870
sg68
(lp3886
g61
(g62
g63
NtRp3887
(dp3888
g66
(dp3889
g74
I5
ssg75
g3883
sg68
(lp3890
g61
(g70
g63
NtRp3891
(dp3892
g66
(dp3893
g74
I4
ssg75
Nsg68
(lp3894
g61
(g77
g63
NtRp3895
(dp3896
g66
(dp3897
sg75
g3891
sg68
(lp3898
g61
(g82
g63
NtRp3899
(dp3900
g66
(dp3901
sg75
g3895
sg68
(lp3902
g61
(g62
g63
NtRp3903
(dp3904
g66
(dp3905
g74
I4
ssg75
g3899
sg68
(lp3906
S'{{'
p3907
asbasbasbag61
(g77
g63
NtRp3908
(dp3909
g66
(dp3910
sg75
g3891
sg68
(lp3911
g61
(g82
g63
NtRp3912
(dp3913
g66
(dp3914
sg75
g3908
sg68
(lp3915
g61
(g62
g63
NtRp3916
(dp3917
g66
(dp3918
g74
I4
ssg75
g3912
sg68
(lp3919
S'}}'
p3920
asbasbasbasbasbasbasbag61
(g77
g63
NtRp3921
(dp3922
g66
(dp3923
sg75
g3636
sg68
(lp3924
g61
(g82
g63
NtRp3925
(dp3926
g66
(dp3927
g86
g87
ssg75
g3921
sg68
(lp3928
S'files'
p3929
asbag61
(g82
g63
NtRp3930
(dp3931
g66
(dp3932
g93
g94
ssg75
g3921
sg68
(lp3933
S':'
asbag61
(g82
g63
NtRp3934
(dp3935
g66
(dp3936
sg75
g3921
sg68
(lp3937
g61
(g62
g63
NtRp3938
(dp3939
g66
(dp3940
g74
I5
ssg75
g3934
sg68
(lp3941
g61
(g70
g63
NtRp3942
(dp3943
g66
(dp3944
g74
I4
ssg75
Nsg68
(lp3945
sbasbasbasbag61
(g77
g63
NtRp3946
(dp3947
g66
(dp3948
sg75
g3636
sg68
(lp3949
g61
(g82
g63
NtRp3950
(dp3951
g66
(dp3952
g86
g87
ssg75
g3946
sg68
(lp3953
S'flash'
p3954
asbag61
(g82
g63
NtRp3955
(dp3956
g66
(dp3957
g93
g94
ssg75
g3946
sg68
(lp3958
S':'
asbag61
(g82
g63
NtRp3959
(dp3960
g66
(dp3961
sg75
g3946
sg68
(lp3962
g61
(g62
g63
NtRp3963
(dp3964
g66
(dp3965
g74
I5
ssg75
g3959
sg68
(lp3966
S''
asbasbasbag61
(g77
g63
NtRp3967
(dp3968
g66
(dp3969
sg75
g3636
sg68
(lp3970
g61
(g82
g63
NtRp3971
(dp3972
g66
(dp3973
g86
g87
ssg75
g3967
sg68
(lp3974
S'generic_patterns'
p3975
asbag61
(g82
g63
NtRp3976
(dp3977
g66
(dp3978
g93
g94
ssg75
g3967
sg68
(lp3979
S':'
asbag61
(g82
g63
NtRp3980
(dp3981
g66
(dp3982
sg75
g3967
sg68
(lp3983
g61
(g62
g63
NtRp3984
(dp3985
g66
(dp3986
g74
I5
ssg75
g3980
sg68
(lp3987
g61
(g70
g63
NtRp3988
(dp3989
g66
(dp3990
g74
I4
ssg75
Nsg68
(lp3991
g61
(g77
g63
NtRp3992
(dp3993
g66
(dp3994
sg75
g3988
sg68
(lp3995
g61
(g82
g63
NtRp3996
(dp3997
g66
(dp3998
sg75
g3992
sg68
(lp3999
g61
(g62
g63
NtRp4000
(dp4001
g66
(dp4002
g74
I4
ssg75
g3996
sg68
(lp4003
S'*'
asbasbasbasbasbasbasbag61
(g77
g63
NtRp4004
(dp4005
g66
(dp4006
sg75
g3636
sg68
(lp4007
g61
(g82
g63
NtRp4008
(dp4009
g66
(dp4010
g86
g87
ssg75
g4004
sg68
(lp4011
S'headers'
p4012
asbag61
(g82
g63
NtRp4013
(dp4014
g66
(dp4015
g93
g94
ssg75
g4004
sg68
(lp4016
S':'
asbag61
(g82
g63
NtRp4017
(dp4018
g66
(dp4019
sg75
g4004
sg68
(lp4020
g61
(g62
g63
NtRp4021
(dp4022
g66
(dp4023
g74
I5
ssg75
g4017
sg68
(lp4024
g61
(g70
g63
NtRp4025
(dp4026
g66
(dp4027
g74
I4
ssg75
Nsg68
(lp4028
g61
(g77
g63
NtRp4029
(dp4030
g66
(dp4031
sg75
g4025
sg68
(lp4032
g61
(g82
g63
NtRp4033
(dp4034
g66
(dp4035
g86
g87
ssg75
g4029
sg68
(lp4036
S'X-Powered-By'
p4037
asbag61
(g82
g63
NtRp4038
(dp4039
g66
(dp4040
g93
g94
ssg75
g4029
sg68
(lp4041
S':'
asbag61
(g82
g63
NtRp4042
(dp4043
g66
(dp4044
sg75
g4029
sg68
(lp4045
g61
(g62
g63
NtRp4046
(dp4047
g66
(dp4048
g74
I4
ssg75
g4042
sg68
(lp4049
S'web2py'
p4050
asbasbasbasbasbasbasbag61
(g77
g63
NtRp4051
(dp4052
g66
(dp4053
sg75
g3636
sg68
(lp4054
g61
(g82
g63
NtRp4055
(dp4056
g66
(dp4057
g86
g87
ssg75
g4051
sg68
(lp4058
S'menu'
p4059
asbag61
(g82
g63
NtRp4060
(dp4061
g66
(dp4062
g93
g94
ssg75
g4051
sg68
(lp4063
S':'
asbag61
(g82
g63
NtRp4064
(dp4065
g66
(dp4066
sg75
g4051
sg68
(lp4067
g61
(g62
g63
NtRp4068
(dp4069
g66
(dp4070
g74
I5
ssg75
g4064
sg68
(lp4071
g61
(g70
g63
NtRp4072
(dp4073
g66
(dp4074
g74
I4
ssg75
Nsg68
(lp4075
g61
(g77
g63
NtRp4076
(dp4077
g66
(dp4078
sg75
g4072
sg68
(lp4079
g61
(g82
g63
NtRp4080
(dp4081
g66
(dp4082
sg75
g4076
sg68
(lp4083
g61
(g62
g63
NtRp4084
(dp4085
g66
(dp4086
g74
I4
ssg75
g4080
sg68
(lp4087
g61
(g70
g63
NtRp4088
(dp4089
g66
(dp4090
g74
I3
ssg75
Nsg68
(lp4091
g61
(g77
g63
NtRp4092
(dp4093
g66
(dp4094
sg75
g4088
sg68
(lp4095
g61
(g82
g63
NtRp4096
(dp4097
g66
(dp4098
sg75
g4092
sg68
(lp4099
g61
(g62
g63
NtRp4100
(dp4101
g66
(dp4102
g74
I3
ssg75
g4096
sg68
(lp4103
cgluon.languages
lazyT_unpickle
p4104
(S's\x06\x00\x00\x00Indice'
tRp4105
asbasbasbag61
(g77
g63
NtRp4106
(dp4107
g66
(dp4108
sg75
g4088
sg68
(lp4109
g61
(g82
g63
NtRp4110
(dp4111
g66
(dp4112
sg75
g4106
sg68
(lp4113
g61
(g62
g63
NtRp4114
(dp4115
g66
(dp4116
g74
I3
ssg75
g4110
sg68
(lp4117
g104
asbasbasbag61
(g77
g63
NtRp4118
(dp4119
g66
(dp4120
sg75
g4088
sg68
(lp4121
g61
(g82
g63
NtRp4122
(dp4123
g66
(dp4124
sg75
g4118
sg68
(lp4125
g61
(g62
g63
NtRp4126
(dp4127
g66
(dp4128
g74
I3
ssg75
g4122
sg68
(lp4129
S'/sicoin/default/index'
p4130
asbasbasbag61
(g77
g63
NtRp4131
(dp4132
g66
(dp4133
sg75
g4088
sg68
(lp4134
g61
(g82
g63
NtRp4135
(dp4136
g66
(dp4137
sg75
g4131
sg68
(lp4138
g61
(g62
g63
NtRp4139
(dp4140
g66
(dp4141
g74
I3
ssg75
g4135
sg68
(lp4142
g61
(g70
g63
NtRp4143
(dp4144
g66
(dp4145
g74
I2
ssg75
Nsg68
(lp4146
sbasbasbasbasbasbasbasbasbasbasbasbag61
(g77
g63
NtRp4147
(dp4148
g66
(dp4149
sg75
g3636
sg68
(lp4150
g61
(g82
g63
NtRp4151
(dp4152
g66
(dp4153
g86
g87
ssg75
g4147
sg68
(lp4154
S'meta'
p4155
asbag61
(g82
g63
NtRp4156
(dp4157
g66
(dp4158
g93
g94
ssg75
g4147
sg68
(lp4159
S':'
asbag61
(g82
g63
NtRp4160
(dp4161
g66
(dp4162
sg75
g4147
sg68
(lp4163
g61
(g62
g63
NtRp4164
(dp4165
g66
(dp4166
g74
I5
ssg75
g4160
sg68
(lp4167
g61
(g70
g63
NtRp4168
(dp4169
g66
(dp4170
g74
I4
ssg75
Nsg68
(lp4171
g61
(g77
g63
NtRp4172
(dp4173
g66
(dp4174
sg75
g4168
sg68
(lp4175
g61
(g82
g63
NtRp4176
(dp4177
g66
(dp4178
g86
g87
ssg75
g4172
sg68
(lp4179
S'author'
p4180
asbag61
(g82
g63
NtRp4181
(dp4182
g66
(dp4183
g93
g94
ssg75
g4172
sg68
(lp4184
S':'
asbag61
(g82
g63
NtRp4185
(dp4186
g66
(dp4187
sg75
g4172
sg68
(lp4188
g61
(g62
g63
NtRp4189
(dp4190
g66
(dp4191
g74
I4
ssg75
g4185
sg68
(lp4192
S'TIC - FIPU <perdomor@ucv.ve>'
p4193
asbasbasbag61
(g77
g63
NtRp4194
(dp4195
g66
(dp4196
sg75
g4168
sg68
(lp4197
g61
(g82
g63
NtRp4198
(dp4199
g66
(dp4200
g86
g87
ssg75
g4194
sg68
(lp4201
S'description'
p4202
asbag61
(g82
g63
NtRp4203
(dp4204
g66
(dp4205
g93
g94
ssg75
g4194
sg68
(lp4206
S':'
asbag61
(g82
g63
NtRp4207
(dp4208
g66
(dp4209
sg75
g4194
sg68
(lp4210
g61
(g62
g63
NtRp4211
(dp4212
g66
(dp4213
g74
I4
ssg75
g4207
sg68
(lp4214
S''
asbasbasbag61
(g77
g63
NtRp4215
(dp4216
g66
(dp4217
sg75
g4168
sg68
(lp4218
g61
(g82
g63
NtRp4219
(dp4220
g66
(dp4221
g86
g87
ssg75
g4215
sg68
(lp4222
S'keywords'
p4223
asbag61
(g82
g63
NtRp4224
(dp4225
g66
(dp4226
g93
g94
ssg75
g4215
sg68
(lp4227
S':'
asbag61
(g82
g63
NtRp4228
(dp4229
g66
(dp4230
sg75
g4215
sg68
(lp4231
g61
(g62
g63
NtRp4232
(dp4233
g66
(dp4234
g74
I4
ssg75
g4228
sg68
(lp4235
S''
asbasbasbasbasbasbasbag61
(g77
g63
NtRp4236
(dp4237
g66
(dp4238
sg75
g3636
sg68
(lp4239
g61
(g82
g63
NtRp4240
(dp4241
g66
(dp4242
g86
g87
ssg75
g4236
sg68
(lp4243
S'models_to_run'
p4244
asbag61
(g82
g63
NtRp4245
(dp4246
g66
(dp4247
g93
g94
ssg75
g4236
sg68
(lp4248
S':'
asbag61
(g82
g63
NtRp4249
(dp4250
g66
(dp4251
sg75
g4236
sg68
(lp4252
g61
(g62
g63
NtRp4253
(dp4254
g66
(dp4255
g74
I5
ssg75
g4249
sg68
(lp4256
g61
(g70
g63
NtRp4257
(dp4258
g66
(dp4259
g74
I4
ssg75
Nsg68
(lp4260
g61
(g77
g63
NtRp4261
(dp4262
g66
(dp4263
sg75
g4257
sg68
(lp4264
g61
(g82
g63
NtRp4265
(dp4266
g66
(dp4267
sg75
g4261
sg68
(lp4268
g61
(g62
g63
NtRp4269
(dp4270
g66
(dp4271
g74
I4
ssg75
g4265
sg68
(lp4272
S'^\\w+\\.py$'
p4273
asbasbasbag61
(g77
g63
NtRp4274
(dp4275
g66
(dp4276
sg75
g4257
sg68
(lp4277
g61
(g82
g63
NtRp4278
(dp4279
g66
(dp4280
sg75
g4274
sg68
(lp4281
g61
(g62
g63
NtRp4282
(dp4283
g66
(dp4284
g74
I4
ssg75
g4278
sg68
(lp4285
S'^default/\\w+\\.py$'
p4286
asbasbasbag61
(g77
g63
NtRp4287
(dp4288
g66
(dp4289
sg75
g4257
sg68
(lp4290
g61
(g82
g63
NtRp4291
(dp4292
g66
(dp4293
sg75
g4287
sg68
(lp4294
g61
(g62
g63
NtRp4295
(dp4296
g66
(dp4297
g74
I4
ssg75
g4291
sg68
(lp4298
S'^default/user/\\w+\\.py$'
p4299
asbasbasbasbasbasbasbag61
(g77
g63
NtRp4300
(dp4301
g66
(dp4302
sg75
g3636
sg68
(lp4303
g61
(g82
g63
NtRp4304
(dp4305
g66
(dp4306
g86
g87
ssg75
g4300
sg68
(lp4307
S'postprocessing'
p4308
asbag61
(g82
g63
NtRp4309
(dp4310
g66
(dp4311
g93
g94
ssg75
g4300
sg68
(lp4312
S':'
asbag61
(g82
g63
NtRp4313
(dp4314
g66
(dp4315
sg75
g4300
sg68
(lp4316
g61
(g62
g63
NtRp4317
(dp4318
g66
(dp4319
g74
I5
ssg75
g4313
sg68
(lp4320
g61
(g70
g63
NtRp4321
(dp4322
g66
(dp4323
g74
I4
ssg75
Nsg68
(lp4324
sbasbasbasbag61
(g77
g63
NtRp4325
(dp4326
g66
(dp4327
sg75
g3636
sg68
(lp4328
g61
(g82
g63
NtRp4329
(dp4330
g66
(dp4331
g86
g87
ssg75
g4325
sg68
(lp4332
S'session_file'
p4333
asbag61
(g82
g63
NtRp4334
(dp4335
g66
(dp4336
g93
g94
ssg75
g4325
sg68
(lp4337
S':'
asbag61
(g82
g63
NtRp4338
(dp4339
g66
(dp4340
sg75
g4325
sg68
(lp4341
g61
(g62
g63
NtRp4342
(dp4343
g66
(dp4344
g74
I5
ssg75
g4338
sg68
(lp4345
S"<open file '/home/perdomor/web2py/applications/sicoin/sessions/127.0.0.1-d70fa1a1-b5a4-4163-adc6-17d65db896f7', mode 'rb+' at 0xac466a8>"
p4346
asbasbasbag61
(g77
g63
NtRp4347
(dp4348
g66
(dp4349
sg75
g3636
sg68
(lp4350
g61
(g82
g63
NtRp4351
(dp4352
g66
(dp4353
g86
g87
ssg75
g4347
sg68
(lp4354
S'session_filename'
p4355
asbag61
(g82
g63
NtRp4356
(dp4357
g66
(dp4358
g93
g94
ssg75
g4347
sg68
(lp4359
S':'
asbag61
(g82
g63
NtRp4360
(dp4361
g66
(dp4362
sg75
g4347
sg68
(lp4363
g61
(g62
g63
NtRp4364
(dp4365
g66
(dp4366
g74
I5
ssg75
g4360
sg68
(lp4367
S'/home/perdomor/web2py/applications/sicoin/sessions/127.0.0.1-d70fa1a1-b5a4-4163-adc6-17d65db896f7'
p4368
asbasbasbag61
(g77
g63
NtRp4369
(dp4370
g66
(dp4371
sg75
g3636
sg68
(lp4372
g61
(g82
g63
NtRp4373
(dp4374
g66
(dp4375
g86
g87
ssg75
g4369
sg68
(lp4376
S'session_id'
p4377
asbag61
(g82
g63
NtRp4378
(dp4379
g66
(dp4380
g93
g94
ssg75
g4369
sg68
(lp4381
S':'
asbag61
(g82
g63
NtRp4382
(dp4383
g66
(dp4384
sg75
g4369
sg68
(lp4385
g61
(g62
g63
NtRp4386
(dp4387
g66
(dp4388
g74
I5
ssg75
g4382
sg68
(lp4389
g492
asbasbasbag61
(g77
g63
NtRp4390
(dp4391
g66
(dp4392
sg75
g3636
sg68
(lp4393
g61
(g82
g63
NtRp4394
(dp4395
g66
(dp4396
g86
g87
ssg75
g4390
sg68
(lp4397
S'session_id_name'
p4398
asbag61
(g82
g63
NtRp4399
(dp4400
g66
(dp4401
g93
g94
ssg75
g4390
sg68
(lp4402
S':'
asbag61
(g82
g63
NtRp4403
(dp4404
g66
(dp4405
sg75
g4390
sg68
(lp4406
g61
(g62
g63
NtRp4407
(dp4408
g66
(dp4409
g74
I5
ssg75
g4403
sg68
(lp4410
g3693
asbasbasbag61
(g77
g63
NtRp4411
(dp4412
g66
(dp4413
sg75
g3636
sg68
(lp4414
g61
(g82
g63
NtRp4415
(dp4416
g66
(dp4417
g86
g87
ssg75
g4411
sg68
(lp4418
S'session_locked'
p4419
asbag61
(g82
g63
NtRp4420
(dp4421
g66
(dp4422
g93
g94
ssg75
g4411
sg68
(lp4423
S':'
asbag61
(g82
g63
NtRp4424
(dp4425
g66
(dp4426
sg75
g4411
sg68
(lp4427
g61
(g62
g63
NtRp4428
(dp4429
g66
(dp4430
g74
I5
ssg75
g4424
sg68
(lp4431
g1556
asbasbasbag61
(g77
g63
NtRp4432
(dp4433
g66
(dp4434
sg75
g3636
sg68
(lp4435
g61
(g82
g63
NtRp4436
(dp4437
g66
(dp4438
g86
g87
ssg75
g4432
sg68
(lp4439
S'session_new'
p4440
asbag61
(g82
g63
NtRp4441
(dp4442
g66
(dp4443
g93
g94
ssg75
g4432
sg68
(lp4444
S':'
asbag61
(g82
g63
NtRp4445
(dp4446
g66
(dp4447
sg75
g4432
sg68
(lp4448
g61
(g62
g63
NtRp4449
(dp4450
g66
(dp4451
g74
I5
ssg75
g4445
sg68
(lp4452
g104
asbasbasbag61
(g77
g63
NtRp4453
(dp4454
g66
(dp4455
sg75
g3636
sg68
(lp4456
g61
(g82
g63
NtRp4457
(dp4458
g66
(dp4459
g86
g87
ssg75
g4453
sg68
(lp4460
S'status'
p4461
asbag61
(g82
g63
NtRp4462
(dp4463
g66
(dp4464
g93
g94
ssg75
g4453
sg68
(lp4465
S':'
asbag61
(g82
g63
NtRp4466
(dp4467
g66
(dp4468
sg75
g4453
sg68
(lp4469
g61
(g62
g63
NtRp4470
(dp4471
g66
(dp4472
g74
I5
ssg75
g4466
sg68
(lp4473
S'200'
p4474
asbasbasbag61
(g77
g63
NtRp4475
(dp4476
g66
(dp4477
sg75
g3636
sg68
(lp4478
g61
(g82
g63
NtRp4479
(dp4480
g66
(dp4481
g86
g87
ssg75
g4475
sg68
(lp4482
S'subtitle'
p4483
asbag61
(g82
g63
NtRp4484
(dp4485
g66
(dp4486
g93
g94
ssg75
g4475
sg68
(lp4487
S':'
asbag61
(g82
g63
NtRp4488
(dp4489
g66
(dp4490
sg75
g4475
sg68
(lp4491
g61
(g62
g63
NtRp4492
(dp4493
g66
(dp4494
g74
I5
ssg75
g4488
sg68
(lp4495
S'Sistema Integrado de Correspondencia Interna'
p4496
asbasbasbag61
(g77
g63
NtRp4497
(dp4498
g66
(dp4499
sg75
g3636
sg68
(lp4500
g61
(g82
g63
NtRp4501
(dp4502
g66
(dp4503
g86
g87
ssg75
g4497
sg68
(lp4504
S'title'
p4505
asbag61
(g82
g63
NtRp4506
(dp4507
g66
(dp4508
g93
g94
ssg75
g4497
sg68
(lp4509
S':'
asbag61
(g82
g63
NtRp4510
(dp4511
g66
(dp4512
sg75
g4497
sg68
(lp4513
g61
(g62
g63
NtRp4514
(dp4515
g66
(dp4516
g74
I5
ssg75
g4510
sg68
(lp4517
S'SiCoIn'
p4518
asbasbasbag61
(g77
g63
NtRp4519
(dp4520
g66
(dp4521
sg75
g3636
sg68
(lp4522
g61
(g82
g63
NtRp4523
(dp4524
g66
(dp4525
g86
g87
ssg75
g4519
sg68
(lp4526
S'view'
p4527
asbag61
(g82
g63
NtRp4528
(dp4529
g66
(dp4530
g93
g94
ssg75
g4519
sg68
(lp4531
S':'
asbag61
(g82
g63
NtRp4532
(dp4533
g66
(dp4534
sg75
g4519
sg68
(lp4535
g61
(g62
g63
NtRp4536
(dp4537
g66
(dp4538
g74
I5
ssg75
g4532
sg68
(lp4539
S'default/user.html'
p4540
asbasbasbasbasbsS'locals'
p4541
(dp4542
S'query'
p4543
S'"INSERT INTO auth_event(origin,time_stamp,client_...\'127.0.0.1\',1,\'Usuario 1 ha finalizado sesi\\xc3\\xb3n\');"'
p4544
sS'self'
p4545
S'<gluon.dal.MySQLAdapter object>'
p4546
sS'e'
S"IntegrityError(1452, u'Cannot add or update a ch...EFERENCES `auth_user` (`id`) ON DELETE CASCADE)')"
p4547
sS'fields'
p4548
S"[(<gluon.dal.Field object>, 'auth'), (<gluon.dal.Field object>, datetime.datetime(2012, 10, 18, 8, 54, 50, 781499)), (<gluon.dal.Field object>, '127.0.0.1'), (<gluon.dal.Field object>, 1), (<gluon.dal.Field object>, 'Usuario 1 ha finalizado sesi\\xc3\\xb3n')]"
p4549
sS'table'
p4550
S'<Table auth_event (id,time_stamp,client_ip,user_id,origin,description)>'
p4551
sssS'traceback'
p4552
S'Traceback (most recent call last):\n  File "/home/perdomor/web2py/gluon/restricted.py", line 209, in restricted\n    exec ccode in environment\n  File "/home/perdomor/web2py/applications/sicoin/controllers/default.py", line 14, in <module>\n  File "/home/perdomor/web2py/gluon/globals.py", line 186, in <lambda>\n    self._caller = lambda f: f()\n  File "/home/perdomor/web2py/applications/sicoin/controllers/default.py", line 4, in user\n    def user(): return dict(form=auth())\n  File "/home/perdomor/web2py/gluon/tools.py", line 1194, in __call__\n    return getattr(self,args[0])()\n  File "/home/perdomor/web2py/gluon/tools.py", line 2050, in logout\n    self.log_event(log, self.user)\n  File "/home/perdomor/web2py/gluon/tools.py", line 1635, in log_event\n    origin=origin, user_id=user_id)\n  File "/home/perdomor/web2py/gluon/dal.py", line 7793, in insert\n    ret =  self._db._adapter.insert(self,self._listify(fields))\n  File "/home/perdomor/web2py/gluon/dal.py", line 1142, in insert\n    raise e\nIntegrityError: (1452, u\'Cannot add or update a child row: a foreign key constraint fails (`db_sicoin`.`auth_event`, CONSTRAINT `auth_event_ibfk_1` FOREIGN KEY (`user_id`) REFERENCES `auth_user` (`id`) ON DELETE CASCADE)\')\n'
p4553
s.