(dp1
S'output'
p2
S"<class 'gluon.contrib.pymysql.err.IntegrityError'> (1452, u'Cannot add or update a child row: a foreign key constraint fails (`db_sicoin`.`auth_event`, CONSTRAINT `auth_event_ibfk_1` FOREIGN KEY (`user_id`) REFERENCES `auth_user` (`id`) ON DELETE CASCADE)')"
p3
sS'layer'
p4
S'/home/perdomor/web2py/applications/sicoin/controllers/default.py'
p5
sS'code'
p6
S"# -*- coding: utf-8 -*-\n### required - do no delete\nT.force('es')\ndef user(): return dict(form=auth())\ndef download(): return response.download(request,db)\ndef call(): return service()\n### end requires\ndef index():\n    return dict()\n\ndef error():\n    return dict()\n\nresponse._vars=response._caller(user)\n"
p7
sS'snapshot'
p8
(dp9
S'exception'
p10
(dp11
S'__module__'
p12
S"'gluon.contrib.pymysql.err'"
p13
sS'__getslice__'
p14
S"<method-wrapper '__getslice__' of IntegrityError object>"
p15
sS'__str__'
p16
S"<method-wrapper '__str__' of IntegrityError object>"
p17
sS'__reduce__'
p18
S'<built-in method __reduce__ of IntegrityError object>'
p19
sS'__dict__'
p20
S'{}'
p21
sS'__sizeof__'
p22
S'<built-in method __sizeof__ of IntegrityError object>'
p23
sS'__weakref__'
p24
S'None'
p25
sS'__init__'
p26
S"<method-wrapper '__init__' of IntegrityError object>"
p27
sS'__setattr__'
p28
S"<method-wrapper '__setattr__' of IntegrityError object>"
p29
sS'__reduce_ex__'
p30
S'<built-in method __reduce_ex__ of IntegrityError object>'
p31
sS'__new__'
p32
S'<built-in method __new__ of type object>'
p33
sS'__format__'
p34
S'<built-in method __format__ of IntegrityError object>'
p35
sS'__class__'
p36
S"<class 'gluon.contrib.pymysql.err.IntegrityError'>"
p37
sS'__doc__'
p38
S"'Exception raised when the relational integrity o... foreign key check fails, duplicate key,\\n    etc.'"
p39
sS'__getitem__'
p40
S"<method-wrapper '__getitem__' of IntegrityError object>"
p41
sS'__setstate__'
p42
S'<built-in method __setstate__ of IntegrityError object>'
p43
sS'__getattribute__'
p44
S"<method-wrapper '__getattribute__' of IntegrityError object>"
p45
sS'args'
p46
S"(1452, u'Cannot add or update a child row: a foreign ke...REFERENCES `auth_user` (`id`) ON DELETE CASCADE)')"
p47
sS'__subclasshook__'
p48
S'<built-in method __subclasshook__ of type object>'
p49
sS'__unicode__'
p50
S'<built-in method __unicode__ of IntegrityError object>'
p51
sS'__delattr__'
p52
S"<method-wrapper '__delattr__' of IntegrityError object>"
p53
sS'__repr__'
p54
S"<method-wrapper '__repr__' of IntegrityError object>"
p55
sS'__hash__'
p56
S"<method-wrapper '__hash__' of IntegrityError object>"
p57
ssS'evalue'
p58
S"(1452, u'Cannot add or update a child row: a foreign key constraint fails (`db_sicoin`.`auth_event`, CONSTRAINT `auth_event_ibfk_1` FOREIGN KEY (`user_id`) REFERENCES `auth_user` (`id`) ON DELETE CASCADE)')"
p59
sS'request'
p60
ccopy_reg
_reconstructor
p61
(cgluon.html
BEAUTIFY
p62
c__builtin__
object
p63
NtRp64
(dp65
S'attributes'
p66
(dp67
sS'components'
p68
(lp69
g61
(cgluon.html
TABLE
p70
g63
NtRp71
(dp72
g66
(dp73
S'level'
p74
I5
ssS'parent'
p75
Nsg68
(lp76
g61
(cgluon.html
TR
p77
g63
NtRp78
(dp79
g66
(dp80
sg75
g71
sg68
(lp81
g61
(cgluon.html
TD
p82
g63
NtRp83
(dp84
g66
(dp85
S'_style'
p86
S'font-weight:bold;vertical-align:top'
p87
ssg75
g78
sg68
(lp88
S'ajax'
p89
asbag61
(g82
g63
NtRp90
(dp91
g66
(dp92
S'_valign'
p93
S'top'
p94
ssg75
g78
sg68
(lp95
S':'
asbag61
(g82
g63
NtRp96
(dp97
g66
(dp98
sg75
g78
sg68
(lp99
g61
(g62
g63
NtRp100
(dp101
g66
(dp102
g74
I5
ssg75
g96
sg68
(lp103
S'False'
p104
asbasbasbag61
(g77
g63
NtRp105
(dp106
g66
(dp107
sg75
g71
sg68
(lp108
g61
(g82
g63
NtRp109
(dp110
g66
(dp111
g86
g87
ssg75
g105
sg68
(lp112
S'application'
p113
asbag61
(g82
g63
NtRp114
(dp115
g66
(dp116
g93
g94
ssg75
g105
sg68
(lp117
S':'
asbag61
(g82
g63
NtRp118
(dp119
g66
(dp120
sg75
g105
sg68
(lp121
g61
(g62
g63
NtRp122
(dp123
g66
(dp124
g74
I5
ssg75
g118
sg68
(lp125
S'sicoin'
p126
asbasbasbag61
(g77
g63
NtRp127
(dp128
g66
(dp129
sg75
g71
sg68
(lp130
g61
(g82
g63
NtRp131
(dp132
g66
(dp133
g86
g87
ssg75
g127
sg68
(lp134
g46
asbag61
(g82
g63
NtRp135
(dp136
g66
(dp137
g93
g94
ssg75
g127
sg68
(lp138
S':'
asbag61
(g82
g63
NtRp139
(dp140
g66
(dp141
sg75
g127
sg68
(lp142
g61
(g62
g63
NtRp143
(dp144
g66
(dp145
g74
I5
ssg75
g139
sg68
(lp146
g61
(g70
g63
NtRp147
(dp148
g66
(dp149
g74
I4
ssg75
Nsg68
(lp150
g61
(g77
g63
NtRp151
(dp152
g66
(dp153
sg75
g147
sg68
(lp154
g61
(g82
g63
NtRp155
(dp156
g66
(dp157
sg75
g151
sg68
(lp158
g61
(g62
g63
NtRp159
(dp160
g66
(dp161
g74
I4
ssg75
g155
sg68
(lp162
S'logout'
p163
asbasbasbasbasbasbasbag61
(g77
g63
NtRp164
(dp165
g66
(dp166
sg75
g71
sg68
(lp167
g61
(g82
g63
NtRp168
(dp169
g66
(dp170
g86
g87
ssg75
g164
sg68
(lp171
S'body'
p172
asbag61
(g82
g63
NtRp173
(dp174
g66
(dp175
g93
g94
ssg75
g164
sg68
(lp176
S':'
asbag61
(g82
g63
NtRp177
(dp178
g66
(dp179
sg75
g164
sg68
(lp180
g61
(g62
g63
NtRp181
(dp182
g66
(dp183
g74
I5
ssg75
g177
sg68
(lp184
S'<cStringIO.StringO object at 0x9e8f1c0>'
p185
asbasbasbag61
(g77
g63
NtRp186
(dp187
g66
(dp188
sg75
g71
sg68
(lp189
g61
(g82
g63
NtRp190
(dp191
g66
(dp192
g86
g87
ssg75
g186
sg68
(lp193
S'cid'
p194
asbag61
(g82
g63
NtRp195
(dp196
g66
(dp197
g93
g94
ssg75
g186
sg68
(lp198
S':'
asbag61
(g82
g63
NtRp199
(dp200
g66
(dp201
sg75
g186
sg68
(lp202
g61
(g62
g63
NtRp203
(dp204
g66
(dp205
g74
I5
ssg75
g199
sg68
(lp206
S'None'
p207
asbasbasbag61
(g77
g63
NtRp208
(dp209
g66
(dp210
sg75
g71
sg68
(lp211
g61
(g82
g63
NtRp212
(dp213
g66
(dp214
g86
g87
ssg75
g208
sg68
(lp215
S'client'
p216
asbag61
(g82
g63
NtRp217
(dp218
g66
(dp219
g93
g94
ssg75
g208
sg68
(lp220
S':'
asbag61
(g82
g63
NtRp221
(dp222
g66
(dp223
sg75
g208
sg68
(lp224
g61
(g62
g63
NtRp225
(dp226
g66
(dp227
g74
I5
ssg75
g221
sg68
(lp228
S'190.169.221.43'
p229
asbasbasbag61
(g77
g63
NtRp230
(dp231
g66
(dp232
sg75
g71
sg68
(lp233
g61
(g82
g63
NtRp234
(dp235
g66
(dp236
g86
g87
ssg75
g230
sg68
(lp237
S'controller'
p238
asbag61
(g82
g63
NtRp239
(dp240
g66
(dp241
g93
g94
ssg75
g230
sg68
(lp242
S':'
asbag61
(g82
g63
NtRp243
(dp244
g66
(dp245
sg75
g230
sg68
(lp246
g61
(g62
g63
NtRp247
(dp248
g66
(dp249
g74
I5
ssg75
g243
sg68
(lp250
S'default'
p251
asbasbasbag61
(g77
g63
NtRp252
(dp253
g66
(dp254
sg75
g71
sg68
(lp255
g61
(g82
g63
NtRp256
(dp257
g66
(dp258
g86
g87
ssg75
g252
sg68
(lp259
S'cookies'
p260
asbag61
(g82
g63
NtRp261
(dp262
g66
(dp263
g93
g94
ssg75
g252
sg68
(lp264
S':'
asbag61
(g82
g63
NtRp265
(dp266
g66
(dp267
sg75
g252
sg68
(lp268
g61
(g62
g63
NtRp269
(dp270
g66
(dp271
g74
I5
ssg75
g265
sg68
(lp272
g61
(g70
g63
NtRp273
(dp274
g66
(dp275
g74
I4
ssg75
Nsg68
(lp276
g61
(g77
g63
NtRp277
(dp278
g66
(dp279
sg75
g273
sg68
(lp280
g61
(g82
g63
NtRp281
(dp282
g66
(dp283
g86
g87
ssg75
g277
sg68
(lp284
S'session_id_admin'
p285
asbag61
(g82
g63
NtRp286
(dp287
g66
(dp288
g93
g94
ssg75
g277
sg68
(lp289
S':'
asbag61
(g82
g63
NtRp290
(dp291
g66
(dp292
sg75
g277
sg68
(lp293
g61
(g62
g63
NtRp294
(dp295
g66
(dp296
g74
I4
ssg75
g290
sg68
(lp297
S'190.169.221.43-afc1deac-7251-4207-860a-2a5146cacf04'
p298
ag61
(g70
g63
NtRp299
(dp300
g66
(dp301
g74
I3
ssg75
Nsg68
(lp302
g61
(g77
g63
NtRp303
(dp304
g66
(dp305
sg75
g299
sg68
(lp306
g61
(g82
g63
NtRp307
(dp308
g66
(dp309
g86
g87
ssg75
g303
sg68
(lp310
S'comment'
p311
asbag61
(g82
g63
NtRp312
(dp313
g66
(dp314
g93
g94
ssg75
g303
sg68
(lp315
S':'
asbag61
(g82
g63
NtRp316
(dp317
g66
(dp318
sg75
g303
sg68
(lp319
g61
(g62
g63
NtRp320
(dp321
g66
(dp322
g74
I3
ssg75
g316
sg68
(lp323
S''
asbasbasbag61
(g77
g63
NtRp324
(dp325
g66
(dp326
sg75
g299
sg68
(lp327
g61
(g82
g63
NtRp328
(dp329
g66
(dp330
g86
g87
ssg75
g324
sg68
(lp331
S'domain'
p332
asbag61
(g82
g63
NtRp333
(dp334
g66
(dp335
g93
g94
ssg75
g324
sg68
(lp336
S':'
asbag61
(g82
g63
NtRp337
(dp338
g66
(dp339
sg75
g324
sg68
(lp340
g61
(g62
g63
NtRp341
(dp342
g66
(dp343
g74
I3
ssg75
g337
sg68
(lp344
S''
asbasbasbag61
(g77
g63
NtRp345
(dp346
g66
(dp347
sg75
g299
sg68
(lp348
g61
(g82
g63
NtRp349
(dp350
g66
(dp351
g86
g87
ssg75
g345
sg68
(lp352
S'expires'
p353
asbag61
(g82
g63
NtRp354
(dp355
g66
(dp356
g93
g94
ssg75
g345
sg68
(lp357
S':'
asbag61
(g82
g63
NtRp358
(dp359
g66
(dp360
sg75
g345
sg68
(lp361
g61
(g62
g63
NtRp362
(dp363
g66
(dp364
g74
I3
ssg75
g358
sg68
(lp365
S''
asbasbasbag61
(g77
g63
NtRp366
(dp367
g66
(dp368
sg75
g299
sg68
(lp369
g61
(g82
g63
NtRp370
(dp371
g66
(dp372
g86
g87
ssg75
g366
sg68
(lp373
S'httponly'
p374
asbag61
(g82
g63
NtRp375
(dp376
g66
(dp377
g93
g94
ssg75
g366
sg68
(lp378
S':'
asbag61
(g82
g63
NtRp379
(dp380
g66
(dp381
sg75
g366
sg68
(lp382
g61
(g62
g63
NtRp383
(dp384
g66
(dp385
g74
I3
ssg75
g379
sg68
(lp386
S''
asbasbasbag61
(g77
g63
NtRp387
(dp388
g66
(dp389
sg75
g299
sg68
(lp390
g61
(g82
g63
NtRp391
(dp392
g66
(dp393
g86
g87
ssg75
g387
sg68
(lp394
S'max-age'
p395
asbag61
(g82
g63
NtRp396
(dp397
g66
(dp398
g93
g94
ssg75
g387
sg68
(lp399
S':'
asbag61
(g82
g63
NtRp400
(dp401
g66
(dp402
sg75
g387
sg68
(lp403
g61
(g62
g63
NtRp404
(dp405
g66
(dp406
g74
I3
ssg75
g400
sg68
(lp407
S''
asbasbasbag61
(g77
g63
NtRp408
(dp409
g66
(dp410
sg75
g299
sg68
(lp411
g61
(g82
g63
NtRp412
(dp413
g66
(dp414
g86
g87
ssg75
g408
sg68
(lp415
S'path'
p416
asbag61
(g82
g63
NtRp417
(dp418
g66
(dp419
g93
g94
ssg75
g408
sg68
(lp420
S':'
asbag61
(g82
g63
NtRp421
(dp422
g66
(dp423
sg75
g408
sg68
(lp424
g61
(g62
g63
NtRp425
(dp426
g66
(dp427
g74
I3
ssg75
g421
sg68
(lp428
S''
asbasbasbag61
(g77
g63
NtRp429
(dp430
g66
(dp431
sg75
g299
sg68
(lp432
g61
(g82
g63
NtRp433
(dp434
g66
(dp435
g86
g87
ssg75
g429
sg68
(lp436
S'secure'
p437
asbag61
(g82
g63
NtRp438
(dp439
g66
(dp440
g93
g94
ssg75
g429
sg68
(lp441
S':'
asbag61
(g82
g63
NtRp442
(dp443
g66
(dp444
sg75
g429
sg68
(lp445
g61
(g62
g63
NtRp446
(dp447
g66
(dp448
g74
I3
ssg75
g442
sg68
(lp449
S''
asbasbasbag61
(g77
g63
NtRp450
(dp451
g66
(dp452
sg75
g299
sg68
(lp453
g61
(g82
g63
NtRp454
(dp455
g66
(dp456
g86
g87
ssg75
g450
sg68
(lp457
S'version'
p458
asbag61
(g82
g63
NtRp459
(dp460
g66
(dp461
g93
g94
ssg75
g450
sg68
(lp462
S':'
asbag61
(g82
g63
NtRp463
(dp464
g66
(dp465
sg75
g450
sg68
(lp466
g61
(g62
g63
NtRp467
(dp468
g66
(dp469
g74
I3
ssg75
g463
sg68
(lp470
S''
asbasbasbasbasbasbasbag61
(g77
g63
NtRp471
(dp472
g66
(dp473
sg75
g273
sg68
(lp474
g61
(g82
g63
NtRp475
(dp476
g66
(dp477
g86
g87
ssg75
g471
sg68
(lp478
S'session_id_sicoin'
p479
asbag61
(g82
g63
NtRp480
(dp481
g66
(dp482
g93
g94
ssg75
g471
sg68
(lp483
S':'
asbag61
(g82
g63
NtRp484
(dp485
g66
(dp486
sg75
g471
sg68
(lp487
g61
(g62
g63
NtRp488
(dp489
g66
(dp490
g74
I4
ssg75
g484
sg68
(lp491
S'190.169.221.43-c3ccfe27-2883-428a-acb1-f6366cc00e73'
p492
ag61
(g70
g63
NtRp493
(dp494
g66
(dp495
g74
I3
ssg75
Nsg68
(lp496
g61
(g77
g63
NtRp497
(dp498
g66
(dp499
sg75
g493
sg68
(lp500
g61
(g82
g63
NtRp501
(dp502
g66
(dp503
g86
g87
ssg75
g497
sg68
(lp504
g311
asbag61
(g82
g63
NtRp505
(dp506
g66
(dp507
g93
g94
ssg75
g497
sg68
(lp508
S':'
asbag61
(g82
g63
NtRp509
(dp510
g66
(dp511
sg75
g497
sg68
(lp512
g61
(g62
g63
NtRp513
(dp514
g66
(dp515
g74
I3
ssg75
g509
sg68
(lp516
S''
asbasbasbag61
(g77
g63
NtRp517
(dp518
g66
(dp519
sg75
g493
sg68
(lp520
g61
(g82
g63
NtRp521
(dp522
g66
(dp523
g86
g87
ssg75
g517
sg68
(lp524
g332
asbag61
(g82
g63
NtRp525
(dp526
g66
(dp527
g93
g94
ssg75
g517
sg68
(lp528
S':'
asbag61
(g82
g63
NtRp529
(dp530
g66
(dp531
sg75
g517
sg68
(lp532
g61
(g62
g63
NtRp533
(dp534
g66
(dp535
g74
I3
ssg75
g529
sg68
(lp536
S''
asbasbasbag61
(g77
g63
NtRp537
(dp538
g66
(dp539
sg75
g493
sg68
(lp540
g61
(g82
g63
NtRp541
(dp542
g66
(dp543
g86
g87
ssg75
g537
sg68
(lp544
g353
asbag61
(g82
g63
NtRp545
(dp546
g66
(dp547
g93
g94
ssg75
g537
sg68
(lp548
S':'
asbag61
(g82
g63
NtRp549
(dp550
g66
(dp551
sg75
g537
sg68
(lp552
g61
(g62
g63
NtRp553
(dp554
g66
(dp555
g74
I3
ssg75
g549
sg68
(lp556
S''
asbasbasbag61
(g77
g63
NtRp557
(dp558
g66
(dp559
sg75
g493
sg68
(lp560
g61
(g82
g63
NtRp561
(dp562
g66
(dp563
g86
g87
ssg75
g557
sg68
(lp564
g374
asbag61
(g82
g63
NtRp565
(dp566
g66
(dp567
g93
g94
ssg75
g557
sg68
(lp568
S':'
asbag61
(g82
g63
NtRp569
(dp570
g66
(dp571
sg75
g557
sg68
(lp572
g61
(g62
g63
NtRp573
(dp574
g66
(dp575
g74
I3
ssg75
g569
sg68
(lp576
S''
asbasbasbag61
(g77
g63
NtRp577
(dp578
g66
(dp579
sg75
g493
sg68
(lp580
g61
(g82
g63
NtRp581
(dp582
g66
(dp583
g86
g87
ssg75
g577
sg68
(lp584
g395
asbag61
(g82
g63
NtRp585
(dp586
g66
(dp587
g93
g94
ssg75
g577
sg68
(lp588
S':'
asbag61
(g82
g63
NtRp589
(dp590
g66
(dp591
sg75
g577
sg68
(lp592
g61
(g62
g63
NtRp593
(dp594
g66
(dp595
g74
I3
ssg75
g589
sg68
(lp596
S''
asbasbasbag61
(g77
g63
NtRp597
(dp598
g66
(dp599
sg75
g493
sg68
(lp600
g61
(g82
g63
NtRp601
(dp602
g66
(dp603
g86
g87
ssg75
g597
sg68
(lp604
g416
asbag61
(g82
g63
NtRp605
(dp606
g66
(dp607
g93
g94
ssg75
g597
sg68
(lp608
S':'
asbag61
(g82
g63
NtRp609
(dp610
g66
(dp611
sg75
g597
sg68
(lp612
g61
(g62
g63
NtRp613
(dp614
g66
(dp615
g74
I3
ssg75
g609
sg68
(lp616
S''
asbasbasbag61
(g77
g63
NtRp617
(dp618
g66
(dp619
sg75
g493
sg68
(lp620
g61
(g82
g63
NtRp621
(dp622
g66
(dp623
g86
g87
ssg75
g617
sg68
(lp624
g437
asbag61
(g82
g63
NtRp625
(dp626
g66
(dp627
g93
g94
ssg75
g617
sg68
(lp628
S':'
asbag61
(g82
g63
NtRp629
(dp630
g66
(dp631
sg75
g617
sg68
(lp632
g61
(g62
g63
NtRp633
(dp634
g66
(dp635
g74
I3
ssg75
g629
sg68
(lp636
S''
asbasbasbag61
(g77
g63
NtRp637
(dp638
g66
(dp639
sg75
g493
sg68
(lp640
g61
(g82
g63
NtRp641
(dp642
g66
(dp643
g86
g87
ssg75
g637
sg68
(lp644
g458
asbag61
(g82
g63
NtRp645
(dp646
g66
(dp647
g93
g94
ssg75
g637
sg68
(lp648
S':'
asbag61
(g82
g63
NtRp649
(dp650
g66
(dp651
sg75
g637
sg68
(lp652
g61
(g62
g63
NtRp653
(dp654
g66
(dp655
g74
I3
ssg75
g649
sg68
(lp656
S''
asbasbasbasbasbasbasbag61
(g77
g63
NtRp657
(dp658
g66
(dp659
sg75
g273
sg68
(lp660
g61
(g82
g63
NtRp661
(dp662
g66
(dp663
g86
g87
ssg75
g657
sg68
(lp664
S'session_id_welcome'
p665
asbag61
(g82
g63
NtRp666
(dp667
g66
(dp668
g93
g94
ssg75
g657
sg68
(lp669
S':'
asbag61
(g82
g63
NtRp670
(dp671
g66
(dp672
sg75
g657
sg68
(lp673
g61
(g62
g63
NtRp674
(dp675
g66
(dp676
g74
I4
ssg75
g670
sg68
(lp677
S'190.169.221.43-33ef6fb2-e333-4ad2-a84d-266b57994f21'
p678
ag61
(g70
g63
NtRp679
(dp680
g66
(dp681
g74
I3
ssg75
Nsg68
(lp682
g61
(g77
g63
NtRp683
(dp684
g66
(dp685
sg75
g679
sg68
(lp686
g61
(g82
g63
NtRp687
(dp688
g66
(dp689
g86
g87
ssg75
g683
sg68
(lp690
g311
asbag61
(g82
g63
NtRp691
(dp692
g66
(dp693
g93
g94
ssg75
g683
sg68
(lp694
S':'
asbag61
(g82
g63
NtRp695
(dp696
g66
(dp697
sg75
g683
sg68
(lp698
g61
(g62
g63
NtRp699
(dp700
g66
(dp701
g74
I3
ssg75
g695
sg68
(lp702
S''
asbasbasbag61
(g77
g63
NtRp703
(dp704
g66
(dp705
sg75
g679
sg68
(lp706
g61
(g82
g63
NtRp707
(dp708
g66
(dp709
g86
g87
ssg75
g703
sg68
(lp710
g332
asbag61
(g82
g63
NtRp711
(dp712
g66
(dp713
g93
g94
ssg75
g703
sg68
(lp714
S':'
asbag61
(g82
g63
NtRp715
(dp716
g66
(dp717
sg75
g703
sg68
(lp718
g61
(g62
g63
NtRp719
(dp720
g66
(dp721
g74
I3
ssg75
g715
sg68
(lp722
S''
asbasbasbag61
(g77
g63
NtRp723
(dp724
g66
(dp725
sg75
g679
sg68
(lp726
g61
(g82
g63
NtRp727
(dp728
g66
(dp729
g86
g87
ssg75
g723
sg68
(lp730
g353
asbag61
(g82
g63
NtRp731
(dp732
g66
(dp733
g93
g94
ssg75
g723
sg68
(lp734
S':'
asbag61
(g82
g63
NtRp735
(dp736
g66
(dp737
sg75
g723
sg68
(lp738
g61
(g62
g63
NtRp739
(dp740
g66
(dp741
g74
I3
ssg75
g735
sg68
(lp742
S''
asbasbasbag61
(g77
g63
NtRp743
(dp744
g66
(dp745
sg75
g679
sg68
(lp746
g61
(g82
g63
NtRp747
(dp748
g66
(dp749
g86
g87
ssg75
g743
sg68
(lp750
g374
asbag61
(g82
g63
NtRp751
(dp752
g66
(dp753
g93
g94
ssg75
g743
sg68
(lp754
S':'
asbag61
(g82
g63
NtRp755
(dp756
g66
(dp757
sg75
g743
sg68
(lp758
g61
(g62
g63
NtRp759
(dp760
g66
(dp761
g74
I3
ssg75
g755
sg68
(lp762
S''
asbasbasbag61
(g77
g63
NtRp763
(dp764
g66
(dp765
sg75
g679
sg68
(lp766
g61
(g82
g63
NtRp767
(dp768
g66
(dp769
g86
g87
ssg75
g763
sg68
(lp770
g395
asbag61
(g82
g63
NtRp771
(dp772
g66
(dp773
g93
g94
ssg75
g763
sg68
(lp774
S':'
asbag61
(g82
g63
NtRp775
(dp776
g66
(dp777
sg75
g763
sg68
(lp778
g61
(g62
g63
NtRp779
(dp780
g66
(dp781
g74
I3
ssg75
g775
sg68
(lp782
S''
asbasbasbag61
(g77
g63
NtRp783
(dp784
g66
(dp785
sg75
g679
sg68
(lp786
g61
(g82
g63
NtRp787
(dp788
g66
(dp789
g86
g87
ssg75
g783
sg68
(lp790
g416
asbag61
(g82
g63
NtRp791
(dp792
g66
(dp793
g93
g94
ssg75
g783
sg68
(lp794
S':'
asbag61
(g82
g63
NtRp795
(dp796
g66
(dp797
sg75
g783
sg68
(lp798
g61
(g62
g63
NtRp799
(dp800
g66
(dp801
g74
I3
ssg75
g795
sg68
(lp802
S''
asbasbasbag61
(g77
g63
NtRp803
(dp804
g66
(dp805
sg75
g679
sg68
(lp806
g61
(g82
g63
NtRp807
(dp808
g66
(dp809
g86
g87
ssg75
g803
sg68
(lp810
g437
asbag61
(g82
g63
NtRp811
(dp812
g66
(dp813
g93
g94
ssg75
g803
sg68
(lp814
S':'
asbag61
(g82
g63
NtRp815
(dp816
g66
(dp817
sg75
g803
sg68
(lp818
g61
(g62
g63
NtRp819
(dp820
g66
(dp821
g74
I3
ssg75
g815
sg68
(lp822
S''
asbasbasbag61
(g77
g63
NtRp823
(dp824
g66
(dp825
sg75
g679
sg68
(lp826
g61
(g82
g63
NtRp827
(dp828
g66
(dp829
g86
g87
ssg75
g823
sg68
(lp830
g458
asbag61
(g82
g63
NtRp831
(dp832
g66
(dp833
g93
g94
ssg75
g823
sg68
(lp834
S':'
asbag61
(g82
g63
NtRp835
(dp836
g66
(dp837
sg75
g823
sg68
(lp838
g61
(g62
g63
NtRp839
(dp840
g66
(dp841
g74
I3
ssg75
g835
sg68
(lp842
S''
asbasbasbasbasbasbasbasbasbasbasbag61
(g77
g63
NtRp843
(dp844
g66
(dp845
sg75
g71
sg68
(lp846
g61
(g82
g63
NtRp847
(dp848
g66
(dp849
g86
g87
ssg75
g843
sg68
(lp850
S'env'
p851
asbag61
(g82
g63
NtRp852
(dp853
g66
(dp854
g93
g94
ssg75
g843
sg68
(lp855
S':'
asbag61
(g82
g63
NtRp856
(dp857
g66
(dp858
sg75
g843
sg68
(lp859
g61
(g62
g63
NtRp860
(dp861
g66
(dp862
g74
I5
ssg75
g856
sg68
(lp863
g61
(g70
g63
NtRp864
(dp865
g66
(dp866
g74
I4
ssg75
Nsg68
(lp867
g61
(g77
g63
NtRp868
(dp869
g66
(dp870
sg75
g864
sg68
(lp871
g61
(g82
g63
NtRp872
(dp873
g66
(dp874
g86
g87
ssg75
g868
sg68
(lp875
S'app_folders'
p876
asbag61
(g82
g63
NtRp877
(dp878
g66
(dp879
g93
g94
ssg75
g868
sg68
(lp880
S':'
asbag61
(g82
g63
NtRp881
(dp882
g66
(dp883
sg75
g868
sg68
(lp884
g61
(g62
g63
NtRp885
(dp886
g66
(dp887
g74
I4
ssg75
g881
sg68
(lp888
S"set(['/home/perdomor/web2py/applications/sicoin/', '/home/perdomor/web2py/applications/welcome/'])"
p889
asbasbasbag61
(g77
g63
NtRp890
(dp891
g66
(dp892
sg75
g864
sg68
(lp893
g61
(g82
g63
NtRp894
(dp895
g66
(dp896
g86
g87
ssg75
g890
sg68
(lp897
S'applications_parent'
p898
asbag61
(g82
g63
NtRp899
(dp900
g66
(dp901
g93
g94
ssg75
g890
sg68
(lp902
S':'
asbag61
(g82
g63
NtRp903
(dp904
g66
(dp905
sg75
g890
sg68
(lp906
g61
(g62
g63
NtRp907
(dp908
g66
(dp909
g74
I4
ssg75
g903
sg68
(lp910
S'/home/perdomor/web2py'
p911
asbasbasbag61
(g77
g63
NtRp912
(dp913
g66
(dp914
sg75
g864
sg68
(lp915
g61
(g82
g63
NtRp916
(dp917
g66
(dp918
g86
g87
ssg75
g912
sg68
(lp919
S'cmd_args'
p920
asbag61
(g82
g63
NtRp921
(dp922
g66
(dp923
g93
g94
ssg75
g912
sg68
(lp924
S':'
asbag61
(g82
g63
NtRp925
(dp926
g66
(dp927
sg75
g912
sg68
(lp928
g61
(g62
g63
NtRp929
(dp930
g66
(dp931
g74
I4
ssg75
g925
sg68
(lp932
g61
(g70
g63
NtRp933
(dp934
g66
(dp935
g74
I3
ssg75
Nsg68
(lp936
sbasbasbasbag61
(g77
g63
NtRp937
(dp938
g66
(dp939
sg75
g864
sg68
(lp940
g61
(g82
g63
NtRp941
(dp942
g66
(dp943
g86
g87
ssg75
g937
sg68
(lp944
S'cmd_options'
p945
asbag61
(g82
g63
NtRp946
(dp947
g66
(dp948
g93
g94
ssg75
g937
sg68
(lp949
S':'
asbag61
(g82
g63
NtRp950
(dp951
g66
(dp952
sg75
g937
sg68
(lp953
g61
(g62
g63
NtRp954
(dp955
g66
(dp956
g74
I4
ssg75
g950
sg68
(lp957
S"<Values at 0x998390c: {'verbose': False, 'ip': '127.0.0.1', 'with_scheduler': False, 'ips': ['127.0.1.1'], 'shutdown_timeout': 5, 'taskbar': False, 'port': 8000, 'maxthreads': None, 'softcron': False, 'server_name': 'perdomor', 'bpython': False, 'nogui': False, 'nocron': False, 'extcron': False, 'run_system_tests': False, 'test': None, 'folder': '/home/perdomor/web2py', 'config': '', 'import_models': False, 'winservice': '', 'shell': None, 'run': '', 'log_filename': 'httpserver.log', 'debuglevel': 30, 'args': [''], 'socket_timeout': 5, 'ssl_ca_certificate': None, 'scheduler': None, 'profiler_filename': None, 'ssl_private_key': '', 'scheduler_groups': None, 'password': '<ask>', 'request_queue_size': 5, 'ssl_certificate': '', 'cronjob': False, 'numthreads': None, 'quiet': False, 'interfaces': None, 'minthreads': None, 'timeout': 10, 'plain': False, 'nobanner': False, 'pid_filename': 'httpserver.pid'}>"
p958
asbasbasbag61
(g77
g63
NtRp959
(dp960
g66
(dp961
sg75
g864
sg68
(lp962
g61
(g82
g63
NtRp963
(dp964
g66
(dp965
g86
g87
ssg75
g959
sg68
(lp966
S'db_sessions'
p967
asbag61
(g82
g63
NtRp968
(dp969
g66
(dp970
g93
g94
ssg75
g959
sg68
(lp971
S':'
asbag61
(g82
g63
NtRp972
(dp973
g66
(dp974
sg75
g959
sg68
(lp975
g61
(g62
g63
NtRp976
(dp977
g66
(dp978
g74
I4
ssg75
g972
sg68
(lp979
S'set([])'
p980
asbasbasbag61
(g77
g63
NtRp981
(dp982
g66
(dp983
sg75
g864
sg68
(lp984
g61
(g82
g63
NtRp985
(dp986
g66
(dp987
g86
g87
ssg75
g981
sg68
(lp988
S'debugging'
p989
asbag61
(g82
g63
NtRp990
(dp991
g66
(dp992
g93
g94
ssg75
g981
sg68
(lp993
S':'
asbag61
(g82
g63
NtRp994
(dp995
g66
(dp996
sg75
g981
sg68
(lp997
g61
(g62
g63
NtRp998
(dp999
g66
(dp1000
g74
I4
ssg75
g994
sg68
(lp1001
g104
asbasbasbag61
(g77
g63
NtRp1002
(dp1003
g66
(dp1004
sg75
g864
sg68
(lp1005
g61
(g82
g63
NtRp1006
(dp1007
g66
(dp1008
g86
g87
ssg75
g1002
sg68
(lp1009
S'gluon_parent'
p1010
asbag61
(g82
g63
NtRp1011
(dp1012
g66
(dp1013
g93
g94
ssg75
g1002
sg68
(lp1014
S':'
asbag61
(g82
g63
NtRp1015
(dp1016
g66
(dp1017
sg75
g1002
sg68
(lp1018
g61
(g62
g63
NtRp1019
(dp1020
g66
(dp1021
g74
I4
ssg75
g1015
sg68
(lp1022
S'/home/perdomor/web2py'
p1023
asbasbasbag61
(g77
g63
NtRp1024
(dp1025
g66
(dp1026
sg75
g864
sg68
(lp1027
g61
(g82
g63
NtRp1028
(dp1029
g66
(dp1030
g86
g87
ssg75
g1024
sg68
(lp1031
S'http_accept'
p1032
asbag61
(g82
g63
NtRp1033
(dp1034
g66
(dp1035
g93
g94
ssg75
g1024
sg68
(lp1036
S':'
asbag61
(g82
g63
NtRp1037
(dp1038
g66
(dp1039
sg75
g1024
sg68
(lp1040
g61
(g62
g63
NtRp1041
(dp1042
g66
(dp1043
g74
I4
ssg75
g1037
sg68
(lp1044
S'text/html,application/xhtml+xml,application/xml;q=0.9,*/*;q=0.8'
p1045
asbasbasbag61
(g77
g63
NtRp1046
(dp1047
g66
(dp1048
sg75
g864
sg68
(lp1049
g61
(g82
g63
NtRp1050
(dp1051
g66
(dp1052
g86
g87
ssg75
g1046
sg68
(lp1053
S'http_accept_charset'
p1054
asbag61
(g82
g63
NtRp1055
(dp1056
g66
(dp1057
g93
g94
ssg75
g1046
sg68
(lp1058
S':'
asbag61
(g82
g63
NtRp1059
(dp1060
g66
(dp1061
sg75
g1046
sg68
(lp1062
g61
(g62
g63
NtRp1063
(dp1064
g66
(dp1065
g74
I4
ssg75
g1059
sg68
(lp1066
S'ISO-8859-1,utf-8;q=0.7,*;q=0.3'
p1067
asbasbasbag61
(g77
g63
NtRp1068
(dp1069
g66
(dp1070
sg75
g864
sg68
(lp1071
g61
(g82
g63
NtRp1072
(dp1073
g66
(dp1074
g86
g87
ssg75
g1068
sg68
(lp1075
S'http_accept_encoding'
p1076
asbag61
(g82
g63
NtRp1077
(dp1078
g66
(dp1079
g93
g94
ssg75
g1068
sg68
(lp1080
S':'
asbag61
(g82
g63
NtRp1081
(dp1082
g66
(dp1083
sg75
g1068
sg68
(lp1084
g61
(g62
g63
NtRp1085
(dp1086
g66
(dp1087
g74
I4
ssg75
g1081
sg68
(lp1088
S'gzip,deflate,sdch'
p1089
asbasbasbag61
(g77
g63
NtRp1090
(dp1091
g66
(dp1092
sg75
g864
sg68
(lp1093
g61
(g82
g63
NtRp1094
(dp1095
g66
(dp1096
g86
g87
ssg75
g1090
sg68
(lp1097
S'http_accept_language'
p1098
asbag61
(g82
g63
NtRp1099
(dp1100
g66
(dp1101
g93
g94
ssg75
g1090
sg68
(lp1102
S':'
asbag61
(g82
g63
NtRp1103
(dp1104
g66
(dp1105
sg75
g1090
sg68
(lp1106
g61
(g62
g63
NtRp1107
(dp1108
g66
(dp1109
g74
I4
ssg75
g1103
sg68
(lp1110
S'es-419,es;q=0.8'
p1111
asbasbasbag61
(g77
g63
NtRp1112
(dp1113
g66
(dp1114
sg75
g864
sg68
(lp1115
g61
(g82
g63
NtRp1116
(dp1117
g66
(dp1118
g86
g87
ssg75
g1112
sg68
(lp1119
S'http_connection'
p1120
asbag61
(g82
g63
NtRp1121
(dp1122
g66
(dp1123
g93
g94
ssg75
g1112
sg68
(lp1124
S':'
asbag61
(g82
g63
NtRp1125
(dp1126
g66
(dp1127
sg75
g1112
sg68
(lp1128
g61
(g62
g63
NtRp1129
(dp1130
g66
(dp1131
g74
I4
ssg75
g1125
sg68
(lp1132
S'keep-alive'
p1133
asbasbasbag61
(g77
g63
NtRp1134
(dp1135
g66
(dp1136
sg75
g864
sg68
(lp1137
g61
(g82
g63
NtRp1138
(dp1139
g66
(dp1140
g86
g87
ssg75
g1134
sg68
(lp1141
S'http_cookie'
p1142
asbag61
(g82
g63
NtRp1143
(dp1144
g66
(dp1145
g93
g94
ssg75
g1134
sg68
(lp1146
S':'
asbag61
(g82
g63
NtRp1147
(dp1148
g66
(dp1149
sg75
g1134
sg68
(lp1150
g61
(g62
g63
NtRp1151
(dp1152
g66
(dp1153
g74
I4
ssg75
g1147
sg68
(lp1154
S'session_id_welcome=190.169.221.43-33ef6fb2-e333-4ad2-a84d-266b57994f21; session_id_admin=190.169.221.43-afc1deac-7251-4207-860a-2a5146cacf04; session_id_sicoin=190.169.221.43-c3ccfe27-2883-428a-acb1-f6366cc00e73'
p1155
asbasbasbag61
(g77
g63
NtRp1156
(dp1157
g66
(dp1158
sg75
g864
sg68
(lp1159
g61
(g82
g63
NtRp1160
(dp1161
g66
(dp1162
g86
g87
ssg75
g1156
sg68
(lp1163
S'http_host'
p1164
asbag61
(g82
g63
NtRp1165
(dp1166
g66
(dp1167
g93
g94
ssg75
g1156
sg68
(lp1168
S':'
asbag61
(g82
g63
NtRp1169
(dp1170
g66
(dp1171
sg75
g1156
sg68
(lp1172
g61
(g62
g63
NtRp1173
(dp1174
g66
(dp1175
g74
I4
ssg75
g1169
sg68
(lp1176
S'190.169.221.43:8080'
p1177
asbasbasbag61
(g77
g63
NtRp1178
(dp1179
g66
(dp1180
sg75
g864
sg68
(lp1181
g61
(g82
g63
NtRp1182
(dp1183
g66
(dp1184
g86
g87
ssg75
g1178
sg68
(lp1185
S'http_referer'
p1186
asbag61
(g82
g63
NtRp1187
(dp1188
g66
(dp1189
g93
g94
ssg75
g1178
sg68
(lp1190
S':'
asbag61
(g82
g63
NtRp1191
(dp1192
g66
(dp1193
sg75
g1178
sg68
(lp1194
g61
(g62
g63
NtRp1195
(dp1196
g66
(dp1197
g74
I4
ssg75
g1191
sg68
(lp1198
S'http://190.169.221.43:8080/sicoin/'
p1199
asbasbasbag61
(g77
g63
NtRp1200
(dp1201
g66
(dp1202
sg75
g864
sg68
(lp1203
g61
(g82
g63
NtRp1204
(dp1205
g66
(dp1206
g86
g87
ssg75
g1200
sg68
(lp1207
S'http_user_agent'
p1208
asbag61
(g82
g63
NtRp1209
(dp1210
g66
(dp1211
g93
g94
ssg75
g1200
sg68
(lp1212
S':'
asbag61
(g82
g63
NtRp1213
(dp1214
g66
(dp1215
sg75
g1200
sg68
(lp1216
g61
(g62
g63
NtRp1217
(dp1218
g66
(dp1219
g74
I4
ssg75
g1213
sg68
(lp1220
S'Mozilla/5.0 (X11; Linux i686) AppleWebKit/535.19 (KHTML, like Gecko) Ubuntu/11.10 Chromium/18.0.1025.168 Chrome/18.0.1025.168 Safari/535.19'
p1221
asbasbasbag61
(g77
g63
NtRp1222
(dp1223
g66
(dp1224
sg75
g864
sg68
(lp1225
g61
(g82
g63
NtRp1226
(dp1227
g66
(dp1228
g86
g87
ssg75
g1222
sg68
(lp1229
S'is_jython'
p1230
asbag61
(g82
g63
NtRp1231
(dp1232
g66
(dp1233
g93
g94
ssg75
g1222
sg68
(lp1234
S':'
asbag61
(g82
g63
NtRp1235
(dp1236
g66
(dp1237
sg75
g1222
sg68
(lp1238
g61
(g62
g63
NtRp1239
(dp1240
g66
(dp1241
g74
I4
ssg75
g1235
sg68
(lp1242
g104
asbasbasbag61
(g77
g63
NtRp1243
(dp1244
g66
(dp1245
sg75
g864
sg68
(lp1246
g61
(g82
g63
NtRp1247
(dp1248
g66
(dp1249
g86
g87
ssg75
g1243
sg68
(lp1250
S'is_pypy'
p1251
asbag61
(g82
g63
NtRp1252
(dp1253
g66
(dp1254
g93
g94
ssg75
g1243
sg68
(lp1255
S':'
asbag61
(g82
g63
NtRp1256
(dp1257
g66
(dp1258
sg75
g1243
sg68
(lp1259
g61
(g62
g63
NtRp1260
(dp1261
g66
(dp1262
g74
I4
ssg75
g1256
sg68
(lp1263
g104
asbasbasbag61
(g77
g63
NtRp1264
(dp1265
g66
(dp1266
sg75
g864
sg68
(lp1267
g61
(g82
g63
NtRp1268
(dp1269
g66
(dp1270
g86
g87
ssg75
g1264
sg68
(lp1271
S'path_info'
p1272
asbag61
(g82
g63
NtRp1273
(dp1274
g66
(dp1275
g93
g94
ssg75
g1264
sg68
(lp1276
S':'
asbag61
(g82
g63
NtRp1277
(dp1278
g66
(dp1279
sg75
g1264
sg68
(lp1280
g61
(g62
g63
NtRp1281
(dp1282
g66
(dp1283
g74
I4
ssg75
g1277
sg68
(lp1284
S'/sicoin/default/user/logout'
p1285
asbasbasbag61
(g77
g63
NtRp1286
(dp1287
g66
(dp1288
sg75
g864
sg68
(lp1289
g61
(g82
g63
NtRp1290
(dp1291
g66
(dp1292
g86
g87
ssg75
g1286
sg68
(lp1293
S'query_string'
p1294
asbag61
(g82
g63
NtRp1295
(dp1296
g66
(dp1297
g93
g94
ssg75
g1286
sg68
(lp1298
S':'
asbag61
(g82
g63
NtRp1299
(dp1300
g66
(dp1301
sg75
g1286
sg68
(lp1302
g61
(g62
g63
NtRp1303
(dp1304
g66
(dp1305
g74
I4
ssg75
g1299
sg68
(lp1306
S'_next=/sicoin/default/index'
p1307
asbasbasbag61
(g77
g63
NtRp1308
(dp1309
g66
(dp1310
sg75
g864
sg68
(lp1311
g61
(g82
g63
NtRp1312
(dp1313
g66
(dp1314
g86
g87
ssg75
g1308
sg68
(lp1315
S'remote_addr'
p1316
asbag61
(g82
g63
NtRp1317
(dp1318
g66
(dp1319
g93
g94
ssg75
g1308
sg68
(lp1320
S':'
asbag61
(g82
g63
NtRp1321
(dp1322
g66
(dp1323
sg75
g1308
sg68
(lp1324
g61
(g62
g63
NtRp1325
(dp1326
g66
(dp1327
g74
I4
ssg75
g1321
sg68
(lp1328
g229
asbasbasbag61
(g77
g63
NtRp1329
(dp1330
g66
(dp1331
sg75
g864
sg68
(lp1332
g61
(g82
g63
NtRp1333
(dp1334
g66
(dp1335
g86
g87
ssg75
g1329
sg68
(lp1336
S'remote_port'
p1337
asbag61
(g82
g63
NtRp1338
(dp1339
g66
(dp1340
g93
g94
ssg75
g1329
sg68
(lp1341
S':'
asbag61
(g82
g63
NtRp1342
(dp1343
g66
(dp1344
sg75
g1329
sg68
(lp1345
g61
(g62
g63
NtRp1346
(dp1347
g66
(dp1348
g74
I4
ssg75
g1342
sg68
(lp1349
S'50085'
p1350
asbasbasbag61
(g77
g63
NtRp1351
(dp1352
g66
(dp1353
sg75
g864
sg68
(lp1354
g61
(g82
g63
NtRp1355
(dp1356
g66
(dp1357
g86
g87
ssg75
g1351
sg68
(lp1358
S'request_method'
p1359
asbag61
(g82
g63
NtRp1360
(dp1361
g66
(dp1362
g93
g94
ssg75
g1351
sg68
(lp1363
S':'
asbag61
(g82
g63
NtRp1364
(dp1365
g66
(dp1366
sg75
g1351
sg68
(lp1367
g61
(g62
g63
NtRp1368
(dp1369
g66
(dp1370
g74
I4
ssg75
g1364
sg68
(lp1371
S'GET'
p1372
asbasbasbag61
(g77
g63
NtRp1373
(dp1374
g66
(dp1375
sg75
g864
sg68
(lp1376
g61
(g82
g63
NtRp1377
(dp1378
g66
(dp1379
g86
g87
ssg75
g1373
sg68
(lp1380
S'request_uri'
p1381
asbag61
(g82
g63
NtRp1382
(dp1383
g66
(dp1384
g93
g94
ssg75
g1373
sg68
(lp1385
S':'
asbag61
(g82
g63
NtRp1386
(dp1387
g66
(dp1388
sg75
g1373
sg68
(lp1389
g61
(g62
g63
NtRp1390
(dp1391
g66
(dp1392
g74
I4
ssg75
g1386
sg68
(lp1393
S'/sicoin/default/user/logout?_next=/sicoin/default/index'
p1394
asbasbasbag61
(g77
g63
NtRp1395
(dp1396
g66
(dp1397
sg75
g864
sg68
(lp1398
g61
(g82
g63
NtRp1399
(dp1400
g66
(dp1401
g86
g87
ssg75
g1395
sg68
(lp1402
S'script_name'
p1403
asbag61
(g82
g63
NtRp1404
(dp1405
g66
(dp1406
g93
g94
ssg75
g1395
sg68
(lp1407
S':'
asbag61
(g82
g63
NtRp1408
(dp1409
g66
(dp1410
sg75
g1395
sg68
(lp1411
g61
(g62
g63
NtRp1412
(dp1413
g66
(dp1414
g74
I4
ssg75
g1408
sg68
(lp1415
S''
asbasbasbag61
(g77
g63
NtRp1416
(dp1417
g66
(dp1418
sg75
g864
sg68
(lp1419
g61
(g82
g63
NtRp1420
(dp1421
g66
(dp1422
g86
g87
ssg75
g1416
sg68
(lp1423
S'server_name'
p1424
asbag61
(g82
g63
NtRp1425
(dp1426
g66
(dp1427
g93
g94
ssg75
g1416
sg68
(lp1428
S':'
asbag61
(g82
g63
NtRp1429
(dp1430
g66
(dp1431
sg75
g1416
sg68
(lp1432
g61
(g62
g63
NtRp1433
(dp1434
g66
(dp1435
g74
I4
ssg75
g1429
sg68
(lp1436
S'perdomor'
p1437
asbasbasbag61
(g77
g63
NtRp1438
(dp1439
g66
(dp1440
sg75
g864
sg68
(lp1441
g61
(g82
g63
NtRp1442
(dp1443
g66
(dp1444
g86
g87
ssg75
g1438
sg68
(lp1445
S'server_port'
p1446
asbag61
(g82
g63
NtRp1447
(dp1448
g66
(dp1449
g93
g94
ssg75
g1438
sg68
(lp1450
S':'
asbag61
(g82
g63
NtRp1451
(dp1452
g66
(dp1453
sg75
g1438
sg68
(lp1454
g61
(g62
g63
NtRp1455
(dp1456
g66
(dp1457
g74
I4
ssg75
g1451
sg68
(lp1458
S'8080'
p1459
asbasbasbag61
(g77
g63
NtRp1460
(dp1461
g66
(dp1462
sg75
g864
sg68
(lp1463
g61
(g82
g63
NtRp1464
(dp1465
g66
(dp1466
g86
g87
ssg75
g1460
sg68
(lp1467
S'server_protocol'
p1468
asbag61
(g82
g63
NtRp1469
(dp1470
g66
(dp1471
g93
g94
ssg75
g1460
sg68
(lp1472
S':'
asbag61
(g82
g63
NtRp1473
(dp1474
g66
(dp1475
sg75
g1460
sg68
(lp1476
g61
(g62
g63
NtRp1477
(dp1478
g66
(dp1479
g74
I4
ssg75
g1473
sg68
(lp1480
S'HTTP/1.1'
p1481
asbasbasbag61
(g77
g63
NtRp1482
(dp1483
g66
(dp1484
sg75
g864
sg68
(lp1485
g61
(g82
g63
NtRp1486
(dp1487
g66
(dp1488
g86
g87
ssg75
g1482
sg68
(lp1489
S'server_software'
p1490
asbag61
(g82
g63
NtRp1491
(dp1492
g66
(dp1493
g93
g94
ssg75
g1482
sg68
(lp1494
S':'
asbag61
(g82
g63
NtRp1495
(dp1496
g66
(dp1497
sg75
g1482
sg68
(lp1498
g61
(g62
g63
NtRp1499
(dp1500
g66
(dp1501
g74
I4
ssg75
g1495
sg68
(lp1502
S'Rocket 1.2.4'
p1503
asbasbasbag61
(g77
g63
NtRp1504
(dp1505
g66
(dp1506
sg75
g864
sg68
(lp1507
g61
(g82
g63
NtRp1508
(dp1509
g66
(dp1510
g86
g87
ssg75
g1504
sg68
(lp1511
S'web2py_crontype'
p1512
asbag61
(g82
g63
NtRp1513
(dp1514
g66
(dp1515
g93
g94
ssg75
g1504
sg68
(lp1516
S':'
asbag61
(g82
g63
NtRp1517
(dp1518
g66
(dp1519
sg75
g1504
sg68
(lp1520
g61
(g62
g63
NtRp1521
(dp1522
g66
(dp1523
g74
I4
ssg75
g1517
sg68
(lp1524
S'hard'
p1525
asbasbasbag61
(g77
g63
NtRp1526
(dp1527
g66
(dp1528
sg75
g864
sg68
(lp1529
g61
(g82
g63
NtRp1530
(dp1531
g66
(dp1532
g86
g87
ssg75
g1526
sg68
(lp1533
S'web2py_path'
p1534
asbag61
(g82
g63
NtRp1535
(dp1536
g66
(dp1537
g93
g94
ssg75
g1526
sg68
(lp1538
S':'
asbag61
(g82
g63
NtRp1539
(dp1540
g66
(dp1541
sg75
g1526
sg68
(lp1542
g61
(g62
g63
NtRp1543
(dp1544
g66
(dp1545
g74
I4
ssg75
g1539
sg68
(lp1546
g911
asbasbasbag61
(g77
g63
NtRp1547
(dp1548
g66
(dp1549
sg75
g864
sg68
(lp1550
g61
(g82
g63
NtRp1551
(dp1552
g66
(dp1553
g86
g87
ssg75
g1547
sg68
(lp1554
S'web2py_version'
p1555
asbag61
(g82
g63
NtRp1556
(dp1557
g66
(dp1558
g93
g94
ssg75
g1547
sg68
(lp1559
S':'
asbag61
(g82
g63
NtRp1560
(dp1561
g66
(dp1562
sg75
g1547
sg68
(lp1563
g61
(g62
g63
NtRp1564
(dp1565
g66
(dp1566
g74
I4
ssg75
g1560
sg68
(lp1567
g61
(g70
g63
NtRp1568
(dp1569
g66
(dp1570
g74
I3
ssg75
Nsg68
(lp1571
g61
(g77
g63
NtRp1572
(dp1573
g66
(dp1574
sg75
g1568
sg68
(lp1575
g61
(g82
g63
NtRp1576
(dp1577
g66
(dp1578
sg75
g1572
sg68
(lp1579
g61
(g62
g63
NtRp1580
(dp1581
g66
(dp1582
g74
I3
ssg75
g1576
sg68
(lp1583
S'2'
asbasbasbag61
(g77
g63
NtRp1584
(dp1585
g66
(dp1586
sg75
g1568
sg68
(lp1587
g61
(g82
g63
NtRp1588
(dp1589
g66
(dp1590
sg75
g1584
sg68
(lp1591
g61
(g62
g63
NtRp1592
(dp1593
g66
(dp1594
g74
I3
ssg75
g1588
sg68
(lp1595
S'0'
asbasbasbag61
(g77
g63
NtRp1596
(dp1597
g66
(dp1598
sg75
g1568
sg68
(lp1599
g61
(g82
g63
NtRp1600
(dp1601
g66
(dp1602
sg75
g1596
sg68
(lp1603
g61
(g62
g63
NtRp1604
(dp1605
g66
(dp1606
g74
I3
ssg75
g1600
sg68
(lp1607
S'9'
asbasbasbag61
(g77
g63
NtRp1608
(dp1609
g66
(dp1610
sg75
g1568
sg68
(lp1611
g61
(g82
g63
NtRp1612
(dp1613
g66
(dp1614
sg75
g1608
sg68
(lp1615
g61
(g62
g63
NtRp1616
(dp1617
g66
(dp1618
g74
I3
ssg75
g1612
sg68
(lp1619
S'datetime.datetime(2012, 9, 13, 23, 51, 30)'
p1620
asbasbasbag61
(g77
g63
NtRp1621
(dp1622
g66
(dp1623
sg75
g1568
sg68
(lp1624
g61
(g82
g63
NtRp1625
(dp1626
g66
(dp1627
sg75
g1621
sg68
(lp1628
g61
(g62
g63
NtRp1629
(dp1630
g66
(dp1631
g74
I3
ssg75
g1625
sg68
(lp1632
S'stable'
p1633
asbasbasbasbasbasbasbag61
(g77
g63
NtRp1634
(dp1635
g66
(dp1636
sg75
g864
sg68
(lp1637
g61
(g82
g63
NtRp1638
(dp1639
g66
(dp1640
g86
g87
ssg75
g1634
sg68
(lp1641
S'wsgi_errors'
p1642
asbag61
(g82
g63
NtRp1643
(dp1644
g66
(dp1645
g93
g94
ssg75
g1634
sg68
(lp1646
S':'
asbag61
(g82
g63
NtRp1647
(dp1648
g66
(dp1649
sg75
g1634
sg68
(lp1650
g61
(g62
g63
NtRp1651
(dp1652
g66
(dp1653
g74
I4
ssg75
g1647
sg68
(lp1654
S"<open file '<stderr>', mode 'w' at 0xb774d0d0>"
p1655
asbasbasbag61
(g77
g63
NtRp1656
(dp1657
g66
(dp1658
sg75
g864
sg68
(lp1659
g61
(g82
g63
NtRp1660
(dp1661
g66
(dp1662
g86
g87
ssg75
g1656
sg68
(lp1663
S'wsgi_file_wrapper'
p1664
asbag61
(g82
g63
NtRp1665
(dp1666
g66
(dp1667
g93
g94
ssg75
g1656
sg68
(lp1668
S':'
asbag61
(g82
g63
NtRp1669
(dp1670
g66
(dp1671
sg75
g1656
sg68
(lp1672
g61
(g62
g63
NtRp1673
(dp1674
g66
(dp1675
g74
I4
ssg75
g1669
sg68
(lp1676
S'<class wsgiref.util.FileWrapper at 0x993786c>'
p1677
asbasbasbag61
(g77
g63
NtRp1678
(dp1679
g66
(dp1680
sg75
g864
sg68
(lp1681
g61
(g82
g63
NtRp1682
(dp1683
g66
(dp1684
g86
g87
ssg75
g1678
sg68
(lp1685
S'wsgi_input'
p1686
asbag61
(g82
g63
NtRp1687
(dp1688
g66
(dp1689
g93
g94
ssg75
g1678
sg68
(lp1690
S':'
asbag61
(g82
g63
NtRp1691
(dp1692
g66
(dp1693
sg75
g1678
sg68
(lp1694
g61
(g62
g63
NtRp1695
(dp1696
g66
(dp1697
g74
I4
ssg75
g1691
sg68
(lp1698
S'<socket._fileobject object at 0x9e4f66c>'
p1699
asbasbasbag61
(g77
g63
NtRp1700
(dp1701
g66
(dp1702
sg75
g864
sg68
(lp1703
g61
(g82
g63
NtRp1704
(dp1705
g66
(dp1706
g86
g87
ssg75
g1700
sg68
(lp1707
S'wsgi_multiprocess'
p1708
asbag61
(g82
g63
NtRp1709
(dp1710
g66
(dp1711
g93
g94
ssg75
g1700
sg68
(lp1712
S':'
asbag61
(g82
g63
NtRp1713
(dp1714
g66
(dp1715
sg75
g1700
sg68
(lp1716
g61
(g62
g63
NtRp1717
(dp1718
g66
(dp1719
g74
I4
ssg75
g1713
sg68
(lp1720
g104
asbasbasbag61
(g77
g63
NtRp1721
(dp1722
g66
(dp1723
sg75
g864
sg68
(lp1724
g61
(g82
g63
NtRp1725
(dp1726
g66
(dp1727
g86
g87
ssg75
g1721
sg68
(lp1728
S'wsgi_multithread'
p1729
asbag61
(g82
g63
NtRp1730
(dp1731
g66
(dp1732
g93
g94
ssg75
g1721
sg68
(lp1733
S':'
asbag61
(g82
g63
NtRp1734
(dp1735
g66
(dp1736
sg75
g1721
sg68
(lp1737
g61
(g62
g63
NtRp1738
(dp1739
g66
(dp1740
g74
I4
ssg75
g1734
sg68
(lp1741
S'True'
p1742
asbasbasbag61
(g77
g63
NtRp1743
(dp1744
g66
(dp1745
sg75
g864
sg68
(lp1746
g61
(g82
g63
NtRp1747
(dp1748
g66
(dp1749
g86
g87
ssg75
g1743
sg68
(lp1750
S'wsgi_run_once'
p1751
asbag61
(g82
g63
NtRp1752
(dp1753
g66
(dp1754
g93
g94
ssg75
g1743
sg68
(lp1755
S':'
asbag61
(g82
g63
NtRp1756
(dp1757
g66
(dp1758
sg75
g1743
sg68
(lp1759
g61
(g62
g63
NtRp1760
(dp1761
g66
(dp1762
g74
I4
ssg75
g1756
sg68
(lp1763
g104
asbasbasbag61
(g77
g63
NtRp1764
(dp1765
g66
(dp1766
sg75
g864
sg68
(lp1767
g61
(g82
g63
NtRp1768
(dp1769
g66
(dp1770
g86
g87
ssg75
g1764
sg68
(lp1771
S'wsgi_url_scheme'
p1772
asbag61
(g82
g63
NtRp1773
(dp1774
g66
(dp1775
g93
g94
ssg75
g1764
sg68
(lp1776
S':'
asbag61
(g82
g63
NtRp1777
(dp1778
g66
(dp1779
sg75
g1764
sg68
(lp1780
g61
(g62
g63
NtRp1781
(dp1782
g66
(dp1783
g74
I4
ssg75
g1777
sg68
(lp1784
S'http'
p1785
asbasbasbag61
(g77
g63
NtRp1786
(dp1787
g66
(dp1788
sg75
g864
sg68
(lp1789
g61
(g82
g63
NtRp1790
(dp1791
g66
(dp1792
g86
g87
ssg75
g1786
sg68
(lp1793
S'wsgi_version'
p1794
asbag61
(g82
g63
NtRp1795
(dp1796
g66
(dp1797
g93
g94
ssg75
g1786
sg68
(lp1798
S':'
asbag61
(g82
g63
NtRp1799
(dp1800
g66
(dp1801
sg75
g1786
sg68
(lp1802
g61
(g62
g63
NtRp1803
(dp1804
g66
(dp1805
g74
I4
ssg75
g1799
sg68
(lp1806
g61
(g70
g63
NtRp1807
(dp1808
g66
(dp1809
g74
I3
ssg75
Nsg68
(lp1810
g61
(g77
g63
NtRp1811
(dp1812
g66
(dp1813
sg75
g1807
sg68
(lp1814
g61
(g82
g63
NtRp1815
(dp1816
g66
(dp1817
sg75
g1811
sg68
(lp1818
g61
(g62
g63
NtRp1819
(dp1820
g66
(dp1821
g74
I3
ssg75
g1815
sg68
(lp1822
S'1'
asbasbasbag61
(g77
g63
NtRp1823
(dp1824
g66
(dp1825
sg75
g1807
sg68
(lp1826
g61
(g82
g63
NtRp1827
(dp1828
g66
(dp1829
sg75
g1823
sg68
(lp1830
g61
(g62
g63
NtRp1831
(dp1832
g66
(dp1833
g74
I3
ssg75
g1827
sg68
(lp1834
S'0'
asbasbasbasbasbasbasbasbasbasbasbag61
(g77
g63
NtRp1835
(dp1836
g66
(dp1837
sg75
g71
sg68
(lp1838
g61
(g82
g63
NtRp1839
(dp1840
g66
(dp1841
g86
g87
ssg75
g1835
sg68
(lp1842
S'extension'
p1843
asbag61
(g82
g63
NtRp1844
(dp1845
g66
(dp1846
g93
g94
ssg75
g1835
sg68
(lp1847
S':'
asbag61
(g82
g63
NtRp1848
(dp1849
g66
(dp1850
sg75
g1835
sg68
(lp1851
g61
(g62
g63
NtRp1852
(dp1853
g66
(dp1854
g74
I5
ssg75
g1848
sg68
(lp1855
S'html'
p1856
asbasbasbag61
(g77
g63
NtRp1857
(dp1858
g66
(dp1859
sg75
g71
sg68
(lp1860
g61
(g82
g63
NtRp1861
(dp1862
g66
(dp1863
g86
g87
ssg75
g1857
sg68
(lp1864
S'folder'
p1865
asbag61
(g82
g63
NtRp1866
(dp1867
g66
(dp1868
g93
g94
ssg75
g1857
sg68
(lp1869
S':'
asbag61
(g82
g63
NtRp1870
(dp1871
g66
(dp1872
sg75
g1857
sg68
(lp1873
g61
(g62
g63
NtRp1874
(dp1875
g66
(dp1876
g74
I5
ssg75
g1870
sg68
(lp1877
S'/home/perdomor/web2py/applications/sicoin/'
p1878
asbasbasbag61
(g77
g63
NtRp1879
(dp1880
g66
(dp1881
sg75
g71
sg68
(lp1882
g61
(g82
g63
NtRp1883
(dp1884
g66
(dp1885
g86
g87
ssg75
g1879
sg68
(lp1886
S'function'
p1887
asbag61
(g82
g63
NtRp1888
(dp1889
g66
(dp1890
g93
g94
ssg75
g1879
sg68
(lp1891
S':'
asbag61
(g82
g63
NtRp1892
(dp1893
g66
(dp1894
sg75
g1879
sg68
(lp1895
g61
(g62
g63
NtRp1896
(dp1897
g66
(dp1898
g74
I5
ssg75
g1892
sg68
(lp1899
S'user'
p1900
asbasbasbag61
(g77
g63
NtRp1901
(dp1902
g66
(dp1903
sg75
g71
sg68
(lp1904
g61
(g82
g63
NtRp1905
(dp1906
g66
(dp1907
g86
g87
ssg75
g1901
sg68
(lp1908
S'get_vars'
p1909
asbag61
(g82
g63
NtRp1910
(dp1911
g66
(dp1912
g93
g94
ssg75
g1901
sg68
(lp1913
S':'
asbag61
(g82
g63
NtRp1914
(dp1915
g66
(dp1916
sg75
g1901
sg68
(lp1917
g61
(g62
g63
NtRp1918
(dp1919
g66
(dp1920
g74
I5
ssg75
g1914
sg68
(lp1921
g61
(g70
g63
NtRp1922
(dp1923
g66
(dp1924
g74
I4
ssg75
Nsg68
(lp1925
sbasbasbasbag61
(g77
g63
NtRp1926
(dp1927
g66
(dp1928
sg75
g71
sg68
(lp1929
g61
(g82
g63
NtRp1930
(dp1931
g66
(dp1932
g86
g87
ssg75
g1926
sg68
(lp1933
S'global_settings'
p1934
asbag61
(g82
g63
NtRp1935
(dp1936
g66
(dp1937
g93
g94
ssg75
g1926
sg68
(lp1938
S':'
asbag61
(g82
g63
NtRp1939
(dp1940
g66
(dp1941
sg75
g1926
sg68
(lp1942
g61
(g62
g63
NtRp1943
(dp1944
g66
(dp1945
g74
I5
ssg75
g1939
sg68
(lp1946
g61
(g70
g63
NtRp1947
(dp1948
g66
(dp1949
g74
I4
ssg75
Nsg68
(lp1950
g61
(g77
g63
NtRp1951
(dp1952
g66
(dp1953
sg75
g1947
sg68
(lp1954
g61
(g82
g63
NtRp1955
(dp1956
g66
(dp1957
g86
g87
ssg75
g1951
sg68
(lp1958
g876
asbag61
(g82
g63
NtRp1959
(dp1960
g66
(dp1961
g93
g94
ssg75
g1951
sg68
(lp1962
S':'
asbag61
(g82
g63
NtRp1963
(dp1964
g66
(dp1965
sg75
g1951
sg68
(lp1966
g61
(g62
g63
NtRp1967
(dp1968
g66
(dp1969
g74
I4
ssg75
g1963
sg68
(lp1970
S"set(['/home/perdomor/web2py/applications/sicoin/', '/home/perdomor/web2py/applications/welcome/'])"
p1971
asbasbasbag61
(g77
g63
NtRp1972
(dp1973
g66
(dp1974
sg75
g1947
sg68
(lp1975
g61
(g82
g63
NtRp1976
(dp1977
g66
(dp1978
g86
g87
ssg75
g1972
sg68
(lp1979
g898
asbag61
(g82
g63
NtRp1980
(dp1981
g66
(dp1982
g93
g94
ssg75
g1972
sg68
(lp1983
S':'
asbag61
(g82
g63
NtRp1984
(dp1985
g66
(dp1986
sg75
g1972
sg68
(lp1987
g61
(g62
g63
NtRp1988
(dp1989
g66
(dp1990
g74
I4
ssg75
g1984
sg68
(lp1991
g911
asbasbasbag61
(g77
g63
NtRp1992
(dp1993
g66
(dp1994
sg75
g1947
sg68
(lp1995
g61
(g82
g63
NtRp1996
(dp1997
g66
(dp1998
g86
g87
ssg75
g1992
sg68
(lp1999
g920
asbag61
(g82
g63
NtRp2000
(dp2001
g66
(dp2002
g93
g94
ssg75
g1992
sg68
(lp2003
S':'
asbag61
(g82
g63
NtRp2004
(dp2005
g66
(dp2006
sg75
g1992
sg68
(lp2007
g61
(g62
g63
NtRp2008
(dp2009
g66
(dp2010
g74
I4
ssg75
g2004
sg68
(lp2011
g61
(g70
g63
NtRp2012
(dp2013
g66
(dp2014
g74
I3
ssg75
Nsg68
(lp2015
sbasbasbasbag61
(g77
g63
NtRp2016
(dp2017
g66
(dp2018
sg75
g1947
sg68
(lp2019
g61
(g82
g63
NtRp2020
(dp2021
g66
(dp2022
g86
g87
ssg75
g2016
sg68
(lp2023
g945
asbag61
(g82
g63
NtRp2024
(dp2025
g66
(dp2026
g93
g94
ssg75
g2016
sg68
(lp2027
S':'
asbag61
(g82
g63
NtRp2028
(dp2029
g66
(dp2030
sg75
g2016
sg68
(lp2031
g61
(g62
g63
NtRp2032
(dp2033
g66
(dp2034
g74
I4
ssg75
g2028
sg68
(lp2035
S"<Values at 0x998390c: {'verbose': False, 'ip': '127.0.0.1', 'with_scheduler': False, 'ips': ['127.0.1.1'], 'shutdown_timeout': 5, 'taskbar': False, 'port': 8000, 'maxthreads': None, 'softcron': False, 'server_name': 'perdomor', 'bpython': False, 'nogui': False, 'nocron': False, 'extcron': False, 'run_system_tests': False, 'test': None, 'folder': '/home/perdomor/web2py', 'config': '', 'import_models': False, 'winservice': '', 'shell': None, 'run': '', 'log_filename': 'httpserver.log', 'debuglevel': 30, 'args': [''], 'socket_timeout': 5, 'ssl_ca_certificate': None, 'scheduler': None, 'profiler_filename': None, 'ssl_private_key': '', 'scheduler_groups': None, 'password': '<ask>', 'request_queue_size': 5, 'ssl_certificate': '', 'cronjob': False, 'numthreads': None, 'quiet': False, 'interfaces': None, 'minthreads': None, 'timeout': 10, 'plain': False, 'nobanner': False, 'pid_filename': 'httpserver.pid'}>"
p2036
asbasbasbag61
(g77
g63
NtRp2037
(dp2038
g66
(dp2039
sg75
g1947
sg68
(lp2040
g61
(g82
g63
NtRp2041
(dp2042
g66
(dp2043
g86
g87
ssg75
g2037
sg68
(lp2044
g967
asbag61
(g82
g63
NtRp2045
(dp2046
g66
(dp2047
g93
g94
ssg75
g2037
sg68
(lp2048
S':'
asbag61
(g82
g63
NtRp2049
(dp2050
g66
(dp2051
sg75
g2037
sg68
(lp2052
g61
(g62
g63
NtRp2053
(dp2054
g66
(dp2055
g74
I4
ssg75
g2049
sg68
(lp2056
S'set([])'
p2057
asbasbasbag61
(g77
g63
NtRp2058
(dp2059
g66
(dp2060
sg75
g1947
sg68
(lp2061
g61
(g82
g63
NtRp2062
(dp2063
g66
(dp2064
g86
g87
ssg75
g2058
sg68
(lp2065
g989
asbag61
(g82
g63
NtRp2066
(dp2067
g66
(dp2068
g93
g94
ssg75
g2058
sg68
(lp2069
S':'
asbag61
(g82
g63
NtRp2070
(dp2071
g66
(dp2072
sg75
g2058
sg68
(lp2073
g61
(g62
g63
NtRp2074
(dp2075
g66
(dp2076
g74
I4
ssg75
g2070
sg68
(lp2077
g104
asbasbasbag61
(g77
g63
NtRp2078
(dp2079
g66
(dp2080
sg75
g1947
sg68
(lp2081
g61
(g82
g63
NtRp2082
(dp2083
g66
(dp2084
g86
g87
ssg75
g2078
sg68
(lp2085
g1010
asbag61
(g82
g63
NtRp2086
(dp2087
g66
(dp2088
g93
g94
ssg75
g2078
sg68
(lp2089
S':'
asbag61
(g82
g63
NtRp2090
(dp2091
g66
(dp2092
sg75
g2078
sg68
(lp2093
g61
(g62
g63
NtRp2094
(dp2095
g66
(dp2096
g74
I4
ssg75
g2090
sg68
(lp2097
g1023
asbasbasbag61
(g77
g63
NtRp2098
(dp2099
g66
(dp2100
sg75
g1947
sg68
(lp2101
g61
(g82
g63
NtRp2102
(dp2103
g66
(dp2104
g86
g87
ssg75
g2098
sg68
(lp2105
g1230
asbag61
(g82
g63
NtRp2106
(dp2107
g66
(dp2108
g93
g94
ssg75
g2098
sg68
(lp2109
S':'
asbag61
(g82
g63
NtRp2110
(dp2111
g66
(dp2112
sg75
g2098
sg68
(lp2113
g61
(g62
g63
NtRp2114
(dp2115
g66
(dp2116
g74
I4
ssg75
g2110
sg68
(lp2117
g104
asbasbasbag61
(g77
g63
NtRp2118
(dp2119
g66
(dp2120
sg75
g1947
sg68
(lp2121
g61
(g82
g63
NtRp2122
(dp2123
g66
(dp2124
g86
g87
ssg75
g2118
sg68
(lp2125
g1251
asbag61
(g82
g63
NtRp2126
(dp2127
g66
(dp2128
g93
g94
ssg75
g2118
sg68
(lp2129
S':'
asbag61
(g82
g63
NtRp2130
(dp2131
g66
(dp2132
sg75
g2118
sg68
(lp2133
g61
(g62
g63
NtRp2134
(dp2135
g66
(dp2136
g74
I4
ssg75
g2130
sg68
(lp2137
g104
asbasbasbag61
(g77
g63
NtRp2138
(dp2139
g66
(dp2140
sg75
g1947
sg68
(lp2141
g61
(g82
g63
NtRp2142
(dp2143
g66
(dp2144
g86
g87
ssg75
g2138
sg68
(lp2145
g1512
asbag61
(g82
g63
NtRp2146
(dp2147
g66
(dp2148
g93
g94
ssg75
g2138
sg68
(lp2149
S':'
asbag61
(g82
g63
NtRp2150
(dp2151
g66
(dp2152
sg75
g2138
sg68
(lp2153
g61
(g62
g63
NtRp2154
(dp2155
g66
(dp2156
g74
I4
ssg75
g2150
sg68
(lp2157
g1525
asbasbasbag61
(g77
g63
NtRp2158
(dp2159
g66
(dp2160
sg75
g1947
sg68
(lp2161
g61
(g82
g63
NtRp2162
(dp2163
g66
(dp2164
g86
g87
ssg75
g2158
sg68
(lp2165
g1555
asbag61
(g82
g63
NtRp2166
(dp2167
g66
(dp2168
g93
g94
ssg75
g2158
sg68
(lp2169
S':'
asbag61
(g82
g63
NtRp2170
(dp2171
g66
(dp2172
sg75
g2158
sg68
(lp2173
g61
(g62
g63
NtRp2174
(dp2175
g66
(dp2176
g74
I4
ssg75
g2170
sg68
(lp2177
g61
(g70
g63
NtRp2178
(dp2179
g66
(dp2180
g74
I3
ssg75
Nsg68
(lp2181
g61
(g77
g63
NtRp2182
(dp2183
g66
(dp2184
sg75
g2178
sg68
(lp2185
g61
(g82
g63
NtRp2186
(dp2187
g66
(dp2188
sg75
g2182
sg68
(lp2189
g61
(g62
g63
NtRp2190
(dp2191
g66
(dp2192
g74
I3
ssg75
g2186
sg68
(lp2193
S'2'
asbasbasbag61
(g77
g63
NtRp2194
(dp2195
g66
(dp2196
sg75
g2178
sg68
(lp2197
g61
(g82
g63
NtRp2198
(dp2199
g66
(dp2200
sg75
g2194
sg68
(lp2201
g61
(g62
g63
NtRp2202
(dp2203
g66
(dp2204
g74
I3
ssg75
g2198
sg68
(lp2205
S'0'
asbasbasbag61
(g77
g63
NtRp2206
(dp2207
g66
(dp2208
sg75
g2178
sg68
(lp2209
g61
(g82
g63
NtRp2210
(dp2211
g66
(dp2212
sg75
g2206
sg68
(lp2213
g61
(g62
g63
NtRp2214
(dp2215
g66
(dp2216
g74
I3
ssg75
g2210
sg68
(lp2217
S'9'
asbasbasbag61
(g77
g63
NtRp2218
(dp2219
g66
(dp2220
sg75
g2178
sg68
(lp2221
g61
(g82
g63
NtRp2222
(dp2223
g66
(dp2224
sg75
g2218
sg68
(lp2225
g61
(g62
g63
NtRp2226
(dp2227
g66
(dp2228
g74
I3
ssg75
g2222
sg68
(lp2229
S'datetime.datetime(2012, 9, 13, 23, 51, 30)'
p2230
asbasbasbag61
(g77
g63
NtRp2231
(dp2232
g66
(dp2233
sg75
g2178
sg68
(lp2234
g61
(g82
g63
NtRp2235
(dp2236
g66
(dp2237
sg75
g2231
sg68
(lp2238
g61
(g62
g63
NtRp2239
(dp2240
g66
(dp2241
g74
I3
ssg75
g2235
sg68
(lp2242
g1633
asbasbasbasbasbasbasbasbasbasbasbag61
(g77
g63
NtRp2243
(dp2244
g66
(dp2245
sg75
g71
sg68
(lp2246
g61
(g82
g63
NtRp2247
(dp2248
g66
(dp2249
g86
g87
ssg75
g2243
sg68
(lp2250
S'is_https'
p2251
asbag61
(g82
g63
NtRp2252
(dp2253
g66
(dp2254
g93
g94
ssg75
g2243
sg68
(lp2255
S':'
asbag61
(g82
g63
NtRp2256
(dp2257
g66
(dp2258
sg75
g2243
sg68
(lp2259
g61
(g62
g63
NtRp2260
(dp2261
g66
(dp2262
g74
I5
ssg75
g2256
sg68
(lp2263
g104
asbasbasbag61
(g77
g63
NtRp2264
(dp2265
g66
(dp2266
sg75
g71
sg68
(lp2267
g61
(g82
g63
NtRp2268
(dp2269
g66
(dp2270
g86
g87
ssg75
g2264
sg68
(lp2271
S'is_local'
p2272
asbag61
(g82
g63
NtRp2273
(dp2274
g66
(dp2275
g93
g94
ssg75
g2264
sg68
(lp2276
S':'
asbag61
(g82
g63
NtRp2277
(dp2278
g66
(dp2279
sg75
g2264
sg68
(lp2280
g61
(g62
g63
NtRp2281
(dp2282
g66
(dp2283
g74
I5
ssg75
g2277
sg68
(lp2284
g1742
asbasbasbag61
(g77
g63
NtRp2285
(dp2286
g66
(dp2287
sg75
g71
sg68
(lp2288
g61
(g82
g63
NtRp2289
(dp2290
g66
(dp2291
g86
g87
ssg75
g2285
sg68
(lp2292
S'is_restful'
p2293
asbag61
(g82
g63
NtRp2294
(dp2295
g66
(dp2296
g93
g94
ssg75
g2285
sg68
(lp2297
S':'
asbag61
(g82
g63
NtRp2298
(dp2299
g66
(dp2300
sg75
g2285
sg68
(lp2301
g61
(g62
g63
NtRp2302
(dp2303
g66
(dp2304
g74
I5
ssg75
g2298
sg68
(lp2305
g104
asbasbasbag61
(g77
g63
NtRp2306
(dp2307
g66
(dp2308
sg75
g71
sg68
(lp2309
g61
(g82
g63
NtRp2310
(dp2311
g66
(dp2312
g86
g87
ssg75
g2306
sg68
(lp2313
S'now'
p2314
asbag61
(g82
g63
NtRp2315
(dp2316
g66
(dp2317
g93
g94
ssg75
g2306
sg68
(lp2318
S':'
asbag61
(g82
g63
NtRp2319
(dp2320
g66
(dp2321
sg75
g2306
sg68
(lp2322
g61
(g62
g63
NtRp2323
(dp2324
g66
(dp2325
g74
I5
ssg75
g2319
sg68
(lp2326
S'datetime.datetime(2012, 10, 19, 11, 30, 0, 953984)'
p2327
asbasbasbag61
(g77
g63
NtRp2328
(dp2329
g66
(dp2330
sg75
g71
sg68
(lp2331
g61
(g82
g63
NtRp2332
(dp2333
g66
(dp2334
g86
g87
ssg75
g2328
sg68
(lp2335
S'post_vars'
p2336
asbag61
(g82
g63
NtRp2337
(dp2338
g66
(dp2339
g93
g94
ssg75
g2328
sg68
(lp2340
S':'
asbag61
(g82
g63
NtRp2341
(dp2342
g66
(dp2343
sg75
g2328
sg68
(lp2344
g61
(g62
g63
NtRp2345
(dp2346
g66
(dp2347
g74
I5
ssg75
g2341
sg68
(lp2348
g61
(g70
g63
NtRp2349
(dp2350
g66
(dp2351
g74
I4
ssg75
Nsg68
(lp2352
sbasbasbasbag61
(g77
g63
NtRp2353
(dp2354
g66
(dp2355
sg75
g71
sg68
(lp2356
g61
(g82
g63
NtRp2357
(dp2358
g66
(dp2359
g86
g87
ssg75
g2353
sg68
(lp2360
S'raw_args'
p2361
asbag61
(g82
g63
NtRp2362
(dp2363
g66
(dp2364
g93
g94
ssg75
g2353
sg68
(lp2365
S':'
asbag61
(g82
g63
NtRp2366
(dp2367
g66
(dp2368
sg75
g2353
sg68
(lp2369
g61
(g62
g63
NtRp2370
(dp2371
g66
(dp2372
g74
I5
ssg75
g2366
sg68
(lp2373
g163
asbasbasbag61
(g77
g63
NtRp2374
(dp2375
g66
(dp2376
sg75
g71
sg68
(lp2377
g61
(g82
g63
NtRp2378
(dp2379
g66
(dp2380
g86
g87
ssg75
g2374
sg68
(lp2381
S'raw_extension'
p2382
asbag61
(g82
g63
NtRp2383
(dp2384
g66
(dp2385
g93
g94
ssg75
g2374
sg68
(lp2386
S':'
asbag61
(g82
g63
NtRp2387
(dp2388
g66
(dp2389
sg75
g2374
sg68
(lp2390
g61
(g62
g63
NtRp2391
(dp2392
g66
(dp2393
g74
I5
ssg75
g2387
sg68
(lp2394
S'None'
p2395
asbasbasbag61
(g77
g63
NtRp2396
(dp2397
g66
(dp2398
sg75
g71
sg68
(lp2399
g61
(g82
g63
NtRp2400
(dp2401
g66
(dp2402
g86
g87
ssg75
g2396
sg68
(lp2403
S'url'
p2404
asbag61
(g82
g63
NtRp2405
(dp2406
g66
(dp2407
g93
g94
ssg75
g2396
sg68
(lp2408
S':'
asbag61
(g82
g63
NtRp2409
(dp2410
g66
(dp2411
sg75
g2396
sg68
(lp2412
g61
(g62
g63
NtRp2413
(dp2414
g66
(dp2415
g74
I5
ssg75
g2409
sg68
(lp2416
g1285
asbasbasbag61
(g77
g63
NtRp2417
(dp2418
g66
(dp2419
sg75
g71
sg68
(lp2420
g61
(g82
g63
NtRp2421
(dp2422
g66
(dp2423
g86
g87
ssg75
g2417
sg68
(lp2424
S'utcnow'
p2425
asbag61
(g82
g63
NtRp2426
(dp2427
g66
(dp2428
g93
g94
ssg75
g2417
sg68
(lp2429
S':'
asbag61
(g82
g63
NtRp2430
(dp2431
g66
(dp2432
sg75
g2417
sg68
(lp2433
g61
(g62
g63
NtRp2434
(dp2435
g66
(dp2436
g74
I5
ssg75
g2430
sg68
(lp2437
S'datetime.datetime(2012, 10, 19, 16, 0, 0, 954015)'
p2438
asbasbasbag61
(g77
g63
NtRp2439
(dp2440
g66
(dp2441
sg75
g71
sg68
(lp2442
g61
(g82
g63
NtRp2443
(dp2444
g66
(dp2445
g86
g87
ssg75
g2439
sg68
(lp2446
S'uuid'
p2447
asbag61
(g82
g63
NtRp2448
(dp2449
g66
(dp2450
g93
g94
ssg75
g2439
sg68
(lp2451
S':'
asbag61
(g82
g63
NtRp2452
(dp2453
g66
(dp2454
sg75
g2439
sg68
(lp2455
g61
(g62
g63
NtRp2456
(dp2457
g66
(dp2458
g74
I5
ssg75
g2452
sg68
(lp2459
S'sicoin/190.169.221.43.2012-10-19.11-30-00.04ed5fc7-79ef-4009-9745-0c900375cb17'
p2460
asbasbasbag61
(g77
g63
NtRp2461
(dp2462
g66
(dp2463
sg75
g71
sg68
(lp2464
g61
(g82
g63
NtRp2465
(dp2466
g66
(dp2467
g86
g87
ssg75
g2461
sg68
(lp2468
S'vars'
p2469
asbag61
(g82
g63
NtRp2470
(dp2471
g66
(dp2472
g93
g94
ssg75
g2461
sg68
(lp2473
S':'
asbag61
(g82
g63
NtRp2474
(dp2475
g66
(dp2476
sg75
g2461
sg68
(lp2477
g61
(g62
g63
NtRp2478
(dp2479
g66
(dp2480
g74
I5
ssg75
g2474
sg68
(lp2481
g61
(g70
g63
NtRp2482
(dp2483
g66
(dp2484
g74
I4
ssg75
Nsg68
(lp2485
sbasbasbasbag61
(g77
g63
NtRp2486
(dp2487
g66
(dp2488
sg75
g71
sg68
(lp2489
g61
(g82
g63
NtRp2490
(dp2491
g66
(dp2492
g86
g87
ssg75
g2486
sg68
(lp2493
S'wsgi'
p2494
asbag61
(g82
g63
NtRp2495
(dp2496
g66
(dp2497
g93
g94
ssg75
g2486
sg68
(lp2498
S':'
asbag61
(g82
g63
NtRp2499
(dp2500
g66
(dp2501
sg75
g2486
sg68
(lp2502
g61
(g62
g63
NtRp2503
(dp2504
g66
(dp2505
g74
I5
ssg75
g2499
sg68
(lp2506
g61
(g70
g63
NtRp2507
(dp2508
g66
(dp2509
g74
I4
ssg75
Nsg68
(lp2510
g61
(g77
g63
NtRp2511
(dp2512
g66
(dp2513
sg75
g2507
sg68
(lp2514
g61
(g82
g63
NtRp2515
(dp2516
g66
(dp2517
g86
g87
ssg75
g2511
sg68
(lp2518
S'environ'
p2519
asbag61
(g82
g63
NtRp2520
(dp2521
g66
(dp2522
g93
g94
ssg75
g2511
sg68
(lp2523
S':'
asbag61
(g82
g63
NtRp2524
(dp2525
g66
(dp2526
sg75
g2511
sg68
(lp2527
g61
(g62
g63
NtRp2528
(dp2529
g66
(dp2530
g74
I4
ssg75
g2524
sg68
(lp2531
g61
(g70
g63
NtRp2532
(dp2533
g66
(dp2534
g74
I3
ssg75
Nsg68
(lp2535
g61
(g77
g63
NtRp2536
(dp2537
g66
(dp2538
sg75
g2532
sg68
(lp2539
g61
(g82
g63
NtRp2540
(dp2541
g66
(dp2542
g86
g87
ssg75
g2536
sg68
(lp2543
S'HTTP_ACCEPT'
p2544
asbag61
(g82
g63
NtRp2545
(dp2546
g66
(dp2547
g93
g94
ssg75
g2536
sg68
(lp2548
S':'
asbag61
(g82
g63
NtRp2549
(dp2550
g66
(dp2551
sg75
g2536
sg68
(lp2552
g61
(g62
g63
NtRp2553
(dp2554
g66
(dp2555
g74
I3
ssg75
g2549
sg68
(lp2556
g1045
asbasbasbag61
(g77
g63
NtRp2557
(dp2558
g66
(dp2559
sg75
g2532
sg68
(lp2560
g61
(g82
g63
NtRp2561
(dp2562
g66
(dp2563
g86
g87
ssg75
g2557
sg68
(lp2564
S'HTTP_ACCEPT_CHARSET'
p2565
asbag61
(g82
g63
NtRp2566
(dp2567
g66
(dp2568
g93
g94
ssg75
g2557
sg68
(lp2569
S':'
asbag61
(g82
g63
NtRp2570
(dp2571
g66
(dp2572
sg75
g2557
sg68
(lp2573
g61
(g62
g63
NtRp2574
(dp2575
g66
(dp2576
g74
I3
ssg75
g2570
sg68
(lp2577
g1067
asbasbasbag61
(g77
g63
NtRp2578
(dp2579
g66
(dp2580
sg75
g2532
sg68
(lp2581
g61
(g82
g63
NtRp2582
(dp2583
g66
(dp2584
g86
g87
ssg75
g2578
sg68
(lp2585
S'HTTP_ACCEPT_ENCODING'
p2586
asbag61
(g82
g63
NtRp2587
(dp2588
g66
(dp2589
g93
g94
ssg75
g2578
sg68
(lp2590
S':'
asbag61
(g82
g63
NtRp2591
(dp2592
g66
(dp2593
sg75
g2578
sg68
(lp2594
g61
(g62
g63
NtRp2595
(dp2596
g66
(dp2597
g74
I3
ssg75
g2591
sg68
(lp2598
g1089
asbasbasbag61
(g77
g63
NtRp2599
(dp2600
g66
(dp2601
sg75
g2532
sg68
(lp2602
g61
(g82
g63
NtRp2603
(dp2604
g66
(dp2605
g86
g87
ssg75
g2599
sg68
(lp2606
S'HTTP_ACCEPT_LANGUAGE'
p2607
asbag61
(g82
g63
NtRp2608
(dp2609
g66
(dp2610
g93
g94
ssg75
g2599
sg68
(lp2611
S':'
asbag61
(g82
g63
NtRp2612
(dp2613
g66
(dp2614
sg75
g2599
sg68
(lp2615
g61
(g62
g63
NtRp2616
(dp2617
g66
(dp2618
g74
I3
ssg75
g2612
sg68
(lp2619
g1111
asbasbasbag61
(g77
g63
NtRp2620
(dp2621
g66
(dp2622
sg75
g2532
sg68
(lp2623
g61
(g82
g63
NtRp2624
(dp2625
g66
(dp2626
g86
g87
ssg75
g2620
sg68
(lp2627
S'HTTP_CONNECTION'
p2628
asbag61
(g82
g63
NtRp2629
(dp2630
g66
(dp2631
g93
g94
ssg75
g2620
sg68
(lp2632
S':'
asbag61
(g82
g63
NtRp2633
(dp2634
g66
(dp2635
sg75
g2620
sg68
(lp2636
g61
(g62
g63
NtRp2637
(dp2638
g66
(dp2639
g74
I3
ssg75
g2633
sg68
(lp2640
g1133
asbasbasbag61
(g77
g63
NtRp2641
(dp2642
g66
(dp2643
sg75
g2532
sg68
(lp2644
g61
(g82
g63
NtRp2645
(dp2646
g66
(dp2647
g86
g87
ssg75
g2641
sg68
(lp2648
S'HTTP_COOKIE'
p2649
asbag61
(g82
g63
NtRp2650
(dp2651
g66
(dp2652
g93
g94
ssg75
g2641
sg68
(lp2653
S':'
asbag61
(g82
g63
NtRp2654
(dp2655
g66
(dp2656
sg75
g2641
sg68
(lp2657
g61
(g62
g63
NtRp2658
(dp2659
g66
(dp2660
g74
I3
ssg75
g2654
sg68
(lp2661
g1155
asbasbasbag61
(g77
g63
NtRp2662
(dp2663
g66
(dp2664
sg75
g2532
sg68
(lp2665
g61
(g82
g63
NtRp2666
(dp2667
g66
(dp2668
g86
g87
ssg75
g2662
sg68
(lp2669
S'HTTP_HOST'
p2670
asbag61
(g82
g63
NtRp2671
(dp2672
g66
(dp2673
g93
g94
ssg75
g2662
sg68
(lp2674
S':'
asbag61
(g82
g63
NtRp2675
(dp2676
g66
(dp2677
sg75
g2662
sg68
(lp2678
g61
(g62
g63
NtRp2679
(dp2680
g66
(dp2681
g74
I3
ssg75
g2675
sg68
(lp2682
g1177
asbasbasbag61
(g77
g63
NtRp2683
(dp2684
g66
(dp2685
sg75
g2532
sg68
(lp2686
g61
(g82
g63
NtRp2687
(dp2688
g66
(dp2689
g86
g87
ssg75
g2683
sg68
(lp2690
S'HTTP_REFERER'
p2691
asbag61
(g82
g63
NtRp2692
(dp2693
g66
(dp2694
g93
g94
ssg75
g2683
sg68
(lp2695
S':'
asbag61
(g82
g63
NtRp2696
(dp2697
g66
(dp2698
sg75
g2683
sg68
(lp2699
g61
(g62
g63
NtRp2700
(dp2701
g66
(dp2702
g74
I3
ssg75
g2696
sg68
(lp2703
g1199
asbasbasbag61
(g77
g63
NtRp2704
(dp2705
g66
(dp2706
sg75
g2532
sg68
(lp2707
g61
(g82
g63
NtRp2708
(dp2709
g66
(dp2710
g86
g87
ssg75
g2704
sg68
(lp2711
S'HTTP_USER_AGENT'
p2712
asbag61
(g82
g63
NtRp2713
(dp2714
g66
(dp2715
g93
g94
ssg75
g2704
sg68
(lp2716
S':'
asbag61
(g82
g63
NtRp2717
(dp2718
g66
(dp2719
sg75
g2704
sg68
(lp2720
g61
(g62
g63
NtRp2721
(dp2722
g66
(dp2723
g74
I3
ssg75
g2717
sg68
(lp2724
g1221
asbasbasbag61
(g77
g63
NtRp2725
(dp2726
g66
(dp2727
sg75
g2532
sg68
(lp2728
g61
(g82
g63
NtRp2729
(dp2730
g66
(dp2731
g86
g87
ssg75
g2725
sg68
(lp2732
S'PATH_INFO'
p2733
asbag61
(g82
g63
NtRp2734
(dp2735
g66
(dp2736
g93
g94
ssg75
g2725
sg68
(lp2737
S':'
asbag61
(g82
g63
NtRp2738
(dp2739
g66
(dp2740
sg75
g2725
sg68
(lp2741
g61
(g62
g63
NtRp2742
(dp2743
g66
(dp2744
g74
I3
ssg75
g2738
sg68
(lp2745
g1285
asbasbasbag61
(g77
g63
NtRp2746
(dp2747
g66
(dp2748
sg75
g2532
sg68
(lp2749
g61
(g82
g63
NtRp2750
(dp2751
g66
(dp2752
g86
g87
ssg75
g2746
sg68
(lp2753
S'QUERY_STRING'
p2754
asbag61
(g82
g63
NtRp2755
(dp2756
g66
(dp2757
g93
g94
ssg75
g2746
sg68
(lp2758
S':'
asbag61
(g82
g63
NtRp2759
(dp2760
g66
(dp2761
sg75
g2746
sg68
(lp2762
g61
(g62
g63
NtRp2763
(dp2764
g66
(dp2765
g74
I3
ssg75
g2759
sg68
(lp2766
g1307
asbasbasbag61
(g77
g63
NtRp2767
(dp2768
g66
(dp2769
sg75
g2532
sg68
(lp2770
g61
(g82
g63
NtRp2771
(dp2772
g66
(dp2773
g86
g87
ssg75
g2767
sg68
(lp2774
S'REMOTE_ADDR'
p2775
asbag61
(g82
g63
NtRp2776
(dp2777
g66
(dp2778
g93
g94
ssg75
g2767
sg68
(lp2779
S':'
asbag61
(g82
g63
NtRp2780
(dp2781
g66
(dp2782
sg75
g2767
sg68
(lp2783
g61
(g62
g63
NtRp2784
(dp2785
g66
(dp2786
g74
I3
ssg75
g2780
sg68
(lp2787
g229
asbasbasbag61
(g77
g63
NtRp2788
(dp2789
g66
(dp2790
sg75
g2532
sg68
(lp2791
g61
(g82
g63
NtRp2792
(dp2793
g66
(dp2794
g86
g87
ssg75
g2788
sg68
(lp2795
S'REMOTE_PORT'
p2796
asbag61
(g82
g63
NtRp2797
(dp2798
g66
(dp2799
g93
g94
ssg75
g2788
sg68
(lp2800
S':'
asbag61
(g82
g63
NtRp2801
(dp2802
g66
(dp2803
sg75
g2788
sg68
(lp2804
g61
(g62
g63
NtRp2805
(dp2806
g66
(dp2807
g74
I3
ssg75
g2801
sg68
(lp2808
g1350
asbasbasbag61
(g77
g63
NtRp2809
(dp2810
g66
(dp2811
sg75
g2532
sg68
(lp2812
g61
(g82
g63
NtRp2813
(dp2814
g66
(dp2815
g86
g87
ssg75
g2809
sg68
(lp2816
S'REQUEST_METHOD'
p2817
asbag61
(g82
g63
NtRp2818
(dp2819
g66
(dp2820
g93
g94
ssg75
g2809
sg68
(lp2821
S':'
asbag61
(g82
g63
NtRp2822
(dp2823
g66
(dp2824
sg75
g2809
sg68
(lp2825
g61
(g62
g63
NtRp2826
(dp2827
g66
(dp2828
g74
I3
ssg75
g2822
sg68
(lp2829
g1372
asbasbasbag61
(g77
g63
NtRp2830
(dp2831
g66
(dp2832
sg75
g2532
sg68
(lp2833
g61
(g82
g63
NtRp2834
(dp2835
g66
(dp2836
g86
g87
ssg75
g2830
sg68
(lp2837
S'REQUEST_URI'
p2838
asbag61
(g82
g63
NtRp2839
(dp2840
g66
(dp2841
g93
g94
ssg75
g2830
sg68
(lp2842
S':'
asbag61
(g82
g63
NtRp2843
(dp2844
g66
(dp2845
sg75
g2830
sg68
(lp2846
g61
(g62
g63
NtRp2847
(dp2848
g66
(dp2849
g74
I3
ssg75
g2843
sg68
(lp2850
g1394
asbasbasbag61
(g77
g63
NtRp2851
(dp2852
g66
(dp2853
sg75
g2532
sg68
(lp2854
g61
(g82
g63
NtRp2855
(dp2856
g66
(dp2857
g86
g87
ssg75
g2851
sg68
(lp2858
S'SCRIPT_NAME'
p2859
asbag61
(g82
g63
NtRp2860
(dp2861
g66
(dp2862
g93
g94
ssg75
g2851
sg68
(lp2863
S':'
asbag61
(g82
g63
NtRp2864
(dp2865
g66
(dp2866
sg75
g2851
sg68
(lp2867
g61
(g62
g63
NtRp2868
(dp2869
g66
(dp2870
g74
I3
ssg75
g2864
sg68
(lp2871
S''
asbasbasbag61
(g77
g63
NtRp2872
(dp2873
g66
(dp2874
sg75
g2532
sg68
(lp2875
g61
(g82
g63
NtRp2876
(dp2877
g66
(dp2878
g86
g87
ssg75
g2872
sg68
(lp2879
S'SERVER_NAME'
p2880
asbag61
(g82
g63
NtRp2881
(dp2882
g66
(dp2883
g93
g94
ssg75
g2872
sg68
(lp2884
S':'
asbag61
(g82
g63
NtRp2885
(dp2886
g66
(dp2887
sg75
g2872
sg68
(lp2888
g61
(g62
g63
NtRp2889
(dp2890
g66
(dp2891
g74
I3
ssg75
g2885
sg68
(lp2892
g1437
asbasbasbag61
(g77
g63
NtRp2893
(dp2894
g66
(dp2895
sg75
g2532
sg68
(lp2896
g61
(g82
g63
NtRp2897
(dp2898
g66
(dp2899
g86
g87
ssg75
g2893
sg68
(lp2900
S'SERVER_PORT'
p2901
asbag61
(g82
g63
NtRp2902
(dp2903
g66
(dp2904
g93
g94
ssg75
g2893
sg68
(lp2905
S':'
asbag61
(g82
g63
NtRp2906
(dp2907
g66
(dp2908
sg75
g2893
sg68
(lp2909
g61
(g62
g63
NtRp2910
(dp2911
g66
(dp2912
g74
I3
ssg75
g2906
sg68
(lp2913
g1459
asbasbasbag61
(g77
g63
NtRp2914
(dp2915
g66
(dp2916
sg75
g2532
sg68
(lp2917
g61
(g82
g63
NtRp2918
(dp2919
g66
(dp2920
g86
g87
ssg75
g2914
sg68
(lp2921
S'SERVER_PROTOCOL'
p2922
asbag61
(g82
g63
NtRp2923
(dp2924
g66
(dp2925
g93
g94
ssg75
g2914
sg68
(lp2926
S':'
asbag61
(g82
g63
NtRp2927
(dp2928
g66
(dp2929
sg75
g2914
sg68
(lp2930
g61
(g62
g63
NtRp2931
(dp2932
g66
(dp2933
g74
I3
ssg75
g2927
sg68
(lp2934
g1481
asbasbasbag61
(g77
g63
NtRp2935
(dp2936
g66
(dp2937
sg75
g2532
sg68
(lp2938
g61
(g82
g63
NtRp2939
(dp2940
g66
(dp2941
g86
g87
ssg75
g2935
sg68
(lp2942
S'SERVER_SOFTWARE'
p2943
asbag61
(g82
g63
NtRp2944
(dp2945
g66
(dp2946
g93
g94
ssg75
g2935
sg68
(lp2947
S':'
asbag61
(g82
g63
NtRp2948
(dp2949
g66
(dp2950
sg75
g2935
sg68
(lp2951
g61
(g62
g63
NtRp2952
(dp2953
g66
(dp2954
g74
I3
ssg75
g2948
sg68
(lp2955
g1503
asbasbasbag61
(g77
g63
NtRp2956
(dp2957
g66
(dp2958
sg75
g2532
sg68
(lp2959
g61
(g82
g63
NtRp2960
(dp2961
g66
(dp2962
g86
g87
ssg75
g2956
sg68
(lp2963
S'wsgi.errors'
p2964
asbag61
(g82
g63
NtRp2965
(dp2966
g66
(dp2967
g93
g94
ssg75
g2956
sg68
(lp2968
S':'
asbag61
(g82
g63
NtRp2969
(dp2970
g66
(dp2971
sg75
g2956
sg68
(lp2972
g61
(g62
g63
NtRp2973
(dp2974
g66
(dp2975
g74
I3
ssg75
g2969
sg68
(lp2976
S"<open file '<stderr>', mode 'w' at 0xb774d0d0>"
p2977
asbasbasbag61
(g77
g63
NtRp2978
(dp2979
g66
(dp2980
sg75
g2532
sg68
(lp2981
g61
(g82
g63
NtRp2982
(dp2983
g66
(dp2984
g86
g87
ssg75
g2978
sg68
(lp2985
S'wsgi.file_wrapper'
p2986
asbag61
(g82
g63
NtRp2987
(dp2988
g66
(dp2989
g93
g94
ssg75
g2978
sg68
(lp2990
S':'
asbag61
(g82
g63
NtRp2991
(dp2992
g66
(dp2993
sg75
g2978
sg68
(lp2994
g61
(g62
g63
NtRp2995
(dp2996
g66
(dp2997
g74
I3
ssg75
g2991
sg68
(lp2998
S'<class wsgiref.util.FileWrapper at 0x993786c>'
p2999
asbasbasbag61
(g77
g63
NtRp3000
(dp3001
g66
(dp3002
sg75
g2532
sg68
(lp3003
g61
(g82
g63
NtRp3004
(dp3005
g66
(dp3006
g86
g87
ssg75
g3000
sg68
(lp3007
S'wsgi.input'
p3008
asbag61
(g82
g63
NtRp3009
(dp3010
g66
(dp3011
g93
g94
ssg75
g3000
sg68
(lp3012
S':'
asbag61
(g82
g63
NtRp3013
(dp3014
g66
(dp3015
sg75
g3000
sg68
(lp3016
g61
(g62
g63
NtRp3017
(dp3018
g66
(dp3019
g74
I3
ssg75
g3013
sg68
(lp3020
S'<cStringIO.StringO object at 0x9e8f1c0>'
p3021
asbasbasbag61
(g77
g63
NtRp3022
(dp3023
g66
(dp3024
sg75
g2532
sg68
(lp3025
g61
(g82
g63
NtRp3026
(dp3027
g66
(dp3028
g86
g87
ssg75
g3022
sg68
(lp3029
S'wsgi.multiprocess'
p3030
asbag61
(g82
g63
NtRp3031
(dp3032
g66
(dp3033
g93
g94
ssg75
g3022
sg68
(lp3034
S':'
asbag61
(g82
g63
NtRp3035
(dp3036
g66
(dp3037
sg75
g3022
sg68
(lp3038
g61
(g62
g63
NtRp3039
(dp3040
g66
(dp3041
g74
I3
ssg75
g3035
sg68
(lp3042
g104
asbasbasbag61
(g77
g63
NtRp3043
(dp3044
g66
(dp3045
sg75
g2532
sg68
(lp3046
g61
(g82
g63
NtRp3047
(dp3048
g66
(dp3049
g86
g87
ssg75
g3043
sg68
(lp3050
S'wsgi.multithread'
p3051
asbag61
(g82
g63
NtRp3052
(dp3053
g66
(dp3054
g93
g94
ssg75
g3043
sg68
(lp3055
S':'
asbag61
(g82
g63
NtRp3056
(dp3057
g66
(dp3058
sg75
g3043
sg68
(lp3059
g61
(g62
g63
NtRp3060
(dp3061
g66
(dp3062
g74
I3
ssg75
g3056
sg68
(lp3063
g1742
asbasbasbag61
(g77
g63
NtRp3064
(dp3065
g66
(dp3066
sg75
g2532
sg68
(lp3067
g61
(g82
g63
NtRp3068
(dp3069
g66
(dp3070
g86
g87
ssg75
g3064
sg68
(lp3071
S'wsgi.run_once'
p3072
asbag61
(g82
g63
NtRp3073
(dp3074
g66
(dp3075
g93
g94
ssg75
g3064
sg68
(lp3076
S':'
asbag61
(g82
g63
NtRp3077
(dp3078
g66
(dp3079
sg75
g3064
sg68
(lp3080
g61
(g62
g63
NtRp3081
(dp3082
g66
(dp3083
g74
I3
ssg75
g3077
sg68
(lp3084
g104
asbasbasbag61
(g77
g63
NtRp3085
(dp3086
g66
(dp3087
sg75
g2532
sg68
(lp3088
g61
(g82
g63
NtRp3089
(dp3090
g66
(dp3091
g86
g87
ssg75
g3085
sg68
(lp3092
S'wsgi.url_scheme'
p3093
asbag61
(g82
g63
NtRp3094
(dp3095
g66
(dp3096
g93
g94
ssg75
g3085
sg68
(lp3097
S':'
asbag61
(g82
g63
NtRp3098
(dp3099
g66
(dp3100
sg75
g3085
sg68
(lp3101
g61
(g62
g63
NtRp3102
(dp3103
g66
(dp3104
g74
I3
ssg75
g3098
sg68
(lp3105
g1785
asbasbasbag61
(g77
g63
NtRp3106
(dp3107
g66
(dp3108
sg75
g2532
sg68
(lp3109
g61
(g82
g63
NtRp3110
(dp3111
g66
(dp3112
g86
g87
ssg75
g3106
sg68
(lp3113
S'wsgi.version'
p3114
asbag61
(g82
g63
NtRp3115
(dp3116
g66
(dp3117
g93
g94
ssg75
g3106
sg68
(lp3118
S':'
asbag61
(g82
g63
NtRp3119
(dp3120
g66
(dp3121
sg75
g3106
sg68
(lp3122
g61
(g62
g63
NtRp3123
(dp3124
g66
(dp3125
g74
I3
ssg75
g3119
sg68
(lp3126
S'1'
asbasbasbasbasbasbasbasbasbasbasbasbasbsS'frames'
p3127
(lp3128
(dp3129
S'file'
p3130
S'/home/perdomor/web2py/gluon/restricted.py'
p3131
sS'dump'
p3132
(dp3133
S'environment'
p3134
S"{'A': <class 'gluon.html.A'>, 'Auth': <class 'gluon.tools.Auth'>, 'B': <class 'gluon.html.B'>, 'BEAUTIFY': <class 'gluon.html.BEAUTIFY'>, 'BODY': <class 'gluon.html.BODY'>, 'BR': <class 'gluon.html.BR'>, 'BUTTON': <class 'gluon.html.BUTTON'>, 'CAT': <class 'gluon.html.CAT'>, 'CENTER': <class 'gluon.html.CENTER'>, 'CLEANUP': <class 'gluon.validators.CLEANUP'>, ...}"
p3135
sS'ccode'
p3136
S'<code object <module> at 0x9ec8338, file "/home/...lications/sicoin/controllers/default.py", line 3>'
p3137
ssS'lnum'
p3138
I209
sS'lines'
p3139
(dp3140
I204
S'    try:'
p3141
sI205
S'        if type(code) == types.CodeType:'
p3142
sI206
S'            ccode = code'
p3143
sI207
S'        else:'
p3144
sI208
S'            ccode = compile2(code,layer)'
p3145
sI209
S'        exec ccode in environment'
p3146
sI210
S'    except HTTP:'
p3147
sI211
S'        raise'
p3148
sI212
S'    except RestrictedError:'
p3149
sI213
S'        # do not encapsulate (obfuscate) the original RestrictedError'
p3150
ssS'call'
p3151
S"(code='# -*- coding: utf-8 -*-\\n### required - do no del...rn dict()\\n\\nresponse._vars=response._caller(user)\\n', environment={'A': <class 'gluon.html.A'>, 'Auth': <class 'gluon.tools.Auth'>, 'B': <class 'gluon.html.B'>, 'BEAUTIFY': <class 'gluon.html.BEAUTIFY'>, 'BODY': <class 'gluon.html.BODY'>, 'BR': <class 'gluon.html.BR'>, 'BUTTON': <class 'gluon.html.BUTTON'>, 'CAT': <class 'gluon.html.CAT'>, 'CENTER': <class 'gluon.html.CENTER'>, 'CLEANUP': <class 'gluon.validators.CLEANUP'>, ...}, layer='/home/perdomor/web2py/applications/sicoin/controllers/default.py')"
p3152
sS'func'
p3153
S'restricted'
p3154
sa(dp3155
g3130
S'/home/perdomor/web2py/applications/sicoin/controllers/default.py'
p3156
sg3132
(dp3157
sg3138
I14
sg3139
(dp3158
I3
S"T.force('es')"
p3159
sI4
S'def user(): return dict(form=auth())'
p3160
sI5
S'def download(): return response.download(request,db)'
p3161
sI6
S'def call(): return service()'
p3162
sI7
S'### end requires'
p3163
sI8
S'def index():'
p3164
sI9
S'    return dict()'
p3165
sI10
S''
sI11
S'def error():'
p3166
sI12
S'    return dict()'
p3167
ssg3151
S'()'
p3168
sg3153
S'<module>'
p3169
sa(dp3170
g3130
S'/home/perdomor/web2py/gluon/globals.py'
p3171
sg3132
(dp3172
S'self'
p3173
S'undefined'
p3174
sS'f'
S'<function user>'
p3175
ssg3138
I186
sg3139
(dp3176
I181
S'        self.menu = []             # used by the default view layout'
p3177
sI182
S'        self.files = []            # used by web2py_ajax.html'
p3178
sI183
S'        self.generic_patterns = [] # patterns to allow generic views'
p3179
sI184
S"        self.delimiters = ('{{','}}')"
p3180
sI185
S'        self._vars = None'
p3181
sI186
S'        self._caller = lambda f: f()'
p3182
sI187
S'        self._view_environment = None'
p3183
sI188
S'        self._custom_commit = None'
p3184
sI189
S'        self._custom_rollback = None'
p3185
sI190
S''
ssg3151
S'(f=<function user>)'
p3186
sg3153
S'<lambda>'
p3187
sa(dp3188
g3130
S'/home/perdomor/web2py/applications/sicoin/controllers/default.py'
p3189
sg3132
(dp3190
S'global auth'
p3191
S'<gluon.tools.Auth object>'
p3192
sS'form'
p3193
g3174
sS'global user'
p3194
S'<function user>'
p3195
sS'builtindict'
p3196
S"<type 'dict'>"
p3197
ssg3138
I4
sg3139
(dp3198
I2
S'### required - do no delete'
p3199
sI3
S"T.force('es')"
p3200
sI4
S'def user(): return dict(form=auth())'
p3201
sI5
S'def download(): return response.download(request,db)'
p3202
sI6
S'def call(): return service()'
p3203
sI7
S'### end requires'
p3204
sI8
S'def index():'
p3205
sI9
S'    return dict()'
p3206
sI10
S''
sI11
S'def error():'
p3207
ssg3151
S'()'
p3208
sg3153
S'user'
p3209
sa(dp3210
g3130
S'/home/perdomor/web2py/gluon/tools.py'
p3211
sg3132
(dp3212
S'self'
p3213
S'<gluon.tools.Auth object>'
p3214
sS'args'
p3215
S"['logout']"
p3216
sS'builtingetattr'
p3217
S'<built-in function getattr>'
p3218
ssg3138
I1194
sg3139
(dp3219
I1189
S"        if args[0] in ('login','logout','register','verify_email',"
p3220
sI1190
S"                       'retrieve_username','retrieve_password',"
p3221
sI1191
S"                       'reset_password','request_reset_password',"
p3222
sI1192
S"                       'change_password','profile','groups',"
p3223
sI1193
S"                       'impersonate','not_authorized'):"
p3224
sI1194
S'            return getattr(self,args[0])()'
p3225
sI1195
S"        elif args[0]=='cas' and not self.settings.cas_provider:"
p3226
sI1196
S"            if args(1) == self.settings.cas_actions['login']:"
p3227
sI1197
S'                return self.cas_login(version=2)'
p3228
sI1198
S"            elif args(1) == self.settings.cas_actions['validate']:"
p3229
ssg3151
S'(self=<gluon.tools.Auth object>)'
p3230
sg3153
S'__call__'
p3231
sa(dp3232
g3130
S'/home/perdomor/web2py/gluon/tools.py'
p3233
sg3132
(dp3234
S'self'
p3235
S'<gluon.tools.Auth object>'
p3236
sS'self.user'
p3237
S"<Row {'first_name': 'Leonardo', 'last_name': 'Sa...ed21dc313984a', 'registration_key': '', 'id': 3}>"
p3238
sS'self.log_event'
p3239
S'<bound method Auth.log_event of <gluon.tools.Auth object>>'
p3240
sS'log'
p3241
S"'Usuario %(id)s ha finalizado sesi\\xc3\\xb3n'"
p3242
ssg3138
I2050
sg3139
(dp3243
I2048
S'            log = self.messages.logout_log'
p3244
sI2049
S'        if self.user:'
p3245
sI2050
S'            self.log_event(log, self.user)'
p3246
sI2051
S'        if self.settings.login_form != self:'
p3247
sI2052
S'            cas = self.settings.login_form'
p3248
sI2053
S'            cas_user = cas.get_user()'
p3249
sI2054
S'            if cas_user:'
p3250
sI2045
S'        if onlogout:'
p3251
sI2046
S'            onlogout(self.user)'
p3252
sI2047
S'        if log is DEFAULT:'
p3253
ssg3151
S"(self=<gluon.tools.Auth object>, next='/sicoin/default/index', onlogout=None, log='Usuario %(id)s ha finalizado sesi\\xc3\\xb3n')"
p3254
sg3153
S'logout'
p3255
sa(dp3256
g3130
S'/home/perdomor/web2py/gluon/tools.py'
p3257
sg3132
(dp3258
S'origin'
p3259
S"'auth'"
p3260
sS'user_id'
p3261
S'3'
ssg3138
I1635
sg3139
(dp3262
I1632
S'        vars = vars or {}'
p3263
sI1633
S'        self.table_event().insert('
p3264
sI1634
S'            description=description % vars,'
p3265
sI1635
S'            origin=origin, user_id=user_id)'
p3266
sI1636
S''
sI1637
S"    def get_or_create_user(self, keys, update_fields=['email']):"
p3267
sI1638
S'        """'
p3268
sI1639
S'        Used for alternate login methods:'
p3269
sI1630
S'        else:'
p3270
sI1631
S'            user_id = None  # user unknown'
p3271
ssg3151
S"(self=<gluon.tools.Auth object>, description='Usuario %(id)s ha finalizado sesi\\xc3\\xb3n', vars=<Row {'first_name': 'Leonardo', 'last_name': 'Sa...ed21dc313984a', 'registration_key': '', 'id': 3}>, origin='auth')"
p3272
sg3153
S'log_event'
p3273
sa(dp3274
g3130
S'/home/perdomor/web2py/gluon/dal.py'
p3275
sg3132
(dp3276
S'self._listify'
p3277
S'<bound method Table._listify of <Table auth_even...ime_stamp,client_ip,user_id,origin,description)>>'
p3278
sS'fields'
p3279
S"{'client_ip': '190.169.221.43', 'description': 'Usuario 3 ha finalizado sesi\\xc3\\xb3n', 'origin': 'auth', 'time_stamp': datetime.datetime(2012, 10, 19, 11, 30, 0, 953984), 'user_id': 3}"
p3280
sS'self'
p3281
S'<Table auth_event (id,time_stamp,client_ip,user_id,origin,description)>'
p3282
sS'ret'
p3283
g3174
sS'self._db._adapter'
p3284
S'<gluon.dal.MySQLAdapter object>'
p3285
sS'self._db._adapter.insert'
p3286
S'<bound method MySQLAdapter.insert of <gluon.dal.MySQLAdapter object>>'
p3287
sS'self._db'
p3288
S'<DAL mysql://root:12345@localhost/db_sicoin>'
p3289
ssg3138
I7793
sg3139
(dp3290
I7788
S'        return self._db._adapter._insert(self,self._listify(fields))'
p3291
sI7789
S''
sI7790
S'    def insert(self, **fields):'
p3292
sI7791
S'        self._attempt_upload(fields)'
p3293
sI7792
S'        if any(f(fields) for f in self._before_insert): return 0'
p3294
sI7793
S'        ret =  self._db._adapter.insert(self,self._listify(fields))'
p3295
sI7794
S'        if ret and self._after_insert:'
p3296
sI7795
S'            fields = Row(fields)'
p3297
sI7796
S'            [f(fields,ret) for f in self._after_insert]'
p3298
sI7797
S'        return ret'
p3299
ssg3151
S"(self=<Table auth_event (id,time_stamp,client_ip,user_id,origin,description)>, **fields={'client_ip': '190.169.221.43', 'description': 'Usuario 3 ha finalizado sesi\\xc3\\xb3n', 'origin': 'auth', 'time_stamp': datetime.datetime(2012, 10, 19, 11, 30, 0, 953984), 'user_id': 3})"
p3300
sg3153
S'insert'
p3301
sa(dp3302
g3130
S'/home/perdomor/web2py/gluon/dal.py'
p3303
sg3132
(dp3304
S'e'
S"IntegrityError(1452, u'Cannot add or update a ch...EFERENCES `auth_user` (`id`) ON DELETE CASCADE)')"
p3305
ssg3138
I1142
sg3139
(dp3306
I1137
S'        try:'
p3307
sI1138
S'            self.execute(query)'
p3308
sI1139
S'        except Exception, e:'
p3309
sI1140
S'            if isinstance(e,self.integrity_error_class()):'
p3310
sI1141
S'                return None'
p3311
sI1142
S'            raise e'
p3312
sI1143
S"        if hasattr(table,'_primarykey'):"
p3313
sI1144
S'            return dict([(k[0].name, k[1]) for k in fields \\'
p3314
sI1145
S'                             if k[0].name in table._primarykey])'
p3315
sI1146
S'        id = self.lastrowid(table)'
p3316
ssg3151
S"(self=<gluon.dal.MySQLAdapter object>, table=<Table auth_event (id,time_stamp,client_ip,user_id,origin,description)>, fields=[(<gluon.dal.Field object>, 'auth'), (<gluon.dal.Field object>, datetime.datetime(2012, 10, 19, 11, 30, 0, 953984)), (<gluon.dal.Field object>, '190.169.221.43'), (<gluon.dal.Field object>, 3), (<gluon.dal.Field object>, 'Usuario 3 ha finalizado sesi\\xc3\\xb3n')])"
p3317
sg3153
g3301
sasS'pyver'
p3318
S'Python 2.7.2+: /usr/bin/python'
p3319
sS'session'
p3320
g61
(g62
g63
NtRp3321
(dp3322
g66
(dp3323
sg68
(lp3324
g61
(g70
g63
NtRp3325
(dp3326
g66
(dp3327
g74
I5
ssg75
Nsg68
(lp3328
g61
(g77
g63
NtRp3329
(dp3330
g66
(dp3331
sg75
g3325
sg68
(lp3332
g61
(g82
g63
NtRp3333
(dp3334
g66
(dp3335
g86
g87
ssg75
g3329
sg68
(lp3336
S'auth'
p3337
asbag61
(g82
g63
NtRp3338
(dp3339
g66
(dp3340
g93
g94
ssg75
g3329
sg68
(lp3341
S':'
asbag61
(g82
g63
NtRp3342
(dp3343
g66
(dp3344
sg75
g3329
sg68
(lp3345
g61
(g62
g63
NtRp3346
(dp3347
g66
(dp3348
g74
I5
ssg75
g3342
sg68
(lp3349
g61
(g70
g63
NtRp3350
(dp3351
g66
(dp3352
g74
I4
ssg75
Nsg68
(lp3353
g61
(g77
g63
NtRp3354
(dp3355
g66
(dp3356
sg75
g3350
sg68
(lp3357
g61
(g82
g63
NtRp3358
(dp3359
g66
(dp3360
g86
g87
ssg75
g3354
sg68
(lp3361
S'expiration'
p3362
asbag61
(g82
g63
NtRp3363
(dp3364
g66
(dp3365
g93
g94
ssg75
g3354
sg68
(lp3366
S':'
asbag61
(g82
g63
NtRp3367
(dp3368
g66
(dp3369
sg75
g3354
sg68
(lp3370
g61
(g62
g63
NtRp3371
(dp3372
g66
(dp3373
g74
I4
ssg75
g3367
sg68
(lp3374
S'3600'
p3375
asbasbasbag61
(g77
g63
NtRp3376
(dp3377
g66
(dp3378
sg75
g3350
sg68
(lp3379
g61
(g82
g63
NtRp3380
(dp3381
g66
(dp3382
g86
g87
ssg75
g3376
sg68
(lp3383
S'hmac_key'
p3384
asbag61
(g82
g63
NtRp3385
(dp3386
g66
(dp3387
g93
g94
ssg75
g3376
sg68
(lp3388
S':'
asbag61
(g82
g63
NtRp3389
(dp3390
g66
(dp3391
sg75
g3376
sg68
(lp3392
g61
(g62
g63
NtRp3393
(dp3394
g66
(dp3395
g74
I4
ssg75
g3389
sg68
(lp3396
S'28f49776-f1d2-41b1-8e69-b11592c2070c'
p3397
asbasbasbag61
(g77
g63
NtRp3398
(dp3399
g66
(dp3400
sg75
g3350
sg68
(lp3401
g61
(g82
g63
NtRp3402
(dp3403
g66
(dp3404
g86
g87
ssg75
g3398
sg68
(lp3405
S'last_visit'
p3406
asbag61
(g82
g63
NtRp3407
(dp3408
g66
(dp3409
g93
g94
ssg75
g3398
sg68
(lp3410
S':'
asbag61
(g82
g63
NtRp3411
(dp3412
g66
(dp3413
sg75
g3398
sg68
(lp3414
g61
(g62
g63
NtRp3415
(dp3416
g66
(dp3417
g74
I4
ssg75
g3411
sg68
(lp3418
S'datetime.datetime(2012, 10, 19, 11, 24, 26, 409638)'
p3419
asbasbasbag61
(g77
g63
NtRp3420
(dp3421
g66
(dp3422
sg75
g3350
sg68
(lp3423
g61
(g82
g63
NtRp3424
(dp3425
g66
(dp3426
g86
g87
ssg75
g3420
sg68
(lp3427
S'remember'
p3428
asbag61
(g82
g63
NtRp3429
(dp3430
g66
(dp3431
g93
g94
ssg75
g3420
sg68
(lp3432
S':'
asbag61
(g82
g63
NtRp3433
(dp3434
g66
(dp3435
sg75
g3420
sg68
(lp3436
g61
(g62
g63
NtRp3437
(dp3438
g66
(dp3439
g74
I4
ssg75
g3433
sg68
(lp3440
g104
asbasbasbag61
(g77
g63
NtRp3441
(dp3442
g66
(dp3443
sg75
g3350
sg68
(lp3444
g61
(g82
g63
NtRp3445
(dp3446
g66
(dp3447
g86
g87
ssg75
g3441
sg68
(lp3448
S'user'
p3449
asbag61
(g82
g63
NtRp3450
(dp3451
g66
(dp3452
g93
g94
ssg75
g3441
sg68
(lp3453
S':'
asbag61
(g82
g63
NtRp3454
(dp3455
g66
(dp3456
sg75
g3441
sg68
(lp3457
g61
(g62
g63
NtRp3458
(dp3459
g66
(dp3460
g74
I4
ssg75
g3454
sg68
(lp3461
g61
(g70
g63
NtRp3462
(dp3463
g66
(dp3464
g74
I3
ssg75
Nsg68
(lp3465
g61
(g77
g63
NtRp3466
(dp3467
g66
(dp3468
sg75
g3462
sg68
(lp3469
g61
(g82
g63
NtRp3470
(dp3471
g66
(dp3472
g86
g87
ssg75
g3466
sg68
(lp3473
S'departamento'
p3474
asbag61
(g82
g63
NtRp3475
(dp3476
g66
(dp3477
g93
g94
ssg75
g3466
sg68
(lp3478
S':'
asbag61
(g82
g63
NtRp3479
(dp3480
g66
(dp3481
sg75
g3466
sg68
(lp3482
g61
(g62
g63
NtRp3483
(dp3484
g66
(dp3485
g74
I3
ssg75
g3479
sg68
(lp3486
S'3'
asbasbasbag61
(g77
g63
NtRp3487
(dp3488
g66
(dp3489
sg75
g3462
sg68
(lp3490
g61
(g82
g63
NtRp3491
(dp3492
g66
(dp3493
g86
g87
ssg75
g3487
sg68
(lp3494
S'email'
p3495
asbag61
(g82
g63
NtRp3496
(dp3497
g66
(dp3498
g93
g94
ssg75
g3487
sg68
(lp3499
S':'
asbag61
(g82
g63
NtRp3500
(dp3501
g66
(dp3502
sg75
g3487
sg68
(lp3503
g61
(g62
g63
NtRp3504
(dp3505
g66
(dp3506
g74
I3
ssg75
g3500
sg68
(lp3507
S'saal@ucv.ve'
p3508
asbasbasbag61
(g77
g63
NtRp3509
(dp3510
g66
(dp3511
sg75
g3462
sg68
(lp3512
g61
(g82
g63
NtRp3513
(dp3514
g66
(dp3515
g86
g87
ssg75
g3509
sg68
(lp3516
S'first_name'
p3517
asbag61
(g82
g63
NtRp3518
(dp3519
g66
(dp3520
g93
g94
ssg75
g3509
sg68
(lp3521
S':'
asbag61
(g82
g63
NtRp3522
(dp3523
g66
(dp3524
sg75
g3509
sg68
(lp3525
g61
(g62
g63
NtRp3526
(dp3527
g66
(dp3528
g74
I3
ssg75
g3522
sg68
(lp3529
S'Leonardo'
p3530
asbasbasbag61
(g77
g63
NtRp3531
(dp3532
g66
(dp3533
sg75
g3462
sg68
(lp3534
g61
(g82
g63
NtRp3535
(dp3536
g66
(dp3537
g86
g87
ssg75
g3531
sg68
(lp3538
S'id'
p3539
asbag61
(g82
g63
NtRp3540
(dp3541
g66
(dp3542
g93
g94
ssg75
g3531
sg68
(lp3543
S':'
asbag61
(g82
g63
NtRp3544
(dp3545
g66
(dp3546
sg75
g3531
sg68
(lp3547
g61
(g62
g63
NtRp3548
(dp3549
g66
(dp3550
g74
I3
ssg75
g3544
sg68
(lp3551
S'3'
asbasbasbag61
(g77
g63
NtRp3552
(dp3553
g66
(dp3554
sg75
g3462
sg68
(lp3555
g61
(g82
g63
NtRp3556
(dp3557
g66
(dp3558
g86
g87
ssg75
g3552
sg68
(lp3559
S'last_name'
p3560
asbag61
(g82
g63
NtRp3561
(dp3562
g66
(dp3563
g93
g94
ssg75
g3552
sg68
(lp3564
S':'
asbag61
(g82
g63
NtRp3565
(dp3566
g66
(dp3567
sg75
g3552
sg68
(lp3568
g61
(g62
g63
NtRp3569
(dp3570
g66
(dp3571
g74
I3
ssg75
g3565
sg68
(lp3572
S'Saa'
p3573
asbasbasbag61
(g77
g63
NtRp3574
(dp3575
g66
(dp3576
sg75
g3462
sg68
(lp3577
g61
(g82
g63
NtRp3578
(dp3579
g66
(dp3580
g86
g87
ssg75
g3574
sg68
(lp3581
S'password'
p3582
asbag61
(g82
g63
NtRp3583
(dp3584
g66
(dp3585
g93
g94
ssg75
g3574
sg68
(lp3586
S':'
asbag61
(g82
g63
NtRp3587
(dp3588
g66
(dp3589
sg75
g3574
sg68
(lp3590
g61
(g62
g63
NtRp3591
(dp3592
g66
(dp3593
g74
I3
ssg75
g3587
sg68
(lp3594
S'pbkdf2(1000,20,sha512)$a0059acfb8617d4e$d7036992c8a0de60392f21ddc98ed21dc313984a'
p3595
asbasbasbag61
(g77
g63
NtRp3596
(dp3597
g66
(dp3598
sg75
g3462
sg68
(lp3599
g61
(g82
g63
NtRp3600
(dp3601
g66
(dp3602
g86
g87
ssg75
g3596
sg68
(lp3603
S'registration_id'
p3604
asbag61
(g82
g63
NtRp3605
(dp3606
g66
(dp3607
g93
g94
ssg75
g3596
sg68
(lp3608
S':'
asbag61
(g82
g63
NtRp3609
(dp3610
g66
(dp3611
sg75
g3596
sg68
(lp3612
g61
(g62
g63
NtRp3613
(dp3614
g66
(dp3615
g74
I3
ssg75
g3609
sg68
(lp3616
S''
asbasbasbag61
(g77
g63
NtRp3617
(dp3618
g66
(dp3619
sg75
g3462
sg68
(lp3620
g61
(g82
g63
NtRp3621
(dp3622
g66
(dp3623
g86
g87
ssg75
g3617
sg68
(lp3624
S'registration_key'
p3625
asbag61
(g82
g63
NtRp3626
(dp3627
g66
(dp3628
g93
g94
ssg75
g3617
sg68
(lp3629
S':'
asbag61
(g82
g63
NtRp3630
(dp3631
g66
(dp3632
sg75
g3617
sg68
(lp3633
g61
(g62
g63
NtRp3634
(dp3635
g66
(dp3636
g74
I3
ssg75
g3630
sg68
(lp3637
S''
asbasbasbag61
(g77
g63
NtRp3638
(dp3639
g66
(dp3640
sg75
g3462
sg68
(lp3641
g61
(g82
g63
NtRp3642
(dp3643
g66
(dp3644
g86
g87
ssg75
g3638
sg68
(lp3645
S'reset_password_key'
p3646
asbag61
(g82
g63
NtRp3647
(dp3648
g66
(dp3649
g93
g94
ssg75
g3638
sg68
(lp3650
S':'
asbag61
(g82
g63
NtRp3651
(dp3652
g66
(dp3653
sg75
g3638
sg68
(lp3654
g61
(g62
g63
NtRp3655
(dp3656
g66
(dp3657
g74
I3
ssg75
g3651
sg68
(lp3658
S''
asbasbasbasbasbasbasbag61
(g77
g63
NtRp3659
(dp3660
g66
(dp3661
sg75
g3350
sg68
(lp3662
g61
(g82
g63
NtRp3663
(dp3664
g66
(dp3665
g86
g87
ssg75
g3659
sg68
(lp3666
S'user_groups'
p3667
asbag61
(g82
g63
NtRp3668
(dp3669
g66
(dp3670
g93
g94
ssg75
g3659
sg68
(lp3671
S':'
asbag61
(g82
g63
NtRp3672
(dp3673
g66
(dp3674
sg75
g3659
sg68
(lp3675
g61
(g62
g63
NtRp3676
(dp3677
g66
(dp3678
g74
I4
ssg75
g3672
sg68
(lp3679
g61
(g70
g63
NtRp3680
(dp3681
g66
(dp3682
g74
I3
ssg75
Nsg68
(lp3683
g61
(g77
g63
NtRp3684
(dp3685
g66
(dp3686
sg75
g3680
sg68
(lp3687
g61
(g82
g63
NtRp3688
(dp3689
g66
(dp3690
g86
g87
ssg75
g3684
sg68
(lp3691
S'4'
asbag61
(g82
g63
NtRp3692
(dp3693
g66
(dp3694
g93
g94
ssg75
g3684
sg68
(lp3695
S':'
asbag61
(g82
g63
NtRp3696
(dp3697
g66
(dp3698
sg75
g3684
sg68
(lp3699
g61
(g62
g63
NtRp3700
(dp3701
g66
(dp3702
g74
I3
ssg75
g3696
sg68
(lp3703
S'recepcionista'
p3704
asbasbasbag61
(g77
g63
NtRp3705
(dp3706
g66
(dp3707
sg75
g3680
sg68
(lp3708
g61
(g82
g63
NtRp3709
(dp3710
g66
(dp3711
g86
g87
ssg75
g3705
sg68
(lp3712
S'7'
asbag61
(g82
g63
NtRp3713
(dp3714
g66
(dp3715
g93
g94
ssg75
g3705
sg68
(lp3716
S':'
asbag61
(g82
g63
NtRp3717
(dp3718
g66
(dp3719
sg75
g3705
sg68
(lp3720
g61
(g62
g63
NtRp3721
(dp3722
g66
(dp3723
g74
I3
ssg75
g3717
sg68
(lp3724
S'user_3'
p3725
asbasbasbasbasbasbasbasbasbasbasbag61
(g77
g63
NtRp3726
(dp3727
g66
(dp3728
sg75
g3325
sg68
(lp3729
g61
(g82
g63
NtRp3730
(dp3731
g66
(dp3732
g86
g87
ssg75
g3726
sg68
(lp3733
S'flash'
p3734
asbag61
(g82
g63
NtRp3735
(dp3736
g66
(dp3737
g93
g94
ssg75
g3726
sg68
(lp3738
S':'
asbag61
(g82
g63
NtRp3739
(dp3740
g66
(dp3741
sg75
g3726
sg68
(lp3742
g61
(g62
g63
NtRp3743
(dp3744
g66
(dp3745
g74
I5
ssg75
g3739
sg68
(lp3746
S'None'
p3747
asbasbasbasbasbsS'etype'
p3748
S"<class 'gluon.contrib.pymysql.err.IntegrityError'>"
p3749
sS'date'
p3750
S'Fri Oct 19 11:30:01 2012'
p3751
sS'response'
p3752
g61
(g62
g63
NtRp3753
(dp3754
g66
(dp3755
sg68
(lp3756
g61
(g70
g63
NtRp3757
(dp3758
g66
(dp3759
g74
I5
ssg75
Nsg68
(lp3760
g61
(g77
g63
NtRp3761
(dp3762
g66
(dp3763
sg75
g3757
sg68
(lp3764
g61
(g82
g63
NtRp3765
(dp3766
g66
(dp3767
g86
g87
ssg75
g3761
sg68
(lp3768
g172
asbag61
(g82
g63
NtRp3769
(dp3770
g66
(dp3771
g93
g94
ssg75
g3761
sg68
(lp3772
S':'
asbag61
(g82
g63
NtRp3773
(dp3774
g66
(dp3775
sg75
g3761
sg68
(lp3776
g61
(g62
g63
NtRp3777
(dp3778
g66
(dp3779
g74
I5
ssg75
g3773
sg68
(lp3780
S'<cStringIO.StringO object at 0x9e8fa60>'
p3781
asbasbasbag61
(g77
g63
NtRp3782
(dp3783
g66
(dp3784
sg75
g3757
sg68
(lp3785
g61
(g82
g63
NtRp3786
(dp3787
g66
(dp3788
g86
g87
ssg75
g3782
sg68
(lp3789
g260
asbag61
(g82
g63
NtRp3790
(dp3791
g66
(dp3792
g93
g94
ssg75
g3782
sg68
(lp3793
S':'
asbag61
(g82
g63
NtRp3794
(dp3795
g66
(dp3796
sg75
g3782
sg68
(lp3797
g61
(g62
g63
NtRp3798
(dp3799
g66
(dp3800
g74
I5
ssg75
g3794
sg68
(lp3801
g61
(g70
g63
NtRp3802
(dp3803
g66
(dp3804
g74
I4
ssg75
Nsg68
(lp3805
g61
(g77
g63
NtRp3806
(dp3807
g66
(dp3808
sg75
g3802
sg68
(lp3809
g61
(g82
g63
NtRp3810
(dp3811
g66
(dp3812
g86
g87
ssg75
g3806
sg68
(lp3813
S'session_id_sicoin'
p3814
asbag61
(g82
g63
NtRp3815
(dp3816
g66
(dp3817
g93
g94
ssg75
g3806
sg68
(lp3818
S':'
asbag61
(g82
g63
NtRp3819
(dp3820
g66
(dp3821
sg75
g3806
sg68
(lp3822
g61
(g62
g63
NtRp3823
(dp3824
g66
(dp3825
g74
I4
ssg75
g3819
sg68
(lp3826
g492
ag61
(g70
g63
NtRp3827
(dp3828
g66
(dp3829
g74
I3
ssg75
Nsg68
(lp3830
g61
(g77
g63
NtRp3831
(dp3832
g66
(dp3833
sg75
g3827
sg68
(lp3834
g61
(g82
g63
NtRp3835
(dp3836
g66
(dp3837
g86
g87
ssg75
g3831
sg68
(lp3838
g311
asbag61
(g82
g63
NtRp3839
(dp3840
g66
(dp3841
g93
g94
ssg75
g3831
sg68
(lp3842
S':'
asbag61
(g82
g63
NtRp3843
(dp3844
g66
(dp3845
sg75
g3831
sg68
(lp3846
g61
(g62
g63
NtRp3847
(dp3848
g66
(dp3849
g74
I3
ssg75
g3843
sg68
(lp3850
S''
asbasbasbag61
(g77
g63
NtRp3851
(dp3852
g66
(dp3853
sg75
g3827
sg68
(lp3854
g61
(g82
g63
NtRp3855
(dp3856
g66
(dp3857
g86
g87
ssg75
g3851
sg68
(lp3858
g332
asbag61
(g82
g63
NtRp3859
(dp3860
g66
(dp3861
g93
g94
ssg75
g3851
sg68
(lp3862
S':'
asbag61
(g82
g63
NtRp3863
(dp3864
g66
(dp3865
sg75
g3851
sg68
(lp3866
g61
(g62
g63
NtRp3867
(dp3868
g66
(dp3869
g74
I3
ssg75
g3863
sg68
(lp3870
S''
asbasbasbag61
(g77
g63
NtRp3871
(dp3872
g66
(dp3873
sg75
g3827
sg68
(lp3874
g61
(g82
g63
NtRp3875
(dp3876
g66
(dp3877
g86
g87
ssg75
g3871
sg68
(lp3878
g353
asbag61
(g82
g63
NtRp3879
(dp3880
g66
(dp3881
g93
g94
ssg75
g3871
sg68
(lp3882
S':'
asbag61
(g82
g63
NtRp3883
(dp3884
g66
(dp3885
sg75
g3871
sg68
(lp3886
g61
(g62
g63
NtRp3887
(dp3888
g66
(dp3889
g74
I3
ssg75
g3883
sg68
(lp3890
S''
asbasbasbag61
(g77
g63
NtRp3891
(dp3892
g66
(dp3893
sg75
g3827
sg68
(lp3894
g61
(g82
g63
NtRp3895
(dp3896
g66
(dp3897
g86
g87
ssg75
g3891
sg68
(lp3898
g374
asbag61
(g82
g63
NtRp3899
(dp3900
g66
(dp3901
g93
g94
ssg75
g3891
sg68
(lp3902
S':'
asbag61
(g82
g63
NtRp3903
(dp3904
g66
(dp3905
sg75
g3891
sg68
(lp3906
g61
(g62
g63
NtRp3907
(dp3908
g66
(dp3909
g74
I3
ssg75
g3903
sg68
(lp3910
S''
asbasbasbag61
(g77
g63
NtRp3911
(dp3912
g66
(dp3913
sg75
g3827
sg68
(lp3914
g61
(g82
g63
NtRp3915
(dp3916
g66
(dp3917
g86
g87
ssg75
g3911
sg68
(lp3918
g395
asbag61
(g82
g63
NtRp3919
(dp3920
g66
(dp3921
g93
g94
ssg75
g3911
sg68
(lp3922
S':'
asbag61
(g82
g63
NtRp3923
(dp3924
g66
(dp3925
sg75
g3911
sg68
(lp3926
g61
(g62
g63
NtRp3927
(dp3928
g66
(dp3929
g74
I3
ssg75
g3923
sg68
(lp3930
S''
asbasbasbag61
(g77
g63
NtRp3931
(dp3932
g66
(dp3933
sg75
g3827
sg68
(lp3934
g61
(g82
g63
NtRp3935
(dp3936
g66
(dp3937
g86
g87
ssg75
g3931
sg68
(lp3938
g416
asbag61
(g82
g63
NtRp3939
(dp3940
g66
(dp3941
g93
g94
ssg75
g3931
sg68
(lp3942
S':'
asbag61
(g82
g63
NtRp3943
(dp3944
g66
(dp3945
sg75
g3931
sg68
(lp3946
g61
(g62
g63
NtRp3947
(dp3948
g66
(dp3949
g74
I3
ssg75
g3943
sg68
(lp3950
S'/'
asbasbasbag61
(g77
g63
NtRp3951
(dp3952
g66
(dp3953
sg75
g3827
sg68
(lp3954
g61
(g82
g63
NtRp3955
(dp3956
g66
(dp3957
g86
g87
ssg75
g3951
sg68
(lp3958
g437
asbag61
(g82
g63
NtRp3959
(dp3960
g66
(dp3961
g93
g94
ssg75
g3951
sg68
(lp3962
S':'
asbag61
(g82
g63
NtRp3963
(dp3964
g66
(dp3965
sg75
g3951
sg68
(lp3966
g61
(g62
g63
NtRp3967
(dp3968
g66
(dp3969
g74
I3
ssg75
g3963
sg68
(lp3970
S''
asbasbasbag61
(g77
g63
NtRp3971
(dp3972
g66
(dp3973
sg75
g3827
sg68
(lp3974
g61
(g82
g63
NtRp3975
(dp3976
g66
(dp3977
g86
g87
ssg75
g3971
sg68
(lp3978
g458
asbag61
(g82
g63
NtRp3979
(dp3980
g66
(dp3981
g93
g94
ssg75
g3971
sg68
(lp3982
S':'
asbag61
(g82
g63
NtRp3983
(dp3984
g66
(dp3985
sg75
g3971
sg68
(lp3986
g61
(g62
g63
NtRp3987
(dp3988
g66
(dp3989
g74
I3
ssg75
g3983
sg68
(lp3990
S''
asbasbasbasbasbasbasbasbasbasbasbag61
(g77
g63
NtRp3991
(dp3992
g66
(dp3993
sg75
g3757
sg68
(lp3994
g61
(g82
g63
NtRp3995
(dp3996
g66
(dp3997
g86
g87
ssg75
g3991
sg68
(lp3998
S'delimiters'
p3999
asbag61
(g82
g63
NtRp4000
(dp4001
g66
(dp4002
g93
g94
ssg75
g3991
sg68
(lp4003
S':'
asbag61
(g82
g63
NtRp4004
(dp4005
g66
(dp4006
sg75
g3991
sg68
(lp4007
g61
(g62
g63
NtRp4008
(dp4009
g66
(dp4010
g74
I5
ssg75
g4004
sg68
(lp4011
g61
(g70
g63
NtRp4012
(dp4013
g66
(dp4014
g74
I4
ssg75
Nsg68
(lp4015
g61
(g77
g63
NtRp4016
(dp4017
g66
(dp4018
sg75
g4012
sg68
(lp4019
g61
(g82
g63
NtRp4020
(dp4021
g66
(dp4022
sg75
g4016
sg68
(lp4023
g61
(g62
g63
NtRp4024
(dp4025
g66
(dp4026
g74
I4
ssg75
g4020
sg68
(lp4027
S'{{'
p4028
asbasbasbag61
(g77
g63
NtRp4029
(dp4030
g66
(dp4031
sg75
g4012
sg68
(lp4032
g61
(g82
g63
NtRp4033
(dp4034
g66
(dp4035
sg75
g4029
sg68
(lp4036
g61
(g62
g63
NtRp4037
(dp4038
g66
(dp4039
g74
I4
ssg75
g4033
sg68
(lp4040
S'}}'
p4041
asbasbasbasbasbasbasbag61
(g77
g63
NtRp4042
(dp4043
g66
(dp4044
sg75
g3757
sg68
(lp4045
g61
(g82
g63
NtRp4046
(dp4047
g66
(dp4048
g86
g87
ssg75
g4042
sg68
(lp4049
S'files'
p4050
asbag61
(g82
g63
NtRp4051
(dp4052
g66
(dp4053
g93
g94
ssg75
g4042
sg68
(lp4054
S':'
asbag61
(g82
g63
NtRp4055
(dp4056
g66
(dp4057
sg75
g4042
sg68
(lp4058
g61
(g62
g63
NtRp4059
(dp4060
g66
(dp4061
g74
I5
ssg75
g4055
sg68
(lp4062
g61
(g70
g63
NtRp4063
(dp4064
g66
(dp4065
g74
I4
ssg75
Nsg68
(lp4066
sbasbasbasbag61
(g77
g63
NtRp4067
(dp4068
g66
(dp4069
sg75
g3757
sg68
(lp4070
g61
(g82
g63
NtRp4071
(dp4072
g66
(dp4073
g86
g87
ssg75
g4067
sg68
(lp4074
S'flash'
p4075
asbag61
(g82
g63
NtRp4076
(dp4077
g66
(dp4078
g93
g94
ssg75
g4067
sg68
(lp4079
S':'
asbag61
(g82
g63
NtRp4080
(dp4081
g66
(dp4082
sg75
g4067
sg68
(lp4083
g61
(g62
g63
NtRp4084
(dp4085
g66
(dp4086
g74
I5
ssg75
g4080
sg68
(lp4087
S''
asbasbasbag61
(g77
g63
NtRp4088
(dp4089
g66
(dp4090
sg75
g3757
sg68
(lp4091
g61
(g82
g63
NtRp4092
(dp4093
g66
(dp4094
g86
g87
ssg75
g4088
sg68
(lp4095
S'generic_patterns'
p4096
asbag61
(g82
g63
NtRp4097
(dp4098
g66
(dp4099
g93
g94
ssg75
g4088
sg68
(lp4100
S':'
asbag61
(g82
g63
NtRp4101
(dp4102
g66
(dp4103
sg75
g4088
sg68
(lp4104
g61
(g62
g63
NtRp4105
(dp4106
g66
(dp4107
g74
I5
ssg75
g4101
sg68
(lp4108
g61
(g70
g63
NtRp4109
(dp4110
g66
(dp4111
g74
I4
ssg75
Nsg68
(lp4112
g61
(g77
g63
NtRp4113
(dp4114
g66
(dp4115
sg75
g4109
sg68
(lp4116
g61
(g82
g63
NtRp4117
(dp4118
g66
(dp4119
sg75
g4113
sg68
(lp4120
g61
(g62
g63
NtRp4121
(dp4122
g66
(dp4123
g74
I4
ssg75
g4117
sg68
(lp4124
S'*'
asbasbasbasbasbasbasbag61
(g77
g63
NtRp4125
(dp4126
g66
(dp4127
sg75
g3757
sg68
(lp4128
g61
(g82
g63
NtRp4129
(dp4130
g66
(dp4131
g86
g87
ssg75
g4125
sg68
(lp4132
S'headers'
p4133
asbag61
(g82
g63
NtRp4134
(dp4135
g66
(dp4136
g93
g94
ssg75
g4125
sg68
(lp4137
S':'
asbag61
(g82
g63
NtRp4138
(dp4139
g66
(dp4140
sg75
g4125
sg68
(lp4141
g61
(g62
g63
NtRp4142
(dp4143
g66
(dp4144
g74
I5
ssg75
g4138
sg68
(lp4145
g61
(g70
g63
NtRp4146
(dp4147
g66
(dp4148
g74
I4
ssg75
Nsg68
(lp4149
g61
(g77
g63
NtRp4150
(dp4151
g66
(dp4152
sg75
g4146
sg68
(lp4153
g61
(g82
g63
NtRp4154
(dp4155
g66
(dp4156
g86
g87
ssg75
g4150
sg68
(lp4157
S'X-Powered-By'
p4158
asbag61
(g82
g63
NtRp4159
(dp4160
g66
(dp4161
g93
g94
ssg75
g4150
sg68
(lp4162
S':'
asbag61
(g82
g63
NtRp4163
(dp4164
g66
(dp4165
sg75
g4150
sg68
(lp4166
g61
(g62
g63
NtRp4167
(dp4168
g66
(dp4169
g74
I4
ssg75
g4163
sg68
(lp4170
S'web2py'
p4171
asbasbasbasbasbasbasbag61
(g77
g63
NtRp4172
(dp4173
g66
(dp4174
sg75
g3757
sg68
(lp4175
g61
(g82
g63
NtRp4176
(dp4177
g66
(dp4178
g86
g87
ssg75
g4172
sg68
(lp4179
S'menu'
p4180
asbag61
(g82
g63
NtRp4181
(dp4182
g66
(dp4183
g93
g94
ssg75
g4172
sg68
(lp4184
S':'
asbag61
(g82
g63
NtRp4185
(dp4186
g66
(dp4187
sg75
g4172
sg68
(lp4188
g61
(g62
g63
NtRp4189
(dp4190
g66
(dp4191
g74
I5
ssg75
g4185
sg68
(lp4192
g61
(g70
g63
NtRp4193
(dp4194
g66
(dp4195
g74
I4
ssg75
Nsg68
(lp4196
g61
(g77
g63
NtRp4197
(dp4198
g66
(dp4199
sg75
g4193
sg68
(lp4200
g61
(g82
g63
NtRp4201
(dp4202
g66
(dp4203
sg75
g4197
sg68
(lp4204
g61
(g62
g63
NtRp4205
(dp4206
g66
(dp4207
g74
I4
ssg75
g4201
sg68
(lp4208
g61
(g70
g63
NtRp4209
(dp4210
g66
(dp4211
g74
I3
ssg75
Nsg68
(lp4212
g61
(g77
g63
NtRp4213
(dp4214
g66
(dp4215
sg75
g4209
sg68
(lp4216
g61
(g82
g63
NtRp4217
(dp4218
g66
(dp4219
sg75
g4213
sg68
(lp4220
g61
(g62
g63
NtRp4221
(dp4222
g66
(dp4223
g74
I3
ssg75
g4217
sg68
(lp4224
cgluon.languages
lazyT_unpickle
p4225
(S's\x06\x00\x00\x00Indice'
tRp4226
asbasbasbag61
(g77
g63
NtRp4227
(dp4228
g66
(dp4229
sg75
g4209
sg68
(lp4230
g61
(g82
g63
NtRp4231
(dp4232
g66
(dp4233
sg75
g4227
sg68
(lp4234
g61
(g62
g63
NtRp4235
(dp4236
g66
(dp4237
g74
I3
ssg75
g4231
sg68
(lp4238
g104
asbasbasbag61
(g77
g63
NtRp4239
(dp4240
g66
(dp4241
sg75
g4209
sg68
(lp4242
g61
(g82
g63
NtRp4243
(dp4244
g66
(dp4245
sg75
g4239
sg68
(lp4246
g61
(g62
g63
NtRp4247
(dp4248
g66
(dp4249
g74
I3
ssg75
g4243
sg68
(lp4250
S'/sicoin/default/index'
p4251
asbasbasbag61
(g77
g63
NtRp4252
(dp4253
g66
(dp4254
sg75
g4209
sg68
(lp4255
g61
(g82
g63
NtRp4256
(dp4257
g66
(dp4258
sg75
g4252
sg68
(lp4259
g61
(g62
g63
NtRp4260
(dp4261
g66
(dp4262
g74
I3
ssg75
g4256
sg68
(lp4263
g61
(g70
g63
NtRp4264
(dp4265
g66
(dp4266
g74
I2
ssg75
Nsg68
(lp4267
sbasbasbasbasbasbasbasbasbasbasbasbag61
(g77
g63
NtRp4268
(dp4269
g66
(dp4270
sg75
g3757
sg68
(lp4271
g61
(g82
g63
NtRp4272
(dp4273
g66
(dp4274
g86
g87
ssg75
g4268
sg68
(lp4275
S'meta'
p4276
asbag61
(g82
g63
NtRp4277
(dp4278
g66
(dp4279
g93
g94
ssg75
g4268
sg68
(lp4280
S':'
asbag61
(g82
g63
NtRp4281
(dp4282
g66
(dp4283
sg75
g4268
sg68
(lp4284
g61
(g62
g63
NtRp4285
(dp4286
g66
(dp4287
g74
I5
ssg75
g4281
sg68
(lp4288
g61
(g70
g63
NtRp4289
(dp4290
g66
(dp4291
g74
I4
ssg75
Nsg68
(lp4292
g61
(g77
g63
NtRp4293
(dp4294
g66
(dp4295
sg75
g4289
sg68
(lp4296
g61
(g82
g63
NtRp4297
(dp4298
g66
(dp4299
g86
g87
ssg75
g4293
sg68
(lp4300
S'author'
p4301
asbag61
(g82
g63
NtRp4302
(dp4303
g66
(dp4304
g93
g94
ssg75
g4293
sg68
(lp4305
S':'
asbag61
(g82
g63
NtRp4306
(dp4307
g66
(dp4308
sg75
g4293
sg68
(lp4309
g61
(g62
g63
NtRp4310
(dp4311
g66
(dp4312
g74
I4
ssg75
g4306
sg68
(lp4313
S'TIC - FIPU <perdomor@ucv.ve>'
p4314
asbasbasbag61
(g77
g63
NtRp4315
(dp4316
g66
(dp4317
sg75
g4289
sg68
(lp4318
g61
(g82
g63
NtRp4319
(dp4320
g66
(dp4321
g86
g87
ssg75
g4315
sg68
(lp4322
S'description'
p4323
asbag61
(g82
g63
NtRp4324
(dp4325
g66
(dp4326
g93
g94
ssg75
g4315
sg68
(lp4327
S':'
asbag61
(g82
g63
NtRp4328
(dp4329
g66
(dp4330
sg75
g4315
sg68
(lp4331
g61
(g62
g63
NtRp4332
(dp4333
g66
(dp4334
g74
I4
ssg75
g4328
sg68
(lp4335
S''
asbasbasbag61
(g77
g63
NtRp4336
(dp4337
g66
(dp4338
sg75
g4289
sg68
(lp4339
g61
(g82
g63
NtRp4340
(dp4341
g66
(dp4342
g86
g87
ssg75
g4336
sg68
(lp4343
S'keywords'
p4344
asbag61
(g82
g63
NtRp4345
(dp4346
g66
(dp4347
g93
g94
ssg75
g4336
sg68
(lp4348
S':'
asbag61
(g82
g63
NtRp4349
(dp4350
g66
(dp4351
sg75
g4336
sg68
(lp4352
g61
(g62
g63
NtRp4353
(dp4354
g66
(dp4355
g74
I4
ssg75
g4349
sg68
(lp4356
S''
asbasbasbasbasbasbasbag61
(g77
g63
NtRp4357
(dp4358
g66
(dp4359
sg75
g3757
sg68
(lp4360
g61
(g82
g63
NtRp4361
(dp4362
g66
(dp4363
g86
g87
ssg75
g4357
sg68
(lp4364
S'models_to_run'
p4365
asbag61
(g82
g63
NtRp4366
(dp4367
g66
(dp4368
g93
g94
ssg75
g4357
sg68
(lp4369
S':'
asbag61
(g82
g63
NtRp4370
(dp4371
g66
(dp4372
sg75
g4357
sg68
(lp4373
g61
(g62
g63
NtRp4374
(dp4375
g66
(dp4376
g74
I5
ssg75
g4370
sg68
(lp4377
g61
(g70
g63
NtRp4378
(dp4379
g66
(dp4380
g74
I4
ssg75
Nsg68
(lp4381
g61
(g77
g63
NtRp4382
(dp4383
g66
(dp4384
sg75
g4378
sg68
(lp4385
g61
(g82
g63
NtRp4386
(dp4387
g66
(dp4388
sg75
g4382
sg68
(lp4389
g61
(g62
g63
NtRp4390
(dp4391
g66
(dp4392
g74
I4
ssg75
g4386
sg68
(lp4393
S'^\\w+\\.py$'
p4394
asbasbasbag61
(g77
g63
NtRp4395
(dp4396
g66
(dp4397
sg75
g4378
sg68
(lp4398
g61
(g82
g63
NtRp4399
(dp4400
g66
(dp4401
sg75
g4395
sg68
(lp4402
g61
(g62
g63
NtRp4403
(dp4404
g66
(dp4405
g74
I4
ssg75
g4399
sg68
(lp4406
S'^default/\\w+\\.py$'
p4407
asbasbasbag61
(g77
g63
NtRp4408
(dp4409
g66
(dp4410
sg75
g4378
sg68
(lp4411
g61
(g82
g63
NtRp4412
(dp4413
g66
(dp4414
sg75
g4408
sg68
(lp4415
g61
(g62
g63
NtRp4416
(dp4417
g66
(dp4418
g74
I4
ssg75
g4412
sg68
(lp4419
S'^default/user/\\w+\\.py$'
p4420
asbasbasbasbasbasbasbag61
(g77
g63
NtRp4421
(dp4422
g66
(dp4423
sg75
g3757
sg68
(lp4424
g61
(g82
g63
NtRp4425
(dp4426
g66
(dp4427
g86
g87
ssg75
g4421
sg68
(lp4428
S'postprocessing'
p4429
asbag61
(g82
g63
NtRp4430
(dp4431
g66
(dp4432
g93
g94
ssg75
g4421
sg68
(lp4433
S':'
asbag61
(g82
g63
NtRp4434
(dp4435
g66
(dp4436
sg75
g4421
sg68
(lp4437
g61
(g62
g63
NtRp4438
(dp4439
g66
(dp4440
g74
I5
ssg75
g4434
sg68
(lp4441
g61
(g70
g63
NtRp4442
(dp4443
g66
(dp4444
g74
I4
ssg75
Nsg68
(lp4445
sbasbasbasbag61
(g77
g63
NtRp4446
(dp4447
g66
(dp4448
sg75
g3757
sg68
(lp4449
g61
(g82
g63
NtRp4450
(dp4451
g66
(dp4452
g86
g87
ssg75
g4446
sg68
(lp4453
S'session_file'
p4454
asbag61
(g82
g63
NtRp4455
(dp4456
g66
(dp4457
g93
g94
ssg75
g4446
sg68
(lp4458
S':'
asbag61
(g82
g63
NtRp4459
(dp4460
g66
(dp4461
sg75
g4446
sg68
(lp4462
g61
(g62
g63
NtRp4463
(dp4464
g66
(dp4465
g74
I5
ssg75
g4459
sg68
(lp4466
S"<open file '/home/perdomor/web2py/applications/sicoin/sessions/190.169.221.43-c3ccfe27-2883-428a-acb1-f6366cc00e73', mode 'rb+' at 0x9e16180>"
p4467
asbasbasbag61
(g77
g63
NtRp4468
(dp4469
g66
(dp4470
sg75
g3757
sg68
(lp4471
g61
(g82
g63
NtRp4472
(dp4473
g66
(dp4474
g86
g87
ssg75
g4468
sg68
(lp4475
S'session_filename'
p4476
asbag61
(g82
g63
NtRp4477
(dp4478
g66
(dp4479
g93
g94
ssg75
g4468
sg68
(lp4480
S':'
asbag61
(g82
g63
NtRp4481
(dp4482
g66
(dp4483
sg75
g4468
sg68
(lp4484
g61
(g62
g63
NtRp4485
(dp4486
g66
(dp4487
g74
I5
ssg75
g4481
sg68
(lp4488
S'/home/perdomor/web2py/applications/sicoin/sessions/190.169.221.43-c3ccfe27-2883-428a-acb1-f6366cc00e73'
p4489
asbasbasbag61
(g77
g63
NtRp4490
(dp4491
g66
(dp4492
sg75
g3757
sg68
(lp4493
g61
(g82
g63
NtRp4494
(dp4495
g66
(dp4496
g86
g87
ssg75
g4490
sg68
(lp4497
S'session_id'
p4498
asbag61
(g82
g63
NtRp4499
(dp4500
g66
(dp4501
g93
g94
ssg75
g4490
sg68
(lp4502
S':'
asbag61
(g82
g63
NtRp4503
(dp4504
g66
(dp4505
sg75
g4490
sg68
(lp4506
g61
(g62
g63
NtRp4507
(dp4508
g66
(dp4509
g74
I5
ssg75
g4503
sg68
(lp4510
g492
asbasbasbag61
(g77
g63
NtRp4511
(dp4512
g66
(dp4513
sg75
g3757
sg68
(lp4514
g61
(g82
g63
NtRp4515
(dp4516
g66
(dp4517
g86
g87
ssg75
g4511
sg68
(lp4518
S'session_id_name'
p4519
asbag61
(g82
g63
NtRp4520
(dp4521
g66
(dp4522
g93
g94
ssg75
g4511
sg68
(lp4523
S':'
asbag61
(g82
g63
NtRp4524
(dp4525
g66
(dp4526
sg75
g4511
sg68
(lp4527
g61
(g62
g63
NtRp4528
(dp4529
g66
(dp4530
g74
I5
ssg75
g4524
sg68
(lp4531
g3814
asbasbasbag61
(g77
g63
NtRp4532
(dp4533
g66
(dp4534
sg75
g3757
sg68
(lp4535
g61
(g82
g63
NtRp4536
(dp4537
g66
(dp4538
g86
g87
ssg75
g4532
sg68
(lp4539
S'session_locked'
p4540
asbag61
(g82
g63
NtRp4541
(dp4542
g66
(dp4543
g93
g94
ssg75
g4532
sg68
(lp4544
S':'
asbag61
(g82
g63
NtRp4545
(dp4546
g66
(dp4547
sg75
g4532
sg68
(lp4548
g61
(g62
g63
NtRp4549
(dp4550
g66
(dp4551
g74
I5
ssg75
g4545
sg68
(lp4552
g1742
asbasbasbag61
(g77
g63
NtRp4553
(dp4554
g66
(dp4555
sg75
g3757
sg68
(lp4556
g61
(g82
g63
NtRp4557
(dp4558
g66
(dp4559
g86
g87
ssg75
g4553
sg68
(lp4560
S'session_new'
p4561
asbag61
(g82
g63
NtRp4562
(dp4563
g66
(dp4564
g93
g94
ssg75
g4553
sg68
(lp4565
S':'
asbag61
(g82
g63
NtRp4566
(dp4567
g66
(dp4568
sg75
g4553
sg68
(lp4569
g61
(g62
g63
NtRp4570
(dp4571
g66
(dp4572
g74
I5
ssg75
g4566
sg68
(lp4573
g104
asbasbasbag61
(g77
g63
NtRp4574
(dp4575
g66
(dp4576
sg75
g3757
sg68
(lp4577
g61
(g82
g63
NtRp4578
(dp4579
g66
(dp4580
g86
g87
ssg75
g4574
sg68
(lp4581
S'status'
p4582
asbag61
(g82
g63
NtRp4583
(dp4584
g66
(dp4585
g93
g94
ssg75
g4574
sg68
(lp4586
S':'
asbag61
(g82
g63
NtRp4587
(dp4588
g66
(dp4589
sg75
g4574
sg68
(lp4590
g61
(g62
g63
NtRp4591
(dp4592
g66
(dp4593
g74
I5
ssg75
g4587
sg68
(lp4594
S'200'
p4595
asbasbasbag61
(g77
g63
NtRp4596
(dp4597
g66
(dp4598
sg75
g3757
sg68
(lp4599
g61
(g82
g63
NtRp4600
(dp4601
g66
(dp4602
g86
g87
ssg75
g4596
sg68
(lp4603
S'subtitle'
p4604
asbag61
(g82
g63
NtRp4605
(dp4606
g66
(dp4607
g93
g94
ssg75
g4596
sg68
(lp4608
S':'
asbag61
(g82
g63
NtRp4609
(dp4610
g66
(dp4611
sg75
g4596
sg68
(lp4612
g61
(g62
g63
NtRp4613
(dp4614
g66
(dp4615
g74
I5
ssg75
g4609
sg68
(lp4616
S'Sistema Integrado de Correspondencia Interna'
p4617
asbasbasbag61
(g77
g63
NtRp4618
(dp4619
g66
(dp4620
sg75
g3757
sg68
(lp4621
g61
(g82
g63
NtRp4622
(dp4623
g66
(dp4624
g86
g87
ssg75
g4618
sg68
(lp4625
S'title'
p4626
asbag61
(g82
g63
NtRp4627
(dp4628
g66
(dp4629
g93
g94
ssg75
g4618
sg68
(lp4630
S':'
asbag61
(g82
g63
NtRp4631
(dp4632
g66
(dp4633
sg75
g4618
sg68
(lp4634
g61
(g62
g63
NtRp4635
(dp4636
g66
(dp4637
g74
I5
ssg75
g4631
sg68
(lp4638
S'SiCoIn'
p4639
asbasbasbag61
(g77
g63
NtRp4640
(dp4641
g66
(dp4642
sg75
g3757
sg68
(lp4643
g61
(g82
g63
NtRp4644
(dp4645
g66
(dp4646
g86
g87
ssg75
g4640
sg68
(lp4647
S'view'
p4648
asbag61
(g82
g63
NtRp4649
(dp4650
g66
(dp4651
g93
g94
ssg75
g4640
sg68
(lp4652
S':'
asbag61
(g82
g63
NtRp4653
(dp4654
g66
(dp4655
sg75
g4640
sg68
(lp4656
g61
(g62
g63
NtRp4657
(dp4658
g66
(dp4659
g74
I5
ssg75
g4653
sg68
(lp4660
S'default/user.html'
p4661
asbasbasbasbasbsS'locals'
p4662
(dp4663
S'query'
p4664
S'"INSERT INTO auth_event(origin,time_stamp,client_...169.221.43\',3,\'Usuario 3 ha finalizado sesi\\xc3\\xb3n\');"'
p4665
sS'self'
p4666
S'<gluon.dal.MySQLAdapter object>'
p4667
sS'e'
S"IntegrityError(1452, u'Cannot add or update a ch...EFERENCES `auth_user` (`id`) ON DELETE CASCADE)')"
p4668
sS'fields'
p4669
S"[(<gluon.dal.Field object>, 'auth'), (<gluon.dal.Field object>, datetime.datetime(2012, 10, 19, 11, 30, 0, 953984)), (<gluon.dal.Field object>, '190.169.221.43'), (<gluon.dal.Field object>, 3), (<gluon.dal.Field object>, 'Usuario 3 ha finalizado sesi\\xc3\\xb3n')]"
p4670
sS'table'
p4671
S'<Table auth_event (id,time_stamp,client_ip,user_id,origin,description)>'
p4672
sssS'traceback'
p4673
S'Traceback (most recent call last):\n  File "/home/perdomor/web2py/gluon/restricted.py", line 209, in restricted\n    exec ccode in environment\n  File "/home/perdomor/web2py/applications/sicoin/controllers/default.py", line 14, in <module>\n  File "/home/perdomor/web2py/gluon/globals.py", line 186, in <lambda>\n    self._caller = lambda f: f()\n  File "/home/perdomor/web2py/applications/sicoin/controllers/default.py", line 4, in user\n    def user(): return dict(form=auth())\n  File "/home/perdomor/web2py/gluon/tools.py", line 1194, in __call__\n    return getattr(self,args[0])()\n  File "/home/perdomor/web2py/gluon/tools.py", line 2050, in logout\n    self.log_event(log, self.user)\n  File "/home/perdomor/web2py/gluon/tools.py", line 1635, in log_event\n    origin=origin, user_id=user_id)\n  File "/home/perdomor/web2py/gluon/dal.py", line 7793, in insert\n    ret =  self._db._adapter.insert(self,self._listify(fields))\n  File "/home/perdomor/web2py/gluon/dal.py", line 1142, in insert\n    raise e\nIntegrityError: (1452, u\'Cannot add or update a child row: a foreign key constraint fails (`db_sicoin`.`auth_event`, CONSTRAINT `auth_event_ibfk_1` FOREIGN KEY (`user_id`) REFERENCES `auth_user` (`id`) ON DELETE CASCADE)\')\n'
p4674
s.