(dp1
S'output'
p2
S"<class 'gluon.contrib.pymysql.err.IntegrityError'> (1452, u'Cannot add or update a child row: a foreign key constraint fails (`db_sicoin`.`auth_event`, CONSTRAINT `auth_event_ibfk_1` FOREIGN KEY (`user_id`) REFERENCES `auth_user` (`id`) ON DELETE CASCADE)')"
p3
sS'layer'
p4
S'/home/perdomor/web2py/applications/sicoin/controllers/default.py'
p5
sS'code'
p6
S"# -*- coding: utf-8 -*-\n### required - do no delete\nT.force('es')\ndef user(): return dict(form=auth())\ndef download(): return response.download(request,db)\ndef call(): return service()\n### end requires\ndef index():\n    return dict()\n\ndef error():\n    return dict()\n\nresponse._vars=response._caller(user)\n"
p7
sS'snapshot'
p8
(dp9
S'exception'
p10
(dp11
S'__module__'
p12
S"'gluon.contrib.pymysql.err'"
p13
sS'__getslice__'
p14
S"<method-wrapper '__getslice__' of IntegrityError object>"
p15
sS'__str__'
p16
S"<method-wrapper '__str__' of IntegrityError object>"
p17
sS'__reduce__'
p18
S'<built-in method __reduce__ of IntegrityError object>'
p19
sS'__dict__'
p20
S'{}'
p21
sS'__sizeof__'
p22
S'<built-in method __sizeof__ of IntegrityError object>'
p23
sS'__weakref__'
p24
S'None'
p25
sS'__init__'
p26
S"<method-wrapper '__init__' of IntegrityError object>"
p27
sS'__setattr__'
p28
S"<method-wrapper '__setattr__' of IntegrityError object>"
p29
sS'__reduce_ex__'
p30
S'<built-in method __reduce_ex__ of IntegrityError object>'
p31
sS'__new__'
p32
S'<built-in method __new__ of type object>'
p33
sS'__format__'
p34
S'<built-in method __format__ of IntegrityError object>'
p35
sS'__class__'
p36
S"<class 'gluon.contrib.pymysql.err.IntegrityError'>"
p37
sS'__doc__'
p38
S"'Exception raised when the relational integrity o... foreign key check fails, duplicate key,\\n    etc.'"
p39
sS'__getitem__'
p40
S"<method-wrapper '__getitem__' of IntegrityError object>"
p41
sS'__setstate__'
p42
S'<built-in method __setstate__ of IntegrityError object>'
p43
sS'__getattribute__'
p44
S"<method-wrapper '__getattribute__' of IntegrityError object>"
p45
sS'args'
p46
S"(1452, u'Cannot add or update a child row: a foreign ke...REFERENCES `auth_user` (`id`) ON DELETE CASCADE)')"
p47
sS'__subclasshook__'
p48
S'<built-in method __subclasshook__ of type object>'
p49
sS'__unicode__'
p50
S'<built-in method __unicode__ of IntegrityError object>'
p51
sS'__delattr__'
p52
S"<method-wrapper '__delattr__' of IntegrityError object>"
p53
sS'__repr__'
p54
S"<method-wrapper '__repr__' of IntegrityError object>"
p55
sS'__hash__'
p56
S"<method-wrapper '__hash__' of IntegrityError object>"
p57
ssS'evalue'
p58
S"(1452, u'Cannot add or update a child row: a foreign key constraint fails (`db_sicoin`.`auth_event`, CONSTRAINT `auth_event_ibfk_1` FOREIGN KEY (`user_id`) REFERENCES `auth_user` (`id`) ON DELETE CASCADE)')"
p59
sS'request'
p60
ccopy_reg
_reconstructor
p61
(cgluon.html
BEAUTIFY
p62
c__builtin__
object
p63
NtRp64
(dp65
S'attributes'
p66
(dp67
sS'components'
p68
(lp69
g61
(cgluon.html
TABLE
p70
g63
NtRp71
(dp72
g66
(dp73
S'level'
p74
I5
ssS'parent'
p75
Nsg68
(lp76
g61
(cgluon.html
TR
p77
g63
NtRp78
(dp79
g66
(dp80
sg75
g71
sg68
(lp81
g61
(cgluon.html
TD
p82
g63
NtRp83
(dp84
g66
(dp85
S'_style'
p86
S'font-weight:bold;vertical-align:top'
p87
ssg75
g78
sg68
(lp88
S'ajax'
p89
asbag61
(g82
g63
NtRp90
(dp91
g66
(dp92
S'_valign'
p93
S'top'
p94
ssg75
g78
sg68
(lp95
S':'
asbag61
(g82
g63
NtRp96
(dp97
g66
(dp98
sg75
g78
sg68
(lp99
g61
(g62
g63
NtRp100
(dp101
g66
(dp102
g74
I5
ssg75
g96
sg68
(lp103
S'False'
p104
asbasbasbag61
(g77
g63
NtRp105
(dp106
g66
(dp107
sg75
g71
sg68
(lp108
g61
(g82
g63
NtRp109
(dp110
g66
(dp111
g86
g87
ssg75
g105
sg68
(lp112
S'application'
p113
asbag61
(g82
g63
NtRp114
(dp115
g66
(dp116
g93
g94
ssg75
g105
sg68
(lp117
S':'
asbag61
(g82
g63
NtRp118
(dp119
g66
(dp120
sg75
g105
sg68
(lp121
g61
(g62
g63
NtRp122
(dp123
g66
(dp124
g74
I5
ssg75
g118
sg68
(lp125
S'sicoin'
p126
asbasbasbag61
(g77
g63
NtRp127
(dp128
g66
(dp129
sg75
g71
sg68
(lp130
g61
(g82
g63
NtRp131
(dp132
g66
(dp133
g86
g87
ssg75
g127
sg68
(lp134
g46
asbag61
(g82
g63
NtRp135
(dp136
g66
(dp137
g93
g94
ssg75
g127
sg68
(lp138
S':'
asbag61
(g82
g63
NtRp139
(dp140
g66
(dp141
sg75
g127
sg68
(lp142
g61
(g62
g63
NtRp143
(dp144
g66
(dp145
g74
I5
ssg75
g139
sg68
(lp146
g61
(g70
g63
NtRp147
(dp148
g66
(dp149
g74
I4
ssg75
Nsg68
(lp150
g61
(g77
g63
NtRp151
(dp152
g66
(dp153
sg75
g147
sg68
(lp154
g61
(g82
g63
NtRp155
(dp156
g66
(dp157
sg75
g151
sg68
(lp158
g61
(g62
g63
NtRp159
(dp160
g66
(dp161
g74
I4
ssg75
g155
sg68
(lp162
S'logout'
p163
asbasbasbasbasbasbasbag61
(g77
g63
NtRp164
(dp165
g66
(dp166
sg75
g71
sg68
(lp167
g61
(g82
g63
NtRp168
(dp169
g66
(dp170
g86
g87
ssg75
g164
sg68
(lp171
S'body'
p172
asbag61
(g82
g63
NtRp173
(dp174
g66
(dp175
g93
g94
ssg75
g164
sg68
(lp176
S':'
asbag61
(g82
g63
NtRp177
(dp178
g66
(dp179
sg75
g164
sg68
(lp180
g61
(g62
g63
NtRp181
(dp182
g66
(dp183
g74
I5
ssg75
g177
sg68
(lp184
S'<cStringIO.StringO object at 0xa12de60>'
p185
asbasbasbag61
(g77
g63
NtRp186
(dp187
g66
(dp188
sg75
g71
sg68
(lp189
g61
(g82
g63
NtRp190
(dp191
g66
(dp192
g86
g87
ssg75
g186
sg68
(lp193
S'cid'
p194
asbag61
(g82
g63
NtRp195
(dp196
g66
(dp197
g93
g94
ssg75
g186
sg68
(lp198
S':'
asbag61
(g82
g63
NtRp199
(dp200
g66
(dp201
sg75
g186
sg68
(lp202
g61
(g62
g63
NtRp203
(dp204
g66
(dp205
g74
I5
ssg75
g199
sg68
(lp206
S'None'
p207
asbasbasbag61
(g77
g63
NtRp208
(dp209
g66
(dp210
sg75
g71
sg68
(lp211
g61
(g82
g63
NtRp212
(dp213
g66
(dp214
g86
g87
ssg75
g208
sg68
(lp215
S'client'
p216
asbag61
(g82
g63
NtRp217
(dp218
g66
(dp219
g93
g94
ssg75
g208
sg68
(lp220
S':'
asbag61
(g82
g63
NtRp221
(dp222
g66
(dp223
sg75
g208
sg68
(lp224
g61
(g62
g63
NtRp225
(dp226
g66
(dp227
g74
I5
ssg75
g221
sg68
(lp228
S'190.169.221.32'
p229
asbasbasbag61
(g77
g63
NtRp230
(dp231
g66
(dp232
sg75
g71
sg68
(lp233
g61
(g82
g63
NtRp234
(dp235
g66
(dp236
g86
g87
ssg75
g230
sg68
(lp237
S'controller'
p238
asbag61
(g82
g63
NtRp239
(dp240
g66
(dp241
g93
g94
ssg75
g230
sg68
(lp242
S':'
asbag61
(g82
g63
NtRp243
(dp244
g66
(dp245
sg75
g230
sg68
(lp246
g61
(g62
g63
NtRp247
(dp248
g66
(dp249
g74
I5
ssg75
g243
sg68
(lp250
S'default'
p251
asbasbasbag61
(g77
g63
NtRp252
(dp253
g66
(dp254
sg75
g71
sg68
(lp255
g61
(g82
g63
NtRp256
(dp257
g66
(dp258
g86
g87
ssg75
g252
sg68
(lp259
S'cookies'
p260
asbag61
(g82
g63
NtRp261
(dp262
g66
(dp263
g93
g94
ssg75
g252
sg68
(lp264
S':'
asbag61
(g82
g63
NtRp265
(dp266
g66
(dp267
sg75
g252
sg68
(lp268
g61
(g62
g63
NtRp269
(dp270
g66
(dp271
g74
I5
ssg75
g265
sg68
(lp272
g61
(g70
g63
NtRp273
(dp274
g66
(dp275
g74
I4
ssg75
Nsg68
(lp276
g61
(g77
g63
NtRp277
(dp278
g66
(dp279
sg75
g273
sg68
(lp280
g61
(g82
g63
NtRp281
(dp282
g66
(dp283
g86
g87
ssg75
g277
sg68
(lp284
S'session_id_admin'
p285
asbag61
(g82
g63
NtRp286
(dp287
g66
(dp288
g93
g94
ssg75
g277
sg68
(lp289
S':'
asbag61
(g82
g63
NtRp290
(dp291
g66
(dp292
sg75
g277
sg68
(lp293
g61
(g62
g63
NtRp294
(dp295
g66
(dp296
g74
I4
ssg75
g290
sg68
(lp297
S'190.169.221.32-3e94e481-9c59-45da-88c0-32fece4a1b53'
p298
ag61
(g70
g63
NtRp299
(dp300
g66
(dp301
g74
I3
ssg75
Nsg68
(lp302
g61
(g77
g63
NtRp303
(dp304
g66
(dp305
sg75
g299
sg68
(lp306
g61
(g82
g63
NtRp307
(dp308
g66
(dp309
g86
g87
ssg75
g303
sg68
(lp310
S'comment'
p311
asbag61
(g82
g63
NtRp312
(dp313
g66
(dp314
g93
g94
ssg75
g303
sg68
(lp315
S':'
asbag61
(g82
g63
NtRp316
(dp317
g66
(dp318
sg75
g303
sg68
(lp319
g61
(g62
g63
NtRp320
(dp321
g66
(dp322
g74
I3
ssg75
g316
sg68
(lp323
S''
asbasbasbag61
(g77
g63
NtRp324
(dp325
g66
(dp326
sg75
g299
sg68
(lp327
g61
(g82
g63
NtRp328
(dp329
g66
(dp330
g86
g87
ssg75
g324
sg68
(lp331
S'domain'
p332
asbag61
(g82
g63
NtRp333
(dp334
g66
(dp335
g93
g94
ssg75
g324
sg68
(lp336
S':'
asbag61
(g82
g63
NtRp337
(dp338
g66
(dp339
sg75
g324
sg68
(lp340
g61
(g62
g63
NtRp341
(dp342
g66
(dp343
g74
I3
ssg75
g337
sg68
(lp344
S''
asbasbasbag61
(g77
g63
NtRp345
(dp346
g66
(dp347
sg75
g299
sg68
(lp348
g61
(g82
g63
NtRp349
(dp350
g66
(dp351
g86
g87
ssg75
g345
sg68
(lp352
S'expires'
p353
asbag61
(g82
g63
NtRp354
(dp355
g66
(dp356
g93
g94
ssg75
g345
sg68
(lp357
S':'
asbag61
(g82
g63
NtRp358
(dp359
g66
(dp360
sg75
g345
sg68
(lp361
g61
(g62
g63
NtRp362
(dp363
g66
(dp364
g74
I3
ssg75
g358
sg68
(lp365
S''
asbasbasbag61
(g77
g63
NtRp366
(dp367
g66
(dp368
sg75
g299
sg68
(lp369
g61
(g82
g63
NtRp370
(dp371
g66
(dp372
g86
g87
ssg75
g366
sg68
(lp373
S'httponly'
p374
asbag61
(g82
g63
NtRp375
(dp376
g66
(dp377
g93
g94
ssg75
g366
sg68
(lp378
S':'
asbag61
(g82
g63
NtRp379
(dp380
g66
(dp381
sg75
g366
sg68
(lp382
g61
(g62
g63
NtRp383
(dp384
g66
(dp385
g74
I3
ssg75
g379
sg68
(lp386
S''
asbasbasbag61
(g77
g63
NtRp387
(dp388
g66
(dp389
sg75
g299
sg68
(lp390
g61
(g82
g63
NtRp391
(dp392
g66
(dp393
g86
g87
ssg75
g387
sg68
(lp394
S'max-age'
p395
asbag61
(g82
g63
NtRp396
(dp397
g66
(dp398
g93
g94
ssg75
g387
sg68
(lp399
S':'
asbag61
(g82
g63
NtRp400
(dp401
g66
(dp402
sg75
g387
sg68
(lp403
g61
(g62
g63
NtRp404
(dp405
g66
(dp406
g74
I3
ssg75
g400
sg68
(lp407
S''
asbasbasbag61
(g77
g63
NtRp408
(dp409
g66
(dp410
sg75
g299
sg68
(lp411
g61
(g82
g63
NtRp412
(dp413
g66
(dp414
g86
g87
ssg75
g408
sg68
(lp415
S'path'
p416
asbag61
(g82
g63
NtRp417
(dp418
g66
(dp419
g93
g94
ssg75
g408
sg68
(lp420
S':'
asbag61
(g82
g63
NtRp421
(dp422
g66
(dp423
sg75
g408
sg68
(lp424
g61
(g62
g63
NtRp425
(dp426
g66
(dp427
g74
I3
ssg75
g421
sg68
(lp428
S''
asbasbasbag61
(g77
g63
NtRp429
(dp430
g66
(dp431
sg75
g299
sg68
(lp432
g61
(g82
g63
NtRp433
(dp434
g66
(dp435
g86
g87
ssg75
g429
sg68
(lp436
S'secure'
p437
asbag61
(g82
g63
NtRp438
(dp439
g66
(dp440
g93
g94
ssg75
g429
sg68
(lp441
S':'
asbag61
(g82
g63
NtRp442
(dp443
g66
(dp444
sg75
g429
sg68
(lp445
g61
(g62
g63
NtRp446
(dp447
g66
(dp448
g74
I3
ssg75
g442
sg68
(lp449
S''
asbasbasbag61
(g77
g63
NtRp450
(dp451
g66
(dp452
sg75
g299
sg68
(lp453
g61
(g82
g63
NtRp454
(dp455
g66
(dp456
g86
g87
ssg75
g450
sg68
(lp457
S'version'
p458
asbag61
(g82
g63
NtRp459
(dp460
g66
(dp461
g93
g94
ssg75
g450
sg68
(lp462
S':'
asbag61
(g82
g63
NtRp463
(dp464
g66
(dp465
sg75
g450
sg68
(lp466
g61
(g62
g63
NtRp467
(dp468
g66
(dp469
g74
I3
ssg75
g463
sg68
(lp470
S''
asbasbasbasbasbasbasbag61
(g77
g63
NtRp471
(dp472
g66
(dp473
sg75
g273
sg68
(lp474
g61
(g82
g63
NtRp475
(dp476
g66
(dp477
g86
g87
ssg75
g471
sg68
(lp478
S'session_id_sicoin'
p479
asbag61
(g82
g63
NtRp480
(dp481
g66
(dp482
g93
g94
ssg75
g471
sg68
(lp483
S':'
asbag61
(g82
g63
NtRp484
(dp485
g66
(dp486
sg75
g471
sg68
(lp487
g61
(g62
g63
NtRp488
(dp489
g66
(dp490
g74
I4
ssg75
g484
sg68
(lp491
S'190.169.221.32-1d9491ba-4c6b-4d8a-9e62-f8bfc5213949'
p492
ag61
(g70
g63
NtRp493
(dp494
g66
(dp495
g74
I3
ssg75
Nsg68
(lp496
g61
(g77
g63
NtRp497
(dp498
g66
(dp499
sg75
g493
sg68
(lp500
g61
(g82
g63
NtRp501
(dp502
g66
(dp503
g86
g87
ssg75
g497
sg68
(lp504
g311
asbag61
(g82
g63
NtRp505
(dp506
g66
(dp507
g93
g94
ssg75
g497
sg68
(lp508
S':'
asbag61
(g82
g63
NtRp509
(dp510
g66
(dp511
sg75
g497
sg68
(lp512
g61
(g62
g63
NtRp513
(dp514
g66
(dp515
g74
I3
ssg75
g509
sg68
(lp516
S''
asbasbasbag61
(g77
g63
NtRp517
(dp518
g66
(dp519
sg75
g493
sg68
(lp520
g61
(g82
g63
NtRp521
(dp522
g66
(dp523
g86
g87
ssg75
g517
sg68
(lp524
g332
asbag61
(g82
g63
NtRp525
(dp526
g66
(dp527
g93
g94
ssg75
g517
sg68
(lp528
S':'
asbag61
(g82
g63
NtRp529
(dp530
g66
(dp531
sg75
g517
sg68
(lp532
g61
(g62
g63
NtRp533
(dp534
g66
(dp535
g74
I3
ssg75
g529
sg68
(lp536
S''
asbasbasbag61
(g77
g63
NtRp537
(dp538
g66
(dp539
sg75
g493
sg68
(lp540
g61
(g82
g63
NtRp541
(dp542
g66
(dp543
g86
g87
ssg75
g537
sg68
(lp544
g353
asbag61
(g82
g63
NtRp545
(dp546
g66
(dp547
g93
g94
ssg75
g537
sg68
(lp548
S':'
asbag61
(g82
g63
NtRp549
(dp550
g66
(dp551
sg75
g537
sg68
(lp552
g61
(g62
g63
NtRp553
(dp554
g66
(dp555
g74
I3
ssg75
g549
sg68
(lp556
S''
asbasbasbag61
(g77
g63
NtRp557
(dp558
g66
(dp559
sg75
g493
sg68
(lp560
g61
(g82
g63
NtRp561
(dp562
g66
(dp563
g86
g87
ssg75
g557
sg68
(lp564
g374
asbag61
(g82
g63
NtRp565
(dp566
g66
(dp567
g93
g94
ssg75
g557
sg68
(lp568
S':'
asbag61
(g82
g63
NtRp569
(dp570
g66
(dp571
sg75
g557
sg68
(lp572
g61
(g62
g63
NtRp573
(dp574
g66
(dp575
g74
I3
ssg75
g569
sg68
(lp576
S''
asbasbasbag61
(g77
g63
NtRp577
(dp578
g66
(dp579
sg75
g493
sg68
(lp580
g61
(g82
g63
NtRp581
(dp582
g66
(dp583
g86
g87
ssg75
g577
sg68
(lp584
g395
asbag61
(g82
g63
NtRp585
(dp586
g66
(dp587
g93
g94
ssg75
g577
sg68
(lp588
S':'
asbag61
(g82
g63
NtRp589
(dp590
g66
(dp591
sg75
g577
sg68
(lp592
g61
(g62
g63
NtRp593
(dp594
g66
(dp595
g74
I3
ssg75
g589
sg68
(lp596
S''
asbasbasbag61
(g77
g63
NtRp597
(dp598
g66
(dp599
sg75
g493
sg68
(lp600
g61
(g82
g63
NtRp601
(dp602
g66
(dp603
g86
g87
ssg75
g597
sg68
(lp604
g416
asbag61
(g82
g63
NtRp605
(dp606
g66
(dp607
g93
g94
ssg75
g597
sg68
(lp608
S':'
asbag61
(g82
g63
NtRp609
(dp610
g66
(dp611
sg75
g597
sg68
(lp612
g61
(g62
g63
NtRp613
(dp614
g66
(dp615
g74
I3
ssg75
g609
sg68
(lp616
S''
asbasbasbag61
(g77
g63
NtRp617
(dp618
g66
(dp619
sg75
g493
sg68
(lp620
g61
(g82
g63
NtRp621
(dp622
g66
(dp623
g86
g87
ssg75
g617
sg68
(lp624
g437
asbag61
(g82
g63
NtRp625
(dp626
g66
(dp627
g93
g94
ssg75
g617
sg68
(lp628
S':'
asbag61
(g82
g63
NtRp629
(dp630
g66
(dp631
sg75
g617
sg68
(lp632
g61
(g62
g63
NtRp633
(dp634
g66
(dp635
g74
I3
ssg75
g629
sg68
(lp636
S''
asbasbasbag61
(g77
g63
NtRp637
(dp638
g66
(dp639
sg75
g493
sg68
(lp640
g61
(g82
g63
NtRp641
(dp642
g66
(dp643
g86
g87
ssg75
g637
sg68
(lp644
g458
asbag61
(g82
g63
NtRp645
(dp646
g66
(dp647
g93
g94
ssg75
g637
sg68
(lp648
S':'
asbag61
(g82
g63
NtRp649
(dp650
g66
(dp651
sg75
g637
sg68
(lp652
g61
(g62
g63
NtRp653
(dp654
g66
(dp655
g74
I3
ssg75
g649
sg68
(lp656
S''
asbasbasbasbasbasbasbasbasbasbasbag61
(g77
g63
NtRp657
(dp658
g66
(dp659
sg75
g71
sg68
(lp660
g61
(g82
g63
NtRp661
(dp662
g66
(dp663
g86
g87
ssg75
g657
sg68
(lp664
S'env'
p665
asbag61
(g82
g63
NtRp666
(dp667
g66
(dp668
g93
g94
ssg75
g657
sg68
(lp669
S':'
asbag61
(g82
g63
NtRp670
(dp671
g66
(dp672
sg75
g657
sg68
(lp673
g61
(g62
g63
NtRp674
(dp675
g66
(dp676
g74
I5
ssg75
g670
sg68
(lp677
g61
(g70
g63
NtRp678
(dp679
g66
(dp680
g74
I4
ssg75
Nsg68
(lp681
g61
(g77
g63
NtRp682
(dp683
g66
(dp684
sg75
g678
sg68
(lp685
g61
(g82
g63
NtRp686
(dp687
g66
(dp688
g86
g87
ssg75
g682
sg68
(lp689
S'app_folders'
p690
asbag61
(g82
g63
NtRp691
(dp692
g66
(dp693
g93
g94
ssg75
g682
sg68
(lp694
S':'
asbag61
(g82
g63
NtRp695
(dp696
g66
(dp697
sg75
g682
sg68
(lp698
g61
(g62
g63
NtRp699
(dp700
g66
(dp701
g74
I4
ssg75
g695
sg68
(lp702
S"set(['/home/perdomor/web2py/applications/sicoin/', '/home/perdomor/web2py/applications/welcome/', '/home/perdomor/web2py/applications/admin/'])"
p703
asbasbasbag61
(g77
g63
NtRp704
(dp705
g66
(dp706
sg75
g678
sg68
(lp707
g61
(g82
g63
NtRp708
(dp709
g66
(dp710
g86
g87
ssg75
g704
sg68
(lp711
S'applications_parent'
p712
asbag61
(g82
g63
NtRp713
(dp714
g66
(dp715
g93
g94
ssg75
g704
sg68
(lp716
S':'
asbag61
(g82
g63
NtRp717
(dp718
g66
(dp719
sg75
g704
sg68
(lp720
g61
(g62
g63
NtRp721
(dp722
g66
(dp723
g74
I4
ssg75
g717
sg68
(lp724
S'/home/perdomor/web2py'
p725
asbasbasbag61
(g77
g63
NtRp726
(dp727
g66
(dp728
sg75
g678
sg68
(lp729
g61
(g82
g63
NtRp730
(dp731
g66
(dp732
g86
g87
ssg75
g726
sg68
(lp733
S'cmd_args'
p734
asbag61
(g82
g63
NtRp735
(dp736
g66
(dp737
g93
g94
ssg75
g726
sg68
(lp738
S':'
asbag61
(g82
g63
NtRp739
(dp740
g66
(dp741
sg75
g726
sg68
(lp742
g61
(g62
g63
NtRp743
(dp744
g66
(dp745
g74
I4
ssg75
g739
sg68
(lp746
g61
(g70
g63
NtRp747
(dp748
g66
(dp749
g74
I3
ssg75
Nsg68
(lp750
sbasbasbasbag61
(g77
g63
NtRp751
(dp752
g66
(dp753
sg75
g678
sg68
(lp754
g61
(g82
g63
NtRp755
(dp756
g66
(dp757
g86
g87
ssg75
g751
sg68
(lp758
S'cmd_options'
p759
asbag61
(g82
g63
NtRp760
(dp761
g66
(dp762
g93
g94
ssg75
g751
sg68
(lp763
S':'
asbag61
(g82
g63
NtRp764
(dp765
g66
(dp766
sg75
g751
sg68
(lp767
g61
(g62
g63
NtRp768
(dp769
g66
(dp770
g74
I4
ssg75
g764
sg68
(lp771
S"<Values at 0x8d2186c: {'verbose': False, 'ip': '127.0.0.1', 'with_scheduler': False, 'ips': ['127.0.1.1'], 'shutdown_timeout': 5, 'taskbar': False, 'port': 8000, 'maxthreads': None, 'softcron': False, 'server_name': 'perdomor', 'bpython': False, 'nogui': False, 'nocron': False, 'extcron': False, 'run_system_tests': False, 'test': None, 'folder': '/home/perdomor/web2py', 'config': '', 'import_models': False, 'winservice': '', 'shell': None, 'run': '', 'log_filename': 'httpserver.log', 'debuglevel': 30, 'args': [''], 'socket_timeout': 5, 'ssl_ca_certificate': None, 'scheduler': None, 'profiler_filename': None, 'ssl_private_key': '', 'scheduler_groups': None, 'password': '<ask>', 'request_queue_size': 5, 'ssl_certificate': '', 'cronjob': False, 'numthreads': None, 'quiet': False, 'interfaces': None, 'minthreads': None, 'timeout': 10, 'plain': False, 'nobanner': False, 'pid_filename': 'httpserver.pid'}>"
p772
asbasbasbag61
(g77
g63
NtRp773
(dp774
g66
(dp775
sg75
g678
sg68
(lp776
g61
(g82
g63
NtRp777
(dp778
g66
(dp779
g86
g87
ssg75
g773
sg68
(lp780
S'db_sessions'
p781
asbag61
(g82
g63
NtRp782
(dp783
g66
(dp784
g93
g94
ssg75
g773
sg68
(lp785
S':'
asbag61
(g82
g63
NtRp786
(dp787
g66
(dp788
sg75
g773
sg68
(lp789
g61
(g62
g63
NtRp790
(dp791
g66
(dp792
g74
I4
ssg75
g786
sg68
(lp793
S'set([])'
p794
asbasbasbag61
(g77
g63
NtRp795
(dp796
g66
(dp797
sg75
g678
sg68
(lp798
g61
(g82
g63
NtRp799
(dp800
g66
(dp801
g86
g87
ssg75
g795
sg68
(lp802
S'debugging'
p803
asbag61
(g82
g63
NtRp804
(dp805
g66
(dp806
g93
g94
ssg75
g795
sg68
(lp807
S':'
asbag61
(g82
g63
NtRp808
(dp809
g66
(dp810
sg75
g795
sg68
(lp811
g61
(g62
g63
NtRp812
(dp813
g66
(dp814
g74
I4
ssg75
g808
sg68
(lp815
g104
asbasbasbag61
(g77
g63
NtRp816
(dp817
g66
(dp818
sg75
g678
sg68
(lp819
g61
(g82
g63
NtRp820
(dp821
g66
(dp822
g86
g87
ssg75
g816
sg68
(lp823
S'gluon_parent'
p824
asbag61
(g82
g63
NtRp825
(dp826
g66
(dp827
g93
g94
ssg75
g816
sg68
(lp828
S':'
asbag61
(g82
g63
NtRp829
(dp830
g66
(dp831
sg75
g816
sg68
(lp832
g61
(g62
g63
NtRp833
(dp834
g66
(dp835
g74
I4
ssg75
g829
sg68
(lp836
S'/home/perdomor/web2py'
p837
asbasbasbag61
(g77
g63
NtRp838
(dp839
g66
(dp840
sg75
g678
sg68
(lp841
g61
(g82
g63
NtRp842
(dp843
g66
(dp844
g86
g87
ssg75
g838
sg68
(lp845
S'http_accept'
p846
asbag61
(g82
g63
NtRp847
(dp848
g66
(dp849
g93
g94
ssg75
g838
sg68
(lp850
S':'
asbag61
(g82
g63
NtRp851
(dp852
g66
(dp853
sg75
g838
sg68
(lp854
g61
(g62
g63
NtRp855
(dp856
g66
(dp857
g74
I4
ssg75
g851
sg68
(lp858
S'text/html,application/xhtml+xml,application/xml;q=0.9,*/*;q=0.8'
p859
asbasbasbag61
(g77
g63
NtRp860
(dp861
g66
(dp862
sg75
g678
sg68
(lp863
g61
(g82
g63
NtRp864
(dp865
g66
(dp866
g86
g87
ssg75
g860
sg68
(lp867
S'http_accept_encoding'
p868
asbag61
(g82
g63
NtRp869
(dp870
g66
(dp871
g93
g94
ssg75
g860
sg68
(lp872
S':'
asbag61
(g82
g63
NtRp873
(dp874
g66
(dp875
sg75
g860
sg68
(lp876
g61
(g62
g63
NtRp877
(dp878
g66
(dp879
g74
I4
ssg75
g873
sg68
(lp880
S'gzip, deflate'
p881
asbasbasbag61
(g77
g63
NtRp882
(dp883
g66
(dp884
sg75
g678
sg68
(lp885
g61
(g82
g63
NtRp886
(dp887
g66
(dp888
g86
g87
ssg75
g882
sg68
(lp889
S'http_accept_language'
p890
asbag61
(g82
g63
NtRp891
(dp892
g66
(dp893
g93
g94
ssg75
g882
sg68
(lp894
S':'
asbag61
(g82
g63
NtRp895
(dp896
g66
(dp897
sg75
g882
sg68
(lp898
g61
(g62
g63
NtRp899
(dp900
g66
(dp901
g74
I4
ssg75
g895
sg68
(lp902
S'es-es,es;q=0.8,en-us;q=0.5,en;q=0.3'
p903
asbasbasbag61
(g77
g63
NtRp904
(dp905
g66
(dp906
sg75
g678
sg68
(lp907
g61
(g82
g63
NtRp908
(dp909
g66
(dp910
g86
g87
ssg75
g904
sg68
(lp911
S'http_connection'
p912
asbag61
(g82
g63
NtRp913
(dp914
g66
(dp915
g93
g94
ssg75
g904
sg68
(lp916
S':'
asbag61
(g82
g63
NtRp917
(dp918
g66
(dp919
sg75
g904
sg68
(lp920
g61
(g62
g63
NtRp921
(dp922
g66
(dp923
g74
I4
ssg75
g917
sg68
(lp924
S'keep-alive'
p925
asbasbasbag61
(g77
g63
NtRp926
(dp927
g66
(dp928
sg75
g678
sg68
(lp929
g61
(g82
g63
NtRp930
(dp931
g66
(dp932
g86
g87
ssg75
g926
sg68
(lp933
S'http_cookie'
p934
asbag61
(g82
g63
NtRp935
(dp936
g66
(dp937
g93
g94
ssg75
g926
sg68
(lp938
S':'
asbag61
(g82
g63
NtRp939
(dp940
g66
(dp941
sg75
g926
sg68
(lp942
g61
(g62
g63
NtRp943
(dp944
g66
(dp945
g74
I4
ssg75
g939
sg68
(lp946
S'session_id_sicoin=190.169.221.32-1d9491ba-4c6b-4d8a-9e62-f8bfc5213949; session_id_admin=190.169.221.32-3e94e481-9c59-45da-88c0-32fece4a1b53'
p947
asbasbasbag61
(g77
g63
NtRp948
(dp949
g66
(dp950
sg75
g678
sg68
(lp951
g61
(g82
g63
NtRp952
(dp953
g66
(dp954
g86
g87
ssg75
g948
sg68
(lp955
S'http_dnt'
p956
asbag61
(g82
g63
NtRp957
(dp958
g66
(dp959
g93
g94
ssg75
g948
sg68
(lp960
S':'
asbag61
(g82
g63
NtRp961
(dp962
g66
(dp963
sg75
g948
sg68
(lp964
g61
(g62
g63
NtRp965
(dp966
g66
(dp967
g74
I4
ssg75
g961
sg68
(lp968
S'1'
asbasbasbag61
(g77
g63
NtRp969
(dp970
g66
(dp971
sg75
g678
sg68
(lp972
g61
(g82
g63
NtRp973
(dp974
g66
(dp975
g86
g87
ssg75
g969
sg68
(lp976
S'http_host'
p977
asbag61
(g82
g63
NtRp978
(dp979
g66
(dp980
g93
g94
ssg75
g969
sg68
(lp981
S':'
asbag61
(g82
g63
NtRp982
(dp983
g66
(dp984
sg75
g969
sg68
(lp985
g61
(g62
g63
NtRp986
(dp987
g66
(dp988
g74
I4
ssg75
g982
sg68
(lp989
S'190.169.221.43:8080'
p990
asbasbasbag61
(g77
g63
NtRp991
(dp992
g66
(dp993
sg75
g678
sg68
(lp994
g61
(g82
g63
NtRp995
(dp996
g66
(dp997
g86
g87
ssg75
g991
sg68
(lp998
S'http_referer'
p999
asbag61
(g82
g63
NtRp1000
(dp1001
g66
(dp1002
g93
g94
ssg75
g991
sg68
(lp1003
S':'
asbag61
(g82
g63
NtRp1004
(dp1005
g66
(dp1006
sg75
g991
sg68
(lp1007
g61
(g62
g63
NtRp1008
(dp1009
g66
(dp1010
g74
I4
ssg75
g1004
sg68
(lp1011
S'http://190.169.221.43:8080/sicoin/default/user/not_authorized'
p1012
asbasbasbag61
(g77
g63
NtRp1013
(dp1014
g66
(dp1015
sg75
g678
sg68
(lp1016
g61
(g82
g63
NtRp1017
(dp1018
g66
(dp1019
g86
g87
ssg75
g1013
sg68
(lp1020
S'http_user_agent'
p1021
asbag61
(g82
g63
NtRp1022
(dp1023
g66
(dp1024
g93
g94
ssg75
g1013
sg68
(lp1025
S':'
asbag61
(g82
g63
NtRp1026
(dp1027
g66
(dp1028
sg75
g1013
sg68
(lp1029
g61
(g62
g63
NtRp1030
(dp1031
g66
(dp1032
g74
I4
ssg75
g1026
sg68
(lp1033
S'Mozilla/5.0 (Windows NT 6.0; rv:15.0) Gecko/20100101 Firefox/15.0.1'
p1034
asbasbasbag61
(g77
g63
NtRp1035
(dp1036
g66
(dp1037
sg75
g678
sg68
(lp1038
g61
(g82
g63
NtRp1039
(dp1040
g66
(dp1041
g86
g87
ssg75
g1035
sg68
(lp1042
S'is_jython'
p1043
asbag61
(g82
g63
NtRp1044
(dp1045
g66
(dp1046
g93
g94
ssg75
g1035
sg68
(lp1047
S':'
asbag61
(g82
g63
NtRp1048
(dp1049
g66
(dp1050
sg75
g1035
sg68
(lp1051
g61
(g62
g63
NtRp1052
(dp1053
g66
(dp1054
g74
I4
ssg75
g1048
sg68
(lp1055
g104
asbasbasbag61
(g77
g63
NtRp1056
(dp1057
g66
(dp1058
sg75
g678
sg68
(lp1059
g61
(g82
g63
NtRp1060
(dp1061
g66
(dp1062
g86
g87
ssg75
g1056
sg68
(lp1063
S'is_pypy'
p1064
asbag61
(g82
g63
NtRp1065
(dp1066
g66
(dp1067
g93
g94
ssg75
g1056
sg68
(lp1068
S':'
asbag61
(g82
g63
NtRp1069
(dp1070
g66
(dp1071
sg75
g1056
sg68
(lp1072
g61
(g62
g63
NtRp1073
(dp1074
g66
(dp1075
g74
I4
ssg75
g1069
sg68
(lp1076
g104
asbasbasbag61
(g77
g63
NtRp1077
(dp1078
g66
(dp1079
sg75
g678
sg68
(lp1080
g61
(g82
g63
NtRp1081
(dp1082
g66
(dp1083
g86
g87
ssg75
g1077
sg68
(lp1084
S'path_info'
p1085
asbag61
(g82
g63
NtRp1086
(dp1087
g66
(dp1088
g93
g94
ssg75
g1077
sg68
(lp1089
S':'
asbag61
(g82
g63
NtRp1090
(dp1091
g66
(dp1092
sg75
g1077
sg68
(lp1093
g61
(g62
g63
NtRp1094
(dp1095
g66
(dp1096
g74
I4
ssg75
g1090
sg68
(lp1097
S'/sicoin/default/user/logout'
p1098
asbasbasbag61
(g77
g63
NtRp1099
(dp1100
g66
(dp1101
sg75
g678
sg68
(lp1102
g61
(g82
g63
NtRp1103
(dp1104
g66
(dp1105
g86
g87
ssg75
g1099
sg68
(lp1106
S'query_string'
p1107
asbag61
(g82
g63
NtRp1108
(dp1109
g66
(dp1110
g93
g94
ssg75
g1099
sg68
(lp1111
S':'
asbag61
(g82
g63
NtRp1112
(dp1113
g66
(dp1114
sg75
g1099
sg68
(lp1115
g61
(g62
g63
NtRp1116
(dp1117
g66
(dp1118
g74
I4
ssg75
g1112
sg68
(lp1119
S'_next=/sicoin/default/index'
p1120
asbasbasbag61
(g77
g63
NtRp1121
(dp1122
g66
(dp1123
sg75
g678
sg68
(lp1124
g61
(g82
g63
NtRp1125
(dp1126
g66
(dp1127
g86
g87
ssg75
g1121
sg68
(lp1128
S'remote_addr'
p1129
asbag61
(g82
g63
NtRp1130
(dp1131
g66
(dp1132
g93
g94
ssg75
g1121
sg68
(lp1133
S':'
asbag61
(g82
g63
NtRp1134
(dp1135
g66
(dp1136
sg75
g1121
sg68
(lp1137
g61
(g62
g63
NtRp1138
(dp1139
g66
(dp1140
g74
I4
ssg75
g1134
sg68
(lp1141
g229
asbasbasbag61
(g77
g63
NtRp1142
(dp1143
g66
(dp1144
sg75
g678
sg68
(lp1145
g61
(g82
g63
NtRp1146
(dp1147
g66
(dp1148
g86
g87
ssg75
g1142
sg68
(lp1149
S'remote_port'
p1150
asbag61
(g82
g63
NtRp1151
(dp1152
g66
(dp1153
g93
g94
ssg75
g1142
sg68
(lp1154
S':'
asbag61
(g82
g63
NtRp1155
(dp1156
g66
(dp1157
sg75
g1142
sg68
(lp1158
g61
(g62
g63
NtRp1159
(dp1160
g66
(dp1161
g74
I4
ssg75
g1155
sg68
(lp1162
S'51828'
p1163
asbasbasbag61
(g77
g63
NtRp1164
(dp1165
g66
(dp1166
sg75
g678
sg68
(lp1167
g61
(g82
g63
NtRp1168
(dp1169
g66
(dp1170
g86
g87
ssg75
g1164
sg68
(lp1171
S'request_method'
p1172
asbag61
(g82
g63
NtRp1173
(dp1174
g66
(dp1175
g93
g94
ssg75
g1164
sg68
(lp1176
S':'
asbag61
(g82
g63
NtRp1177
(dp1178
g66
(dp1179
sg75
g1164
sg68
(lp1180
g61
(g62
g63
NtRp1181
(dp1182
g66
(dp1183
g74
I4
ssg75
g1177
sg68
(lp1184
S'GET'
p1185
asbasbasbag61
(g77
g63
NtRp1186
(dp1187
g66
(dp1188
sg75
g678
sg68
(lp1189
g61
(g82
g63
NtRp1190
(dp1191
g66
(dp1192
g86
g87
ssg75
g1186
sg68
(lp1193
S'request_uri'
p1194
asbag61
(g82
g63
NtRp1195
(dp1196
g66
(dp1197
g93
g94
ssg75
g1186
sg68
(lp1198
S':'
asbag61
(g82
g63
NtRp1199
(dp1200
g66
(dp1201
sg75
g1186
sg68
(lp1202
g61
(g62
g63
NtRp1203
(dp1204
g66
(dp1205
g74
I4
ssg75
g1199
sg68
(lp1206
S'/sicoin/default/user/logout?_next=/sicoin/default/index'
p1207
asbasbasbag61
(g77
g63
NtRp1208
(dp1209
g66
(dp1210
sg75
g678
sg68
(lp1211
g61
(g82
g63
NtRp1212
(dp1213
g66
(dp1214
g86
g87
ssg75
g1208
sg68
(lp1215
S'script_name'
p1216
asbag61
(g82
g63
NtRp1217
(dp1218
g66
(dp1219
g93
g94
ssg75
g1208
sg68
(lp1220
S':'
asbag61
(g82
g63
NtRp1221
(dp1222
g66
(dp1223
sg75
g1208
sg68
(lp1224
g61
(g62
g63
NtRp1225
(dp1226
g66
(dp1227
g74
I4
ssg75
g1221
sg68
(lp1228
S''
asbasbasbag61
(g77
g63
NtRp1229
(dp1230
g66
(dp1231
sg75
g678
sg68
(lp1232
g61
(g82
g63
NtRp1233
(dp1234
g66
(dp1235
g86
g87
ssg75
g1229
sg68
(lp1236
S'server_name'
p1237
asbag61
(g82
g63
NtRp1238
(dp1239
g66
(dp1240
g93
g94
ssg75
g1229
sg68
(lp1241
S':'
asbag61
(g82
g63
NtRp1242
(dp1243
g66
(dp1244
sg75
g1229
sg68
(lp1245
g61
(g62
g63
NtRp1246
(dp1247
g66
(dp1248
g74
I4
ssg75
g1242
sg68
(lp1249
S'perdomor'
p1250
asbasbasbag61
(g77
g63
NtRp1251
(dp1252
g66
(dp1253
sg75
g678
sg68
(lp1254
g61
(g82
g63
NtRp1255
(dp1256
g66
(dp1257
g86
g87
ssg75
g1251
sg68
(lp1258
S'server_port'
p1259
asbag61
(g82
g63
NtRp1260
(dp1261
g66
(dp1262
g93
g94
ssg75
g1251
sg68
(lp1263
S':'
asbag61
(g82
g63
NtRp1264
(dp1265
g66
(dp1266
sg75
g1251
sg68
(lp1267
g61
(g62
g63
NtRp1268
(dp1269
g66
(dp1270
g74
I4
ssg75
g1264
sg68
(lp1271
S'8080'
p1272
asbasbasbag61
(g77
g63
NtRp1273
(dp1274
g66
(dp1275
sg75
g678
sg68
(lp1276
g61
(g82
g63
NtRp1277
(dp1278
g66
(dp1279
g86
g87
ssg75
g1273
sg68
(lp1280
S'server_protocol'
p1281
asbag61
(g82
g63
NtRp1282
(dp1283
g66
(dp1284
g93
g94
ssg75
g1273
sg68
(lp1285
S':'
asbag61
(g82
g63
NtRp1286
(dp1287
g66
(dp1288
sg75
g1273
sg68
(lp1289
g61
(g62
g63
NtRp1290
(dp1291
g66
(dp1292
g74
I4
ssg75
g1286
sg68
(lp1293
S'HTTP/1.1'
p1294
asbasbasbag61
(g77
g63
NtRp1295
(dp1296
g66
(dp1297
sg75
g678
sg68
(lp1298
g61
(g82
g63
NtRp1299
(dp1300
g66
(dp1301
g86
g87
ssg75
g1295
sg68
(lp1302
S'server_software'
p1303
asbag61
(g82
g63
NtRp1304
(dp1305
g66
(dp1306
g93
g94
ssg75
g1295
sg68
(lp1307
S':'
asbag61
(g82
g63
NtRp1308
(dp1309
g66
(dp1310
sg75
g1295
sg68
(lp1311
g61
(g62
g63
NtRp1312
(dp1313
g66
(dp1314
g74
I4
ssg75
g1308
sg68
(lp1315
S'Rocket 1.2.4'
p1316
asbasbasbag61
(g77
g63
NtRp1317
(dp1318
g66
(dp1319
sg75
g678
sg68
(lp1320
g61
(g82
g63
NtRp1321
(dp1322
g66
(dp1323
g86
g87
ssg75
g1317
sg68
(lp1324
S'web2py_crontype'
p1325
asbag61
(g82
g63
NtRp1326
(dp1327
g66
(dp1328
g93
g94
ssg75
g1317
sg68
(lp1329
S':'
asbag61
(g82
g63
NtRp1330
(dp1331
g66
(dp1332
sg75
g1317
sg68
(lp1333
g61
(g62
g63
NtRp1334
(dp1335
g66
(dp1336
g74
I4
ssg75
g1330
sg68
(lp1337
S'hard'
p1338
asbasbasbag61
(g77
g63
NtRp1339
(dp1340
g66
(dp1341
sg75
g678
sg68
(lp1342
g61
(g82
g63
NtRp1343
(dp1344
g66
(dp1345
g86
g87
ssg75
g1339
sg68
(lp1346
S'web2py_path'
p1347
asbag61
(g82
g63
NtRp1348
(dp1349
g66
(dp1350
g93
g94
ssg75
g1339
sg68
(lp1351
S':'
asbag61
(g82
g63
NtRp1352
(dp1353
g66
(dp1354
sg75
g1339
sg68
(lp1355
g61
(g62
g63
NtRp1356
(dp1357
g66
(dp1358
g74
I4
ssg75
g1352
sg68
(lp1359
g725
asbasbasbag61
(g77
g63
NtRp1360
(dp1361
g66
(dp1362
sg75
g678
sg68
(lp1363
g61
(g82
g63
NtRp1364
(dp1365
g66
(dp1366
g86
g87
ssg75
g1360
sg68
(lp1367
S'web2py_version'
p1368
asbag61
(g82
g63
NtRp1369
(dp1370
g66
(dp1371
g93
g94
ssg75
g1360
sg68
(lp1372
S':'
asbag61
(g82
g63
NtRp1373
(dp1374
g66
(dp1375
sg75
g1360
sg68
(lp1376
g61
(g62
g63
NtRp1377
(dp1378
g66
(dp1379
g74
I4
ssg75
g1373
sg68
(lp1380
g61
(g70
g63
NtRp1381
(dp1382
g66
(dp1383
g74
I3
ssg75
Nsg68
(lp1384
g61
(g77
g63
NtRp1385
(dp1386
g66
(dp1387
sg75
g1381
sg68
(lp1388
g61
(g82
g63
NtRp1389
(dp1390
g66
(dp1391
sg75
g1385
sg68
(lp1392
g61
(g62
g63
NtRp1393
(dp1394
g66
(dp1395
g74
I3
ssg75
g1389
sg68
(lp1396
S'2'
asbasbasbag61
(g77
g63
NtRp1397
(dp1398
g66
(dp1399
sg75
g1381
sg68
(lp1400
g61
(g82
g63
NtRp1401
(dp1402
g66
(dp1403
sg75
g1397
sg68
(lp1404
g61
(g62
g63
NtRp1405
(dp1406
g66
(dp1407
g74
I3
ssg75
g1401
sg68
(lp1408
S'0'
asbasbasbag61
(g77
g63
NtRp1409
(dp1410
g66
(dp1411
sg75
g1381
sg68
(lp1412
g61
(g82
g63
NtRp1413
(dp1414
g66
(dp1415
sg75
g1409
sg68
(lp1416
g61
(g62
g63
NtRp1417
(dp1418
g66
(dp1419
g74
I3
ssg75
g1413
sg68
(lp1420
S'9'
asbasbasbag61
(g77
g63
NtRp1421
(dp1422
g66
(dp1423
sg75
g1381
sg68
(lp1424
g61
(g82
g63
NtRp1425
(dp1426
g66
(dp1427
sg75
g1421
sg68
(lp1428
g61
(g62
g63
NtRp1429
(dp1430
g66
(dp1431
g74
I3
ssg75
g1425
sg68
(lp1432
S'datetime.datetime(2012, 9, 13, 23, 51, 30)'
p1433
asbasbasbag61
(g77
g63
NtRp1434
(dp1435
g66
(dp1436
sg75
g1381
sg68
(lp1437
g61
(g82
g63
NtRp1438
(dp1439
g66
(dp1440
sg75
g1434
sg68
(lp1441
g61
(g62
g63
NtRp1442
(dp1443
g66
(dp1444
g74
I3
ssg75
g1438
sg68
(lp1445
S'stable'
p1446
asbasbasbasbasbasbasbag61
(g77
g63
NtRp1447
(dp1448
g66
(dp1449
sg75
g678
sg68
(lp1450
g61
(g82
g63
NtRp1451
(dp1452
g66
(dp1453
g86
g87
ssg75
g1447
sg68
(lp1454
S'wsgi_errors'
p1455
asbag61
(g82
g63
NtRp1456
(dp1457
g66
(dp1458
g93
g94
ssg75
g1447
sg68
(lp1459
S':'
asbag61
(g82
g63
NtRp1460
(dp1461
g66
(dp1462
sg75
g1447
sg68
(lp1463
g61
(g62
g63
NtRp1464
(dp1465
g66
(dp1466
g74
I4
ssg75
g1460
sg68
(lp1467
S"<open file '<stderr>', mode 'w' at 0xb78920d0>"
p1468
asbasbasbag61
(g77
g63
NtRp1469
(dp1470
g66
(dp1471
sg75
g678
sg68
(lp1472
g61
(g82
g63
NtRp1473
(dp1474
g66
(dp1475
g86
g87
ssg75
g1469
sg68
(lp1476
S'wsgi_file_wrapper'
p1477
asbag61
(g82
g63
NtRp1478
(dp1479
g66
(dp1480
g93
g94
ssg75
g1469
sg68
(lp1481
S':'
asbag61
(g82
g63
NtRp1482
(dp1483
g66
(dp1484
sg75
g1469
sg68
(lp1485
g61
(g62
g63
NtRp1486
(dp1487
g66
(dp1488
g74
I4
ssg75
g1482
sg68
(lp1489
S'<class wsgiref.util.FileWrapper at 0x8cd586c>'
p1490
asbasbasbag61
(g77
g63
NtRp1491
(dp1492
g66
(dp1493
sg75
g678
sg68
(lp1494
g61
(g82
g63
NtRp1495
(dp1496
g66
(dp1497
g86
g87
ssg75
g1491
sg68
(lp1498
S'wsgi_input'
p1499
asbag61
(g82
g63
NtRp1500
(dp1501
g66
(dp1502
g93
g94
ssg75
g1491
sg68
(lp1503
S':'
asbag61
(g82
g63
NtRp1504
(dp1505
g66
(dp1506
sg75
g1491
sg68
(lp1507
g61
(g62
g63
NtRp1508
(dp1509
g66
(dp1510
g74
I4
ssg75
g1504
sg68
(lp1511
S'<socket._fileobject object at 0x921a26c>'
p1512
asbasbasbag61
(g77
g63
NtRp1513
(dp1514
g66
(dp1515
sg75
g678
sg68
(lp1516
g61
(g82
g63
NtRp1517
(dp1518
g66
(dp1519
g86
g87
ssg75
g1513
sg68
(lp1520
S'wsgi_multiprocess'
p1521
asbag61
(g82
g63
NtRp1522
(dp1523
g66
(dp1524
g93
g94
ssg75
g1513
sg68
(lp1525
S':'
asbag61
(g82
g63
NtRp1526
(dp1527
g66
(dp1528
sg75
g1513
sg68
(lp1529
g61
(g62
g63
NtRp1530
(dp1531
g66
(dp1532
g74
I4
ssg75
g1526
sg68
(lp1533
g104
asbasbasbag61
(g77
g63
NtRp1534
(dp1535
g66
(dp1536
sg75
g678
sg68
(lp1537
g61
(g82
g63
NtRp1538
(dp1539
g66
(dp1540
g86
g87
ssg75
g1534
sg68
(lp1541
S'wsgi_multithread'
p1542
asbag61
(g82
g63
NtRp1543
(dp1544
g66
(dp1545
g93
g94
ssg75
g1534
sg68
(lp1546
S':'
asbag61
(g82
g63
NtRp1547
(dp1548
g66
(dp1549
sg75
g1534
sg68
(lp1550
g61
(g62
g63
NtRp1551
(dp1552
g66
(dp1553
g74
I4
ssg75
g1547
sg68
(lp1554
S'True'
p1555
asbasbasbag61
(g77
g63
NtRp1556
(dp1557
g66
(dp1558
sg75
g678
sg68
(lp1559
g61
(g82
g63
NtRp1560
(dp1561
g66
(dp1562
g86
g87
ssg75
g1556
sg68
(lp1563
S'wsgi_run_once'
p1564
asbag61
(g82
g63
NtRp1565
(dp1566
g66
(dp1567
g93
g94
ssg75
g1556
sg68
(lp1568
S':'
asbag61
(g82
g63
NtRp1569
(dp1570
g66
(dp1571
sg75
g1556
sg68
(lp1572
g61
(g62
g63
NtRp1573
(dp1574
g66
(dp1575
g74
I4
ssg75
g1569
sg68
(lp1576
g104
asbasbasbag61
(g77
g63
NtRp1577
(dp1578
g66
(dp1579
sg75
g678
sg68
(lp1580
g61
(g82
g63
NtRp1581
(dp1582
g66
(dp1583
g86
g87
ssg75
g1577
sg68
(lp1584
S'wsgi_url_scheme'
p1585
asbag61
(g82
g63
NtRp1586
(dp1587
g66
(dp1588
g93
g94
ssg75
g1577
sg68
(lp1589
S':'
asbag61
(g82
g63
NtRp1590
(dp1591
g66
(dp1592
sg75
g1577
sg68
(lp1593
g61
(g62
g63
NtRp1594
(dp1595
g66
(dp1596
g74
I4
ssg75
g1590
sg68
(lp1597
S'http'
p1598
asbasbasbag61
(g77
g63
NtRp1599
(dp1600
g66
(dp1601
sg75
g678
sg68
(lp1602
g61
(g82
g63
NtRp1603
(dp1604
g66
(dp1605
g86
g87
ssg75
g1599
sg68
(lp1606
S'wsgi_version'
p1607
asbag61
(g82
g63
NtRp1608
(dp1609
g66
(dp1610
g93
g94
ssg75
g1599
sg68
(lp1611
S':'
asbag61
(g82
g63
NtRp1612
(dp1613
g66
(dp1614
sg75
g1599
sg68
(lp1615
g61
(g62
g63
NtRp1616
(dp1617
g66
(dp1618
g74
I4
ssg75
g1612
sg68
(lp1619
g61
(g70
g63
NtRp1620
(dp1621
g66
(dp1622
g74
I3
ssg75
Nsg68
(lp1623
g61
(g77
g63
NtRp1624
(dp1625
g66
(dp1626
sg75
g1620
sg68
(lp1627
g61
(g82
g63
NtRp1628
(dp1629
g66
(dp1630
sg75
g1624
sg68
(lp1631
g61
(g62
g63
NtRp1632
(dp1633
g66
(dp1634
g74
I3
ssg75
g1628
sg68
(lp1635
S'1'
asbasbasbag61
(g77
g63
NtRp1636
(dp1637
g66
(dp1638
sg75
g1620
sg68
(lp1639
g61
(g82
g63
NtRp1640
(dp1641
g66
(dp1642
sg75
g1636
sg68
(lp1643
g61
(g62
g63
NtRp1644
(dp1645
g66
(dp1646
g74
I3
ssg75
g1640
sg68
(lp1647
S'0'
asbasbasbasbasbasbasbasbasbasbasbag61
(g77
g63
NtRp1648
(dp1649
g66
(dp1650
sg75
g71
sg68
(lp1651
g61
(g82
g63
NtRp1652
(dp1653
g66
(dp1654
g86
g87
ssg75
g1648
sg68
(lp1655
S'extension'
p1656
asbag61
(g82
g63
NtRp1657
(dp1658
g66
(dp1659
g93
g94
ssg75
g1648
sg68
(lp1660
S':'
asbag61
(g82
g63
NtRp1661
(dp1662
g66
(dp1663
sg75
g1648
sg68
(lp1664
g61
(g62
g63
NtRp1665
(dp1666
g66
(dp1667
g74
I5
ssg75
g1661
sg68
(lp1668
S'html'
p1669
asbasbasbag61
(g77
g63
NtRp1670
(dp1671
g66
(dp1672
sg75
g71
sg68
(lp1673
g61
(g82
g63
NtRp1674
(dp1675
g66
(dp1676
g86
g87
ssg75
g1670
sg68
(lp1677
S'folder'
p1678
asbag61
(g82
g63
NtRp1679
(dp1680
g66
(dp1681
g93
g94
ssg75
g1670
sg68
(lp1682
S':'
asbag61
(g82
g63
NtRp1683
(dp1684
g66
(dp1685
sg75
g1670
sg68
(lp1686
g61
(g62
g63
NtRp1687
(dp1688
g66
(dp1689
g74
I5
ssg75
g1683
sg68
(lp1690
S'/home/perdomor/web2py/applications/sicoin/'
p1691
asbasbasbag61
(g77
g63
NtRp1692
(dp1693
g66
(dp1694
sg75
g71
sg68
(lp1695
g61
(g82
g63
NtRp1696
(dp1697
g66
(dp1698
g86
g87
ssg75
g1692
sg68
(lp1699
S'function'
p1700
asbag61
(g82
g63
NtRp1701
(dp1702
g66
(dp1703
g93
g94
ssg75
g1692
sg68
(lp1704
S':'
asbag61
(g82
g63
NtRp1705
(dp1706
g66
(dp1707
sg75
g1692
sg68
(lp1708
g61
(g62
g63
NtRp1709
(dp1710
g66
(dp1711
g74
I5
ssg75
g1705
sg68
(lp1712
S'user'
p1713
asbasbasbag61
(g77
g63
NtRp1714
(dp1715
g66
(dp1716
sg75
g71
sg68
(lp1717
g61
(g82
g63
NtRp1718
(dp1719
g66
(dp1720
g86
g87
ssg75
g1714
sg68
(lp1721
S'get_vars'
p1722
asbag61
(g82
g63
NtRp1723
(dp1724
g66
(dp1725
g93
g94
ssg75
g1714
sg68
(lp1726
S':'
asbag61
(g82
g63
NtRp1727
(dp1728
g66
(dp1729
sg75
g1714
sg68
(lp1730
g61
(g62
g63
NtRp1731
(dp1732
g66
(dp1733
g74
I5
ssg75
g1727
sg68
(lp1734
g61
(g70
g63
NtRp1735
(dp1736
g66
(dp1737
g74
I4
ssg75
Nsg68
(lp1738
sbasbasbasbag61
(g77
g63
NtRp1739
(dp1740
g66
(dp1741
sg75
g71
sg68
(lp1742
g61
(g82
g63
NtRp1743
(dp1744
g66
(dp1745
g86
g87
ssg75
g1739
sg68
(lp1746
S'global_settings'
p1747
asbag61
(g82
g63
NtRp1748
(dp1749
g66
(dp1750
g93
g94
ssg75
g1739
sg68
(lp1751
S':'
asbag61
(g82
g63
NtRp1752
(dp1753
g66
(dp1754
sg75
g1739
sg68
(lp1755
g61
(g62
g63
NtRp1756
(dp1757
g66
(dp1758
g74
I5
ssg75
g1752
sg68
(lp1759
g61
(g70
g63
NtRp1760
(dp1761
g66
(dp1762
g74
I4
ssg75
Nsg68
(lp1763
g61
(g77
g63
NtRp1764
(dp1765
g66
(dp1766
sg75
g1760
sg68
(lp1767
g61
(g82
g63
NtRp1768
(dp1769
g66
(dp1770
g86
g87
ssg75
g1764
sg68
(lp1771
g690
asbag61
(g82
g63
NtRp1772
(dp1773
g66
(dp1774
g93
g94
ssg75
g1764
sg68
(lp1775
S':'
asbag61
(g82
g63
NtRp1776
(dp1777
g66
(dp1778
sg75
g1764
sg68
(lp1779
g61
(g62
g63
NtRp1780
(dp1781
g66
(dp1782
g74
I4
ssg75
g1776
sg68
(lp1783
S"set(['/home/perdomor/web2py/applications/sicoin/', '/home/perdomor/web2py/applications/welcome/', '/home/perdomor/web2py/applications/admin/'])"
p1784
asbasbasbag61
(g77
g63
NtRp1785
(dp1786
g66
(dp1787
sg75
g1760
sg68
(lp1788
g61
(g82
g63
NtRp1789
(dp1790
g66
(dp1791
g86
g87
ssg75
g1785
sg68
(lp1792
g712
asbag61
(g82
g63
NtRp1793
(dp1794
g66
(dp1795
g93
g94
ssg75
g1785
sg68
(lp1796
S':'
asbag61
(g82
g63
NtRp1797
(dp1798
g66
(dp1799
sg75
g1785
sg68
(lp1800
g61
(g62
g63
NtRp1801
(dp1802
g66
(dp1803
g74
I4
ssg75
g1797
sg68
(lp1804
g725
asbasbasbag61
(g77
g63
NtRp1805
(dp1806
g66
(dp1807
sg75
g1760
sg68
(lp1808
g61
(g82
g63
NtRp1809
(dp1810
g66
(dp1811
g86
g87
ssg75
g1805
sg68
(lp1812
g734
asbag61
(g82
g63
NtRp1813
(dp1814
g66
(dp1815
g93
g94
ssg75
g1805
sg68
(lp1816
S':'
asbag61
(g82
g63
NtRp1817
(dp1818
g66
(dp1819
sg75
g1805
sg68
(lp1820
g61
(g62
g63
NtRp1821
(dp1822
g66
(dp1823
g74
I4
ssg75
g1817
sg68
(lp1824
g61
(g70
g63
NtRp1825
(dp1826
g66
(dp1827
g74
I3
ssg75
Nsg68
(lp1828
sbasbasbasbag61
(g77
g63
NtRp1829
(dp1830
g66
(dp1831
sg75
g1760
sg68
(lp1832
g61
(g82
g63
NtRp1833
(dp1834
g66
(dp1835
g86
g87
ssg75
g1829
sg68
(lp1836
g759
asbag61
(g82
g63
NtRp1837
(dp1838
g66
(dp1839
g93
g94
ssg75
g1829
sg68
(lp1840
S':'
asbag61
(g82
g63
NtRp1841
(dp1842
g66
(dp1843
sg75
g1829
sg68
(lp1844
g61
(g62
g63
NtRp1845
(dp1846
g66
(dp1847
g74
I4
ssg75
g1841
sg68
(lp1848
S"<Values at 0x8d2186c: {'verbose': False, 'ip': '127.0.0.1', 'with_scheduler': False, 'ips': ['127.0.1.1'], 'shutdown_timeout': 5, 'taskbar': False, 'port': 8000, 'maxthreads': None, 'softcron': False, 'server_name': 'perdomor', 'bpython': False, 'nogui': False, 'nocron': False, 'extcron': False, 'run_system_tests': False, 'test': None, 'folder': '/home/perdomor/web2py', 'config': '', 'import_models': False, 'winservice': '', 'shell': None, 'run': '', 'log_filename': 'httpserver.log', 'debuglevel': 30, 'args': [''], 'socket_timeout': 5, 'ssl_ca_certificate': None, 'scheduler': None, 'profiler_filename': None, 'ssl_private_key': '', 'scheduler_groups': None, 'password': '<ask>', 'request_queue_size': 5, 'ssl_certificate': '', 'cronjob': False, 'numthreads': None, 'quiet': False, 'interfaces': None, 'minthreads': None, 'timeout': 10, 'plain': False, 'nobanner': False, 'pid_filename': 'httpserver.pid'}>"
p1849
asbasbasbag61
(g77
g63
NtRp1850
(dp1851
g66
(dp1852
sg75
g1760
sg68
(lp1853
g61
(g82
g63
NtRp1854
(dp1855
g66
(dp1856
g86
g87
ssg75
g1850
sg68
(lp1857
g781
asbag61
(g82
g63
NtRp1858
(dp1859
g66
(dp1860
g93
g94
ssg75
g1850
sg68
(lp1861
S':'
asbag61
(g82
g63
NtRp1862
(dp1863
g66
(dp1864
sg75
g1850
sg68
(lp1865
g61
(g62
g63
NtRp1866
(dp1867
g66
(dp1868
g74
I4
ssg75
g1862
sg68
(lp1869
S'set([])'
p1870
asbasbasbag61
(g77
g63
NtRp1871
(dp1872
g66
(dp1873
sg75
g1760
sg68
(lp1874
g61
(g82
g63
NtRp1875
(dp1876
g66
(dp1877
g86
g87
ssg75
g1871
sg68
(lp1878
g803
asbag61
(g82
g63
NtRp1879
(dp1880
g66
(dp1881
g93
g94
ssg75
g1871
sg68
(lp1882
S':'
asbag61
(g82
g63
NtRp1883
(dp1884
g66
(dp1885
sg75
g1871
sg68
(lp1886
g61
(g62
g63
NtRp1887
(dp1888
g66
(dp1889
g74
I4
ssg75
g1883
sg68
(lp1890
g104
asbasbasbag61
(g77
g63
NtRp1891
(dp1892
g66
(dp1893
sg75
g1760
sg68
(lp1894
g61
(g82
g63
NtRp1895
(dp1896
g66
(dp1897
g86
g87
ssg75
g1891
sg68
(lp1898
g824
asbag61
(g82
g63
NtRp1899
(dp1900
g66
(dp1901
g93
g94
ssg75
g1891
sg68
(lp1902
S':'
asbag61
(g82
g63
NtRp1903
(dp1904
g66
(dp1905
sg75
g1891
sg68
(lp1906
g61
(g62
g63
NtRp1907
(dp1908
g66
(dp1909
g74
I4
ssg75
g1903
sg68
(lp1910
g837
asbasbasbag61
(g77
g63
NtRp1911
(dp1912
g66
(dp1913
sg75
g1760
sg68
(lp1914
g61
(g82
g63
NtRp1915
(dp1916
g66
(dp1917
g86
g87
ssg75
g1911
sg68
(lp1918
g1043
asbag61
(g82
g63
NtRp1919
(dp1920
g66
(dp1921
g93
g94
ssg75
g1911
sg68
(lp1922
S':'
asbag61
(g82
g63
NtRp1923
(dp1924
g66
(dp1925
sg75
g1911
sg68
(lp1926
g61
(g62
g63
NtRp1927
(dp1928
g66
(dp1929
g74
I4
ssg75
g1923
sg68
(lp1930
g104
asbasbasbag61
(g77
g63
NtRp1931
(dp1932
g66
(dp1933
sg75
g1760
sg68
(lp1934
g61
(g82
g63
NtRp1935
(dp1936
g66
(dp1937
g86
g87
ssg75
g1931
sg68
(lp1938
g1064
asbag61
(g82
g63
NtRp1939
(dp1940
g66
(dp1941
g93
g94
ssg75
g1931
sg68
(lp1942
S':'
asbag61
(g82
g63
NtRp1943
(dp1944
g66
(dp1945
sg75
g1931
sg68
(lp1946
g61
(g62
g63
NtRp1947
(dp1948
g66
(dp1949
g74
I4
ssg75
g1943
sg68
(lp1950
g104
asbasbasbag61
(g77
g63
NtRp1951
(dp1952
g66
(dp1953
sg75
g1760
sg68
(lp1954
g61
(g82
g63
NtRp1955
(dp1956
g66
(dp1957
g86
g87
ssg75
g1951
sg68
(lp1958
g1325
asbag61
(g82
g63
NtRp1959
(dp1960
g66
(dp1961
g93
g94
ssg75
g1951
sg68
(lp1962
S':'
asbag61
(g82
g63
NtRp1963
(dp1964
g66
(dp1965
sg75
g1951
sg68
(lp1966
g61
(g62
g63
NtRp1967
(dp1968
g66
(dp1969
g74
I4
ssg75
g1963
sg68
(lp1970
g1338
asbasbasbag61
(g77
g63
NtRp1971
(dp1972
g66
(dp1973
sg75
g1760
sg68
(lp1974
g61
(g82
g63
NtRp1975
(dp1976
g66
(dp1977
g86
g87
ssg75
g1971
sg68
(lp1978
g1368
asbag61
(g82
g63
NtRp1979
(dp1980
g66
(dp1981
g93
g94
ssg75
g1971
sg68
(lp1982
S':'
asbag61
(g82
g63
NtRp1983
(dp1984
g66
(dp1985
sg75
g1971
sg68
(lp1986
g61
(g62
g63
NtRp1987
(dp1988
g66
(dp1989
g74
I4
ssg75
g1983
sg68
(lp1990
g61
(g70
g63
NtRp1991
(dp1992
g66
(dp1993
g74
I3
ssg75
Nsg68
(lp1994
g61
(g77
g63
NtRp1995
(dp1996
g66
(dp1997
sg75
g1991
sg68
(lp1998
g61
(g82
g63
NtRp1999
(dp2000
g66
(dp2001
sg75
g1995
sg68
(lp2002
g61
(g62
g63
NtRp2003
(dp2004
g66
(dp2005
g74
I3
ssg75
g1999
sg68
(lp2006
S'2'
asbasbasbag61
(g77
g63
NtRp2007
(dp2008
g66
(dp2009
sg75
g1991
sg68
(lp2010
g61
(g82
g63
NtRp2011
(dp2012
g66
(dp2013
sg75
g2007
sg68
(lp2014
g61
(g62
g63
NtRp2015
(dp2016
g66
(dp2017
g74
I3
ssg75
g2011
sg68
(lp2018
S'0'
asbasbasbag61
(g77
g63
NtRp2019
(dp2020
g66
(dp2021
sg75
g1991
sg68
(lp2022
g61
(g82
g63
NtRp2023
(dp2024
g66
(dp2025
sg75
g2019
sg68
(lp2026
g61
(g62
g63
NtRp2027
(dp2028
g66
(dp2029
g74
I3
ssg75
g2023
sg68
(lp2030
S'9'
asbasbasbag61
(g77
g63
NtRp2031
(dp2032
g66
(dp2033
sg75
g1991
sg68
(lp2034
g61
(g82
g63
NtRp2035
(dp2036
g66
(dp2037
sg75
g2031
sg68
(lp2038
g61
(g62
g63
NtRp2039
(dp2040
g66
(dp2041
g74
I3
ssg75
g2035
sg68
(lp2042
S'datetime.datetime(2012, 9, 13, 23, 51, 30)'
p2043
asbasbasbag61
(g77
g63
NtRp2044
(dp2045
g66
(dp2046
sg75
g1991
sg68
(lp2047
g61
(g82
g63
NtRp2048
(dp2049
g66
(dp2050
sg75
g2044
sg68
(lp2051
g61
(g62
g63
NtRp2052
(dp2053
g66
(dp2054
g74
I3
ssg75
g2048
sg68
(lp2055
g1446
asbasbasbasbasbasbasbasbasbasbasbag61
(g77
g63
NtRp2056
(dp2057
g66
(dp2058
sg75
g71
sg68
(lp2059
g61
(g82
g63
NtRp2060
(dp2061
g66
(dp2062
g86
g87
ssg75
g2056
sg68
(lp2063
S'is_https'
p2064
asbag61
(g82
g63
NtRp2065
(dp2066
g66
(dp2067
g93
g94
ssg75
g2056
sg68
(lp2068
S':'
asbag61
(g82
g63
NtRp2069
(dp2070
g66
(dp2071
sg75
g2056
sg68
(lp2072
g61
(g62
g63
NtRp2073
(dp2074
g66
(dp2075
g74
I5
ssg75
g2069
sg68
(lp2076
g104
asbasbasbag61
(g77
g63
NtRp2077
(dp2078
g66
(dp2079
sg75
g71
sg68
(lp2080
g61
(g82
g63
NtRp2081
(dp2082
g66
(dp2083
g86
g87
ssg75
g2077
sg68
(lp2084
S'is_local'
p2085
asbag61
(g82
g63
NtRp2086
(dp2087
g66
(dp2088
g93
g94
ssg75
g2077
sg68
(lp2089
S':'
asbag61
(g82
g63
NtRp2090
(dp2091
g66
(dp2092
sg75
g2077
sg68
(lp2093
g61
(g62
g63
NtRp2094
(dp2095
g66
(dp2096
g74
I5
ssg75
g2090
sg68
(lp2097
g104
asbasbasbag61
(g77
g63
NtRp2098
(dp2099
g66
(dp2100
sg75
g71
sg68
(lp2101
g61
(g82
g63
NtRp2102
(dp2103
g66
(dp2104
g86
g87
ssg75
g2098
sg68
(lp2105
S'is_restful'
p2106
asbag61
(g82
g63
NtRp2107
(dp2108
g66
(dp2109
g93
g94
ssg75
g2098
sg68
(lp2110
S':'
asbag61
(g82
g63
NtRp2111
(dp2112
g66
(dp2113
sg75
g2098
sg68
(lp2114
g61
(g62
g63
NtRp2115
(dp2116
g66
(dp2117
g74
I5
ssg75
g2111
sg68
(lp2118
g104
asbasbasbag61
(g77
g63
NtRp2119
(dp2120
g66
(dp2121
sg75
g71
sg68
(lp2122
g61
(g82
g63
NtRp2123
(dp2124
g66
(dp2125
g86
g87
ssg75
g2119
sg68
(lp2126
S'now'
p2127
asbag61
(g82
g63
NtRp2128
(dp2129
g66
(dp2130
g93
g94
ssg75
g2119
sg68
(lp2131
S':'
asbag61
(g82
g63
NtRp2132
(dp2133
g66
(dp2134
sg75
g2119
sg68
(lp2135
g61
(g62
g63
NtRp2136
(dp2137
g66
(dp2138
g74
I5
ssg75
g2132
sg68
(lp2139
S'datetime.datetime(2012, 10, 16, 15, 43, 52, 208660)'
p2140
asbasbasbag61
(g77
g63
NtRp2141
(dp2142
g66
(dp2143
sg75
g71
sg68
(lp2144
g61
(g82
g63
NtRp2145
(dp2146
g66
(dp2147
g86
g87
ssg75
g2141
sg68
(lp2148
S'post_vars'
p2149
asbag61
(g82
g63
NtRp2150
(dp2151
g66
(dp2152
g93
g94
ssg75
g2141
sg68
(lp2153
S':'
asbag61
(g82
g63
NtRp2154
(dp2155
g66
(dp2156
sg75
g2141
sg68
(lp2157
g61
(g62
g63
NtRp2158
(dp2159
g66
(dp2160
g74
I5
ssg75
g2154
sg68
(lp2161
g61
(g70
g63
NtRp2162
(dp2163
g66
(dp2164
g74
I4
ssg75
Nsg68
(lp2165
sbasbasbasbag61
(g77
g63
NtRp2166
(dp2167
g66
(dp2168
sg75
g71
sg68
(lp2169
g61
(g82
g63
NtRp2170
(dp2171
g66
(dp2172
g86
g87
ssg75
g2166
sg68
(lp2173
S'raw_args'
p2174
asbag61
(g82
g63
NtRp2175
(dp2176
g66
(dp2177
g93
g94
ssg75
g2166
sg68
(lp2178
S':'
asbag61
(g82
g63
NtRp2179
(dp2180
g66
(dp2181
sg75
g2166
sg68
(lp2182
g61
(g62
g63
NtRp2183
(dp2184
g66
(dp2185
g74
I5
ssg75
g2179
sg68
(lp2186
g163
asbasbasbag61
(g77
g63
NtRp2187
(dp2188
g66
(dp2189
sg75
g71
sg68
(lp2190
g61
(g82
g63
NtRp2191
(dp2192
g66
(dp2193
g86
g87
ssg75
g2187
sg68
(lp2194
S'raw_extension'
p2195
asbag61
(g82
g63
NtRp2196
(dp2197
g66
(dp2198
g93
g94
ssg75
g2187
sg68
(lp2199
S':'
asbag61
(g82
g63
NtRp2200
(dp2201
g66
(dp2202
sg75
g2187
sg68
(lp2203
g61
(g62
g63
NtRp2204
(dp2205
g66
(dp2206
g74
I5
ssg75
g2200
sg68
(lp2207
S'None'
p2208
asbasbasbag61
(g77
g63
NtRp2209
(dp2210
g66
(dp2211
sg75
g71
sg68
(lp2212
g61
(g82
g63
NtRp2213
(dp2214
g66
(dp2215
g86
g87
ssg75
g2209
sg68
(lp2216
S'url'
p2217
asbag61
(g82
g63
NtRp2218
(dp2219
g66
(dp2220
g93
g94
ssg75
g2209
sg68
(lp2221
S':'
asbag61
(g82
g63
NtRp2222
(dp2223
g66
(dp2224
sg75
g2209
sg68
(lp2225
g61
(g62
g63
NtRp2226
(dp2227
g66
(dp2228
g74
I5
ssg75
g2222
sg68
(lp2229
g1098
asbasbasbag61
(g77
g63
NtRp2230
(dp2231
g66
(dp2232
sg75
g71
sg68
(lp2233
g61
(g82
g63
NtRp2234
(dp2235
g66
(dp2236
g86
g87
ssg75
g2230
sg68
(lp2237
S'utcnow'
p2238
asbag61
(g82
g63
NtRp2239
(dp2240
g66
(dp2241
g93
g94
ssg75
g2230
sg68
(lp2242
S':'
asbag61
(g82
g63
NtRp2243
(dp2244
g66
(dp2245
sg75
g2230
sg68
(lp2246
g61
(g62
g63
NtRp2247
(dp2248
g66
(dp2249
g74
I5
ssg75
g2243
sg68
(lp2250
S'datetime.datetime(2012, 10, 16, 20, 13, 52, 208693)'
p2251
asbasbasbag61
(g77
g63
NtRp2252
(dp2253
g66
(dp2254
sg75
g71
sg68
(lp2255
g61
(g82
g63
NtRp2256
(dp2257
g66
(dp2258
g86
g87
ssg75
g2252
sg68
(lp2259
S'uuid'
p2260
asbag61
(g82
g63
NtRp2261
(dp2262
g66
(dp2263
g93
g94
ssg75
g2252
sg68
(lp2264
S':'
asbag61
(g82
g63
NtRp2265
(dp2266
g66
(dp2267
sg75
g2252
sg68
(lp2268
g61
(g62
g63
NtRp2269
(dp2270
g66
(dp2271
g74
I5
ssg75
g2265
sg68
(lp2272
S'sicoin/190.169.221.32.2012-10-16.15-43-52.748f5074-ae65-4e8e-a7d0-45938f648be9'
p2273
asbasbasbag61
(g77
g63
NtRp2274
(dp2275
g66
(dp2276
sg75
g71
sg68
(lp2277
g61
(g82
g63
NtRp2278
(dp2279
g66
(dp2280
g86
g87
ssg75
g2274
sg68
(lp2281
S'vars'
p2282
asbag61
(g82
g63
NtRp2283
(dp2284
g66
(dp2285
g93
g94
ssg75
g2274
sg68
(lp2286
S':'
asbag61
(g82
g63
NtRp2287
(dp2288
g66
(dp2289
sg75
g2274
sg68
(lp2290
g61
(g62
g63
NtRp2291
(dp2292
g66
(dp2293
g74
I5
ssg75
g2287
sg68
(lp2294
g61
(g70
g63
NtRp2295
(dp2296
g66
(dp2297
g74
I4
ssg75
Nsg68
(lp2298
sbasbasbasbag61
(g77
g63
NtRp2299
(dp2300
g66
(dp2301
sg75
g71
sg68
(lp2302
g61
(g82
g63
NtRp2303
(dp2304
g66
(dp2305
g86
g87
ssg75
g2299
sg68
(lp2306
S'wsgi'
p2307
asbag61
(g82
g63
NtRp2308
(dp2309
g66
(dp2310
g93
g94
ssg75
g2299
sg68
(lp2311
S':'
asbag61
(g82
g63
NtRp2312
(dp2313
g66
(dp2314
sg75
g2299
sg68
(lp2315
g61
(g62
g63
NtRp2316
(dp2317
g66
(dp2318
g74
I5
ssg75
g2312
sg68
(lp2319
g61
(g70
g63
NtRp2320
(dp2321
g66
(dp2322
g74
I4
ssg75
Nsg68
(lp2323
g61
(g77
g63
NtRp2324
(dp2325
g66
(dp2326
sg75
g2320
sg68
(lp2327
g61
(g82
g63
NtRp2328
(dp2329
g66
(dp2330
g86
g87
ssg75
g2324
sg68
(lp2331
S'environ'
p2332
asbag61
(g82
g63
NtRp2333
(dp2334
g66
(dp2335
g93
g94
ssg75
g2324
sg68
(lp2336
S':'
asbag61
(g82
g63
NtRp2337
(dp2338
g66
(dp2339
sg75
g2324
sg68
(lp2340
g61
(g62
g63
NtRp2341
(dp2342
g66
(dp2343
g74
I4
ssg75
g2337
sg68
(lp2344
g61
(g70
g63
NtRp2345
(dp2346
g66
(dp2347
g74
I3
ssg75
Nsg68
(lp2348
g61
(g77
g63
NtRp2349
(dp2350
g66
(dp2351
sg75
g2345
sg68
(lp2352
g61
(g82
g63
NtRp2353
(dp2354
g66
(dp2355
g86
g87
ssg75
g2349
sg68
(lp2356
S'HTTP_ACCEPT'
p2357
asbag61
(g82
g63
NtRp2358
(dp2359
g66
(dp2360
g93
g94
ssg75
g2349
sg68
(lp2361
S':'
asbag61
(g82
g63
NtRp2362
(dp2363
g66
(dp2364
sg75
g2349
sg68
(lp2365
g61
(g62
g63
NtRp2366
(dp2367
g66
(dp2368
g74
I3
ssg75
g2362
sg68
(lp2369
g859
asbasbasbag61
(g77
g63
NtRp2370
(dp2371
g66
(dp2372
sg75
g2345
sg68
(lp2373
g61
(g82
g63
NtRp2374
(dp2375
g66
(dp2376
g86
g87
ssg75
g2370
sg68
(lp2377
S'HTTP_ACCEPT_ENCODING'
p2378
asbag61
(g82
g63
NtRp2379
(dp2380
g66
(dp2381
g93
g94
ssg75
g2370
sg68
(lp2382
S':'
asbag61
(g82
g63
NtRp2383
(dp2384
g66
(dp2385
sg75
g2370
sg68
(lp2386
g61
(g62
g63
NtRp2387
(dp2388
g66
(dp2389
g74
I3
ssg75
g2383
sg68
(lp2390
g881
asbasbasbag61
(g77
g63
NtRp2391
(dp2392
g66
(dp2393
sg75
g2345
sg68
(lp2394
g61
(g82
g63
NtRp2395
(dp2396
g66
(dp2397
g86
g87
ssg75
g2391
sg68
(lp2398
S'HTTP_ACCEPT_LANGUAGE'
p2399
asbag61
(g82
g63
NtRp2400
(dp2401
g66
(dp2402
g93
g94
ssg75
g2391
sg68
(lp2403
S':'
asbag61
(g82
g63
NtRp2404
(dp2405
g66
(dp2406
sg75
g2391
sg68
(lp2407
g61
(g62
g63
NtRp2408
(dp2409
g66
(dp2410
g74
I3
ssg75
g2404
sg68
(lp2411
g903
asbasbasbag61
(g77
g63
NtRp2412
(dp2413
g66
(dp2414
sg75
g2345
sg68
(lp2415
g61
(g82
g63
NtRp2416
(dp2417
g66
(dp2418
g86
g87
ssg75
g2412
sg68
(lp2419
S'HTTP_CONNECTION'
p2420
asbag61
(g82
g63
NtRp2421
(dp2422
g66
(dp2423
g93
g94
ssg75
g2412
sg68
(lp2424
S':'
asbag61
(g82
g63
NtRp2425
(dp2426
g66
(dp2427
sg75
g2412
sg68
(lp2428
g61
(g62
g63
NtRp2429
(dp2430
g66
(dp2431
g74
I3
ssg75
g2425
sg68
(lp2432
g925
asbasbasbag61
(g77
g63
NtRp2433
(dp2434
g66
(dp2435
sg75
g2345
sg68
(lp2436
g61
(g82
g63
NtRp2437
(dp2438
g66
(dp2439
g86
g87
ssg75
g2433
sg68
(lp2440
S'HTTP_COOKIE'
p2441
asbag61
(g82
g63
NtRp2442
(dp2443
g66
(dp2444
g93
g94
ssg75
g2433
sg68
(lp2445
S':'
asbag61
(g82
g63
NtRp2446
(dp2447
g66
(dp2448
sg75
g2433
sg68
(lp2449
g61
(g62
g63
NtRp2450
(dp2451
g66
(dp2452
g74
I3
ssg75
g2446
sg68
(lp2453
g947
asbasbasbag61
(g77
g63
NtRp2454
(dp2455
g66
(dp2456
sg75
g2345
sg68
(lp2457
g61
(g82
g63
NtRp2458
(dp2459
g66
(dp2460
g86
g87
ssg75
g2454
sg68
(lp2461
S'HTTP_DNT'
p2462
asbag61
(g82
g63
NtRp2463
(dp2464
g66
(dp2465
g93
g94
ssg75
g2454
sg68
(lp2466
S':'
asbag61
(g82
g63
NtRp2467
(dp2468
g66
(dp2469
sg75
g2454
sg68
(lp2470
g61
(g62
g63
NtRp2471
(dp2472
g66
(dp2473
g74
I3
ssg75
g2467
sg68
(lp2474
S'1'
asbasbasbag61
(g77
g63
NtRp2475
(dp2476
g66
(dp2477
sg75
g2345
sg68
(lp2478
g61
(g82
g63
NtRp2479
(dp2480
g66
(dp2481
g86
g87
ssg75
g2475
sg68
(lp2482
S'HTTP_HOST'
p2483
asbag61
(g82
g63
NtRp2484
(dp2485
g66
(dp2486
g93
g94
ssg75
g2475
sg68
(lp2487
S':'
asbag61
(g82
g63
NtRp2488
(dp2489
g66
(dp2490
sg75
g2475
sg68
(lp2491
g61
(g62
g63
NtRp2492
(dp2493
g66
(dp2494
g74
I3
ssg75
g2488
sg68
(lp2495
g990
asbasbasbag61
(g77
g63
NtRp2496
(dp2497
g66
(dp2498
sg75
g2345
sg68
(lp2499
g61
(g82
g63
NtRp2500
(dp2501
g66
(dp2502
g86
g87
ssg75
g2496
sg68
(lp2503
S'HTTP_REFERER'
p2504
asbag61
(g82
g63
NtRp2505
(dp2506
g66
(dp2507
g93
g94
ssg75
g2496
sg68
(lp2508
S':'
asbag61
(g82
g63
NtRp2509
(dp2510
g66
(dp2511
sg75
g2496
sg68
(lp2512
g61
(g62
g63
NtRp2513
(dp2514
g66
(dp2515
g74
I3
ssg75
g2509
sg68
(lp2516
g1012
asbasbasbag61
(g77
g63
NtRp2517
(dp2518
g66
(dp2519
sg75
g2345
sg68
(lp2520
g61
(g82
g63
NtRp2521
(dp2522
g66
(dp2523
g86
g87
ssg75
g2517
sg68
(lp2524
S'HTTP_USER_AGENT'
p2525
asbag61
(g82
g63
NtRp2526
(dp2527
g66
(dp2528
g93
g94
ssg75
g2517
sg68
(lp2529
S':'
asbag61
(g82
g63
NtRp2530
(dp2531
g66
(dp2532
sg75
g2517
sg68
(lp2533
g61
(g62
g63
NtRp2534
(dp2535
g66
(dp2536
g74
I3
ssg75
g2530
sg68
(lp2537
g1034
asbasbasbag61
(g77
g63
NtRp2538
(dp2539
g66
(dp2540
sg75
g2345
sg68
(lp2541
g61
(g82
g63
NtRp2542
(dp2543
g66
(dp2544
g86
g87
ssg75
g2538
sg68
(lp2545
S'PATH_INFO'
p2546
asbag61
(g82
g63
NtRp2547
(dp2548
g66
(dp2549
g93
g94
ssg75
g2538
sg68
(lp2550
S':'
asbag61
(g82
g63
NtRp2551
(dp2552
g66
(dp2553
sg75
g2538
sg68
(lp2554
g61
(g62
g63
NtRp2555
(dp2556
g66
(dp2557
g74
I3
ssg75
g2551
sg68
(lp2558
g1098
asbasbasbag61
(g77
g63
NtRp2559
(dp2560
g66
(dp2561
sg75
g2345
sg68
(lp2562
g61
(g82
g63
NtRp2563
(dp2564
g66
(dp2565
g86
g87
ssg75
g2559
sg68
(lp2566
S'QUERY_STRING'
p2567
asbag61
(g82
g63
NtRp2568
(dp2569
g66
(dp2570
g93
g94
ssg75
g2559
sg68
(lp2571
S':'
asbag61
(g82
g63
NtRp2572
(dp2573
g66
(dp2574
sg75
g2559
sg68
(lp2575
g61
(g62
g63
NtRp2576
(dp2577
g66
(dp2578
g74
I3
ssg75
g2572
sg68
(lp2579
g1120
asbasbasbag61
(g77
g63
NtRp2580
(dp2581
g66
(dp2582
sg75
g2345
sg68
(lp2583
g61
(g82
g63
NtRp2584
(dp2585
g66
(dp2586
g86
g87
ssg75
g2580
sg68
(lp2587
S'REMOTE_ADDR'
p2588
asbag61
(g82
g63
NtRp2589
(dp2590
g66
(dp2591
g93
g94
ssg75
g2580
sg68
(lp2592
S':'
asbag61
(g82
g63
NtRp2593
(dp2594
g66
(dp2595
sg75
g2580
sg68
(lp2596
g61
(g62
g63
NtRp2597
(dp2598
g66
(dp2599
g74
I3
ssg75
g2593
sg68
(lp2600
g229
asbasbasbag61
(g77
g63
NtRp2601
(dp2602
g66
(dp2603
sg75
g2345
sg68
(lp2604
g61
(g82
g63
NtRp2605
(dp2606
g66
(dp2607
g86
g87
ssg75
g2601
sg68
(lp2608
S'REMOTE_PORT'
p2609
asbag61
(g82
g63
NtRp2610
(dp2611
g66
(dp2612
g93
g94
ssg75
g2601
sg68
(lp2613
S':'
asbag61
(g82
g63
NtRp2614
(dp2615
g66
(dp2616
sg75
g2601
sg68
(lp2617
g61
(g62
g63
NtRp2618
(dp2619
g66
(dp2620
g74
I3
ssg75
g2614
sg68
(lp2621
g1163
asbasbasbag61
(g77
g63
NtRp2622
(dp2623
g66
(dp2624
sg75
g2345
sg68
(lp2625
g61
(g82
g63
NtRp2626
(dp2627
g66
(dp2628
g86
g87
ssg75
g2622
sg68
(lp2629
S'REQUEST_METHOD'
p2630
asbag61
(g82
g63
NtRp2631
(dp2632
g66
(dp2633
g93
g94
ssg75
g2622
sg68
(lp2634
S':'
asbag61
(g82
g63
NtRp2635
(dp2636
g66
(dp2637
sg75
g2622
sg68
(lp2638
g61
(g62
g63
NtRp2639
(dp2640
g66
(dp2641
g74
I3
ssg75
g2635
sg68
(lp2642
g1185
asbasbasbag61
(g77
g63
NtRp2643
(dp2644
g66
(dp2645
sg75
g2345
sg68
(lp2646
g61
(g82
g63
NtRp2647
(dp2648
g66
(dp2649
g86
g87
ssg75
g2643
sg68
(lp2650
S'REQUEST_URI'
p2651
asbag61
(g82
g63
NtRp2652
(dp2653
g66
(dp2654
g93
g94
ssg75
g2643
sg68
(lp2655
S':'
asbag61
(g82
g63
NtRp2656
(dp2657
g66
(dp2658
sg75
g2643
sg68
(lp2659
g61
(g62
g63
NtRp2660
(dp2661
g66
(dp2662
g74
I3
ssg75
g2656
sg68
(lp2663
g1207
asbasbasbag61
(g77
g63
NtRp2664
(dp2665
g66
(dp2666
sg75
g2345
sg68
(lp2667
g61
(g82
g63
NtRp2668
(dp2669
g66
(dp2670
g86
g87
ssg75
g2664
sg68
(lp2671
S'SCRIPT_NAME'
p2672
asbag61
(g82
g63
NtRp2673
(dp2674
g66
(dp2675
g93
g94
ssg75
g2664
sg68
(lp2676
S':'
asbag61
(g82
g63
NtRp2677
(dp2678
g66
(dp2679
sg75
g2664
sg68
(lp2680
g61
(g62
g63
NtRp2681
(dp2682
g66
(dp2683
g74
I3
ssg75
g2677
sg68
(lp2684
S''
asbasbasbag61
(g77
g63
NtRp2685
(dp2686
g66
(dp2687
sg75
g2345
sg68
(lp2688
g61
(g82
g63
NtRp2689
(dp2690
g66
(dp2691
g86
g87
ssg75
g2685
sg68
(lp2692
S'SERVER_NAME'
p2693
asbag61
(g82
g63
NtRp2694
(dp2695
g66
(dp2696
g93
g94
ssg75
g2685
sg68
(lp2697
S':'
asbag61
(g82
g63
NtRp2698
(dp2699
g66
(dp2700
sg75
g2685
sg68
(lp2701
g61
(g62
g63
NtRp2702
(dp2703
g66
(dp2704
g74
I3
ssg75
g2698
sg68
(lp2705
g1250
asbasbasbag61
(g77
g63
NtRp2706
(dp2707
g66
(dp2708
sg75
g2345
sg68
(lp2709
g61
(g82
g63
NtRp2710
(dp2711
g66
(dp2712
g86
g87
ssg75
g2706
sg68
(lp2713
S'SERVER_PORT'
p2714
asbag61
(g82
g63
NtRp2715
(dp2716
g66
(dp2717
g93
g94
ssg75
g2706
sg68
(lp2718
S':'
asbag61
(g82
g63
NtRp2719
(dp2720
g66
(dp2721
sg75
g2706
sg68
(lp2722
g61
(g62
g63
NtRp2723
(dp2724
g66
(dp2725
g74
I3
ssg75
g2719
sg68
(lp2726
g1272
asbasbasbag61
(g77
g63
NtRp2727
(dp2728
g66
(dp2729
sg75
g2345
sg68
(lp2730
g61
(g82
g63
NtRp2731
(dp2732
g66
(dp2733
g86
g87
ssg75
g2727
sg68
(lp2734
S'SERVER_PROTOCOL'
p2735
asbag61
(g82
g63
NtRp2736
(dp2737
g66
(dp2738
g93
g94
ssg75
g2727
sg68
(lp2739
S':'
asbag61
(g82
g63
NtRp2740
(dp2741
g66
(dp2742
sg75
g2727
sg68
(lp2743
g61
(g62
g63
NtRp2744
(dp2745
g66
(dp2746
g74
I3
ssg75
g2740
sg68
(lp2747
g1294
asbasbasbag61
(g77
g63
NtRp2748
(dp2749
g66
(dp2750
sg75
g2345
sg68
(lp2751
g61
(g82
g63
NtRp2752
(dp2753
g66
(dp2754
g86
g87
ssg75
g2748
sg68
(lp2755
S'SERVER_SOFTWARE'
p2756
asbag61
(g82
g63
NtRp2757
(dp2758
g66
(dp2759
g93
g94
ssg75
g2748
sg68
(lp2760
S':'
asbag61
(g82
g63
NtRp2761
(dp2762
g66
(dp2763
sg75
g2748
sg68
(lp2764
g61
(g62
g63
NtRp2765
(dp2766
g66
(dp2767
g74
I3
ssg75
g2761
sg68
(lp2768
g1316
asbasbasbag61
(g77
g63
NtRp2769
(dp2770
g66
(dp2771
sg75
g2345
sg68
(lp2772
g61
(g82
g63
NtRp2773
(dp2774
g66
(dp2775
g86
g87
ssg75
g2769
sg68
(lp2776
S'wsgi.errors'
p2777
asbag61
(g82
g63
NtRp2778
(dp2779
g66
(dp2780
g93
g94
ssg75
g2769
sg68
(lp2781
S':'
asbag61
(g82
g63
NtRp2782
(dp2783
g66
(dp2784
sg75
g2769
sg68
(lp2785
g61
(g62
g63
NtRp2786
(dp2787
g66
(dp2788
g74
I3
ssg75
g2782
sg68
(lp2789
S"<open file '<stderr>', mode 'w' at 0xb78920d0>"
p2790
asbasbasbag61
(g77
g63
NtRp2791
(dp2792
g66
(dp2793
sg75
g2345
sg68
(lp2794
g61
(g82
g63
NtRp2795
(dp2796
g66
(dp2797
g86
g87
ssg75
g2791
sg68
(lp2798
S'wsgi.file_wrapper'
p2799
asbag61
(g82
g63
NtRp2800
(dp2801
g66
(dp2802
g93
g94
ssg75
g2791
sg68
(lp2803
S':'
asbag61
(g82
g63
NtRp2804
(dp2805
g66
(dp2806
sg75
g2791
sg68
(lp2807
g61
(g62
g63
NtRp2808
(dp2809
g66
(dp2810
g74
I3
ssg75
g2804
sg68
(lp2811
S'<class wsgiref.util.FileWrapper at 0x8cd586c>'
p2812
asbasbasbag61
(g77
g63
NtRp2813
(dp2814
g66
(dp2815
sg75
g2345
sg68
(lp2816
g61
(g82
g63
NtRp2817
(dp2818
g66
(dp2819
g86
g87
ssg75
g2813
sg68
(lp2820
S'wsgi.input'
p2821
asbag61
(g82
g63
NtRp2822
(dp2823
g66
(dp2824
g93
g94
ssg75
g2813
sg68
(lp2825
S':'
asbag61
(g82
g63
NtRp2826
(dp2827
g66
(dp2828
sg75
g2813
sg68
(lp2829
g61
(g62
g63
NtRp2830
(dp2831
g66
(dp2832
g74
I3
ssg75
g2826
sg68
(lp2833
S'<cStringIO.StringO object at 0xa12de60>'
p2834
asbasbasbag61
(g77
g63
NtRp2835
(dp2836
g66
(dp2837
sg75
g2345
sg68
(lp2838
g61
(g82
g63
NtRp2839
(dp2840
g66
(dp2841
g86
g87
ssg75
g2835
sg68
(lp2842
S'wsgi.multiprocess'
p2843
asbag61
(g82
g63
NtRp2844
(dp2845
g66
(dp2846
g93
g94
ssg75
g2835
sg68
(lp2847
S':'
asbag61
(g82
g63
NtRp2848
(dp2849
g66
(dp2850
sg75
g2835
sg68
(lp2851
g61
(g62
g63
NtRp2852
(dp2853
g66
(dp2854
g74
I3
ssg75
g2848
sg68
(lp2855
g104
asbasbasbag61
(g77
g63
NtRp2856
(dp2857
g66
(dp2858
sg75
g2345
sg68
(lp2859
g61
(g82
g63
NtRp2860
(dp2861
g66
(dp2862
g86
g87
ssg75
g2856
sg68
(lp2863
S'wsgi.multithread'
p2864
asbag61
(g82
g63
NtRp2865
(dp2866
g66
(dp2867
g93
g94
ssg75
g2856
sg68
(lp2868
S':'
asbag61
(g82
g63
NtRp2869
(dp2870
g66
(dp2871
sg75
g2856
sg68
(lp2872
g61
(g62
g63
NtRp2873
(dp2874
g66
(dp2875
g74
I3
ssg75
g2869
sg68
(lp2876
g1555
asbasbasbag61
(g77
g63
NtRp2877
(dp2878
g66
(dp2879
sg75
g2345
sg68
(lp2880
g61
(g82
g63
NtRp2881
(dp2882
g66
(dp2883
g86
g87
ssg75
g2877
sg68
(lp2884
S'wsgi.run_once'
p2885
asbag61
(g82
g63
NtRp2886
(dp2887
g66
(dp2888
g93
g94
ssg75
g2877
sg68
(lp2889
S':'
asbag61
(g82
g63
NtRp2890
(dp2891
g66
(dp2892
sg75
g2877
sg68
(lp2893
g61
(g62
g63
NtRp2894
(dp2895
g66
(dp2896
g74
I3
ssg75
g2890
sg68
(lp2897
g104
asbasbasbag61
(g77
g63
NtRp2898
(dp2899
g66
(dp2900
sg75
g2345
sg68
(lp2901
g61
(g82
g63
NtRp2902
(dp2903
g66
(dp2904
g86
g87
ssg75
g2898
sg68
(lp2905
S'wsgi.url_scheme'
p2906
asbag61
(g82
g63
NtRp2907
(dp2908
g66
(dp2909
g93
g94
ssg75
g2898
sg68
(lp2910
S':'
asbag61
(g82
g63
NtRp2911
(dp2912
g66
(dp2913
sg75
g2898
sg68
(lp2914
g61
(g62
g63
NtRp2915
(dp2916
g66
(dp2917
g74
I3
ssg75
g2911
sg68
(lp2918
g1598
asbasbasbag61
(g77
g63
NtRp2919
(dp2920
g66
(dp2921
sg75
g2345
sg68
(lp2922
g61
(g82
g63
NtRp2923
(dp2924
g66
(dp2925
g86
g87
ssg75
g2919
sg68
(lp2926
S'wsgi.version'
p2927
asbag61
(g82
g63
NtRp2928
(dp2929
g66
(dp2930
g93
g94
ssg75
g2919
sg68
(lp2931
S':'
asbag61
(g82
g63
NtRp2932
(dp2933
g66
(dp2934
sg75
g2919
sg68
(lp2935
g61
(g62
g63
NtRp2936
(dp2937
g66
(dp2938
g74
I3
ssg75
g2932
sg68
(lp2939
S'1'
asbasbasbasbasbasbasbasbasbasbasbasbasbsS'frames'
p2940
(lp2941
(dp2942
S'file'
p2943
S'/home/perdomor/web2py/gluon/restricted.py'
p2944
sS'dump'
p2945
(dp2946
S'environment'
p2947
S"{'A': <class 'gluon.html.A'>, 'Auth': <class 'gluon.tools.Auth'>, 'B': <class 'gluon.html.B'>, 'BEAUTIFY': <class 'gluon.html.BEAUTIFY'>, 'BODY': <class 'gluon.html.BODY'>, 'BR': <class 'gluon.html.BR'>, 'BUTTON': <class 'gluon.html.BUTTON'>, 'CAT': <class 'gluon.html.CAT'>, 'CENTER': <class 'gluon.html.CENTER'>, 'CLEANUP': <class 'gluon.validators.CLEANUP'>, ...}"
p2948
sS'ccode'
p2949
S'<code object <module> at 0x9f8f578, file "/home/...lications/sicoin/controllers/default.py", line 3>'
p2950
ssS'lnum'
p2951
I209
sS'lines'
p2952
(dp2953
I204
S'    try:'
p2954
sI205
S'        if type(code) == types.CodeType:'
p2955
sI206
S'            ccode = code'
p2956
sI207
S'        else:'
p2957
sI208
S'            ccode = compile2(code,layer)'
p2958
sI209
S'        exec ccode in environment'
p2959
sI210
S'    except HTTP:'
p2960
sI211
S'        raise'
p2961
sI212
S'    except RestrictedError:'
p2962
sI213
S'        # do not encapsulate (obfuscate) the original RestrictedError'
p2963
ssS'call'
p2964
S"(code='# -*- coding: utf-8 -*-\\n### required - do no del...rn dict()\\n\\nresponse._vars=response._caller(user)\\n', environment={'A': <class 'gluon.html.A'>, 'Auth': <class 'gluon.tools.Auth'>, 'B': <class 'gluon.html.B'>, 'BEAUTIFY': <class 'gluon.html.BEAUTIFY'>, 'BODY': <class 'gluon.html.BODY'>, 'BR': <class 'gluon.html.BR'>, 'BUTTON': <class 'gluon.html.BUTTON'>, 'CAT': <class 'gluon.html.CAT'>, 'CENTER': <class 'gluon.html.CENTER'>, 'CLEANUP': <class 'gluon.validators.CLEANUP'>, ...}, layer='/home/perdomor/web2py/applications/sicoin/controllers/default.py')"
p2965
sS'func'
p2966
S'restricted'
p2967
sa(dp2968
g2943
S'/home/perdomor/web2py/applications/sicoin/controllers/default.py'
p2969
sg2945
(dp2970
sg2951
I14
sg2952
(dp2971
I3
S"T.force('es')"
p2972
sI4
S'def user(): return dict(form=auth())'
p2973
sI5
S'def download(): return response.download(request,db)'
p2974
sI6
S'def call(): return service()'
p2975
sI7
S'### end requires'
p2976
sI8
S'def index():'
p2977
sI9
S'    return dict()'
p2978
sI10
S''
sI11
S'def error():'
p2979
sI12
S'    return dict()'
p2980
ssg2964
S'()'
p2981
sg2966
S'<module>'
p2982
sa(dp2983
g2943
S'/home/perdomor/web2py/gluon/globals.py'
p2984
sg2945
(dp2985
S'self'
p2986
S'undefined'
p2987
sS'f'
S'<function user>'
p2988
ssg2951
I186
sg2952
(dp2989
I181
S'        self.menu = []             # used by the default view layout'
p2990
sI182
S'        self.files = []            # used by web2py_ajax.html'
p2991
sI183
S'        self.generic_patterns = [] # patterns to allow generic views'
p2992
sI184
S"        self.delimiters = ('{{','}}')"
p2993
sI185
S'        self._vars = None'
p2994
sI186
S'        self._caller = lambda f: f()'
p2995
sI187
S'        self._view_environment = None'
p2996
sI188
S'        self._custom_commit = None'
p2997
sI189
S'        self._custom_rollback = None'
p2998
sI190
S''
ssg2964
S'(f=<function user>)'
p2999
sg2966
S'<lambda>'
p3000
sa(dp3001
g2943
S'/home/perdomor/web2py/applications/sicoin/controllers/default.py'
p3002
sg2945
(dp3003
S'global auth'
p3004
S'<gluon.tools.Auth object>'
p3005
sS'form'
p3006
g2987
sS'global user'
p3007
S'<function user>'
p3008
sS'builtindict'
p3009
S"<type 'dict'>"
p3010
ssg2951
I4
sg2952
(dp3011
I2
S'### required - do no delete'
p3012
sI3
S"T.force('es')"
p3013
sI4
S'def user(): return dict(form=auth())'
p3014
sI5
S'def download(): return response.download(request,db)'
p3015
sI6
S'def call(): return service()'
p3016
sI7
S'### end requires'
p3017
sI8
S'def index():'
p3018
sI9
S'    return dict()'
p3019
sI10
S''
sI11
S'def error():'
p3020
ssg2964
S'()'
p3021
sg2966
S'user'
p3022
sa(dp3023
g2943
S'/home/perdomor/web2py/gluon/tools.py'
p3024
sg2945
(dp3025
S'self'
p3026
S'<gluon.tools.Auth object>'
p3027
sS'args'
p3028
S"['logout']"
p3029
sS'builtingetattr'
p3030
S'<built-in function getattr>'
p3031
ssg2951
I1194
sg2952
(dp3032
I1189
S"        if args[0] in ('login','logout','register','verify_email',"
p3033
sI1190
S"                       'retrieve_username','retrieve_password',"
p3034
sI1191
S"                       'reset_password','request_reset_password',"
p3035
sI1192
S"                       'change_password','profile','groups',"
p3036
sI1193
S"                       'impersonate','not_authorized'):"
p3037
sI1194
S'            return getattr(self,args[0])()'
p3038
sI1195
S"        elif args[0]=='cas' and not self.settings.cas_provider:"
p3039
sI1196
S"            if args(1) == self.settings.cas_actions['login']:"
p3040
sI1197
S'                return self.cas_login(version=2)'
p3041
sI1198
S"            elif args(1) == self.settings.cas_actions['validate']:"
p3042
ssg2964
S'(self=<gluon.tools.Auth object>)'
p3043
sg2966
S'__call__'
p3044
sa(dp3045
g2943
S'/home/perdomor/web2py/gluon/tools.py'
p3046
sg2945
(dp3047
S'self'
p3048
S'<gluon.tools.Auth object>'
p3049
sS'self.user'
p3050
S"<Row {'first_name': 'Tania', 'last_name': 'Qui\\x...2b8a252bf74cc', 'registration_key': '', 'id': 6}>"
p3051
sS'self.log_event'
p3052
S'<bound method Auth.log_event of <gluon.tools.Auth object>>'
p3053
sS'log'
p3054
S"'Usuario %(id)s ha finalizado sesi\\xc3\\xb3n'"
p3055
ssg2951
I2050
sg2952
(dp3056
I2048
S'            log = self.messages.logout_log'
p3057
sI2049
S'        if self.user:'
p3058
sI2050
S'            self.log_event(log, self.user)'
p3059
sI2051
S'        if self.settings.login_form != self:'
p3060
sI2052
S'            cas = self.settings.login_form'
p3061
sI2053
S'            cas_user = cas.get_user()'
p3062
sI2054
S'            if cas_user:'
p3063
sI2045
S'        if onlogout:'
p3064
sI2046
S'            onlogout(self.user)'
p3065
sI2047
S'        if log is DEFAULT:'
p3066
ssg2964
S"(self=<gluon.tools.Auth object>, next='/sicoin/default/index', onlogout=None, log='Usuario %(id)s ha finalizado sesi\\xc3\\xb3n')"
p3067
sg2966
S'logout'
p3068
sa(dp3069
g2943
S'/home/perdomor/web2py/gluon/tools.py'
p3070
sg2945
(dp3071
S'origin'
p3072
S"'auth'"
p3073
sS'user_id'
p3074
S'6'
ssg2951
I1635
sg2952
(dp3075
I1632
S'        vars = vars or {}'
p3076
sI1633
S'        self.table_event().insert('
p3077
sI1634
S'            description=description % vars,'
p3078
sI1635
S'            origin=origin, user_id=user_id)'
p3079
sI1636
S''
sI1637
S"    def get_or_create_user(self, keys, update_fields=['email']):"
p3080
sI1638
S'        """'
p3081
sI1639
S'        Used for alternate login methods:'
p3082
sI1630
S'        else:'
p3083
sI1631
S'            user_id = None  # user unknown'
p3084
ssg2964
S"(self=<gluon.tools.Auth object>, description='Usuario %(id)s ha finalizado sesi\\xc3\\xb3n', vars=<Row {'first_name': 'Tania', 'last_name': 'Qui\\x...2b8a252bf74cc', 'registration_key': '', 'id': 6}>, origin='auth')"
p3085
sg2966
S'log_event'
p3086
sa(dp3087
g2943
S'/home/perdomor/web2py/gluon/dal.py'
p3088
sg2945
(dp3089
S'self._listify'
p3090
S'<bound method Table._listify of <Table auth_even...ime_stamp,client_ip,user_id,origin,description)>>'
p3091
sS'fields'
p3092
S"{'client_ip': '190.169.221.32', 'description': 'Usuario 6 ha finalizado sesi\\xc3\\xb3n', 'origin': 'auth', 'time_stamp': datetime.datetime(2012, 10, 16, 15, 43, 52, 208660), 'user_id': 6}"
p3093
sS'self'
p3094
S'<Table auth_event (id,time_stamp,client_ip,user_id,origin,description)>'
p3095
sS'ret'
p3096
g2987
sS'self._db._adapter'
p3097
S'<gluon.dal.MySQLAdapter object>'
p3098
sS'self._db._adapter.insert'
p3099
S'<bound method MySQLAdapter.insert of <gluon.dal.MySQLAdapter object>>'
p3100
sS'self._db'
p3101
S'<DAL mysql://root:12345@localhost/db_sicoin>'
p3102
ssg2951
I7793
sg2952
(dp3103
I7788
S'        return self._db._adapter._insert(self,self._listify(fields))'
p3104
sI7789
S''
sI7790
S'    def insert(self, **fields):'
p3105
sI7791
S'        self._attempt_upload(fields)'
p3106
sI7792
S'        if any(f(fields) for f in self._before_insert): return 0'
p3107
sI7793
S'        ret =  self._db._adapter.insert(self,self._listify(fields))'
p3108
sI7794
S'        if ret and self._after_insert:'
p3109
sI7795
S'            fields = Row(fields)'
p3110
sI7796
S'            [f(fields,ret) for f in self._after_insert]'
p3111
sI7797
S'        return ret'
p3112
ssg2964
S"(self=<Table auth_event (id,time_stamp,client_ip,user_id,origin,description)>, **fields={'client_ip': '190.169.221.32', 'description': 'Usuario 6 ha finalizado sesi\\xc3\\xb3n', 'origin': 'auth', 'time_stamp': datetime.datetime(2012, 10, 16, 15, 43, 52, 208660), 'user_id': 6})"
p3113
sg2966
S'insert'
p3114
sa(dp3115
g2943
S'/home/perdomor/web2py/gluon/dal.py'
p3116
sg2945
(dp3117
S'e'
S"IntegrityError(1452, u'Cannot add or update a ch...EFERENCES `auth_user` (`id`) ON DELETE CASCADE)')"
p3118
ssg2951
I1142
sg2952
(dp3119
I1137
S'        try:'
p3120
sI1138
S'            self.execute(query)'
p3121
sI1139
S'        except Exception, e:'
p3122
sI1140
S'            if isinstance(e,self.integrity_error_class()):'
p3123
sI1141
S'                return None'
p3124
sI1142
S'            raise e'
p3125
sI1143
S"        if hasattr(table,'_primarykey'):"
p3126
sI1144
S'            return dict([(k[0].name, k[1]) for k in fields \\'
p3127
sI1145
S'                             if k[0].name in table._primarykey])'
p3128
sI1146
S'        id = self.lastrowid(table)'
p3129
ssg2964
S"(self=<gluon.dal.MySQLAdapter object>, table=<Table auth_event (id,time_stamp,client_ip,user_id,origin,description)>, fields=[(<gluon.dal.Field object>, 'auth'), (<gluon.dal.Field object>, datetime.datetime(2012, 10, 16, 15, 43, 52, 208660)), (<gluon.dal.Field object>, '190.169.221.32'), (<gluon.dal.Field object>, 6), (<gluon.dal.Field object>, 'Usuario 6 ha finalizado sesi\\xc3\\xb3n')])"
p3130
sg2966
g3114
sasS'pyver'
p3131
S'Python 2.7.2+: /usr/bin/python'
p3132
sS'session'
p3133
g61
(g62
g63
NtRp3134
(dp3135
g66
(dp3136
sg68
(lp3137
g61
(g70
g63
NtRp3138
(dp3139
g66
(dp3140
g74
I5
ssg75
Nsg68
(lp3141
g61
(g77
g63
NtRp3142
(dp3143
g66
(dp3144
sg75
g3138
sg68
(lp3145
g61
(g82
g63
NtRp3146
(dp3147
g66
(dp3148
g86
g87
ssg75
g3142
sg68
(lp3149
S'auth'
p3150
asbag61
(g82
g63
NtRp3151
(dp3152
g66
(dp3153
g93
g94
ssg75
g3142
sg68
(lp3154
S':'
asbag61
(g82
g63
NtRp3155
(dp3156
g66
(dp3157
sg75
g3142
sg68
(lp3158
g61
(g62
g63
NtRp3159
(dp3160
g66
(dp3161
g74
I5
ssg75
g3155
sg68
(lp3162
g61
(g70
g63
NtRp3163
(dp3164
g66
(dp3165
g74
I4
ssg75
Nsg68
(lp3166
g61
(g77
g63
NtRp3167
(dp3168
g66
(dp3169
sg75
g3163
sg68
(lp3170
g61
(g82
g63
NtRp3171
(dp3172
g66
(dp3173
g86
g87
ssg75
g3167
sg68
(lp3174
S'expiration'
p3175
asbag61
(g82
g63
NtRp3176
(dp3177
g66
(dp3178
g93
g94
ssg75
g3167
sg68
(lp3179
S':'
asbag61
(g82
g63
NtRp3180
(dp3181
g66
(dp3182
sg75
g3167
sg68
(lp3183
g61
(g62
g63
NtRp3184
(dp3185
g66
(dp3186
g74
I4
ssg75
g3180
sg68
(lp3187
S'2592000'
p3188
asbasbasbag61
(g77
g63
NtRp3189
(dp3190
g66
(dp3191
sg75
g3163
sg68
(lp3192
g61
(g82
g63
NtRp3193
(dp3194
g66
(dp3195
g86
g87
ssg75
g3189
sg68
(lp3196
S'hmac_key'
p3197
asbag61
(g82
g63
NtRp3198
(dp3199
g66
(dp3200
g93
g94
ssg75
g3189
sg68
(lp3201
S':'
asbag61
(g82
g63
NtRp3202
(dp3203
g66
(dp3204
sg75
g3189
sg68
(lp3205
g61
(g62
g63
NtRp3206
(dp3207
g66
(dp3208
g74
I4
ssg75
g3202
sg68
(lp3209
S'fab271a9-2270-420a-bc0e-e4ddea1267c9'
p3210
asbasbasbag61
(g77
g63
NtRp3211
(dp3212
g66
(dp3213
sg75
g3163
sg68
(lp3214
g61
(g82
g63
NtRp3215
(dp3216
g66
(dp3217
g86
g87
ssg75
g3211
sg68
(lp3218
S'last_visit'
p3219
asbag61
(g82
g63
NtRp3220
(dp3221
g66
(dp3222
g93
g94
ssg75
g3211
sg68
(lp3223
S':'
asbag61
(g82
g63
NtRp3224
(dp3225
g66
(dp3226
sg75
g3211
sg68
(lp3227
g61
(g62
g63
NtRp3228
(dp3229
g66
(dp3230
g74
I4
ssg75
g3224
sg68
(lp3231
S'datetime.datetime(2012, 10, 16, 15, 15, 43, 56992)'
p3232
asbasbasbag61
(g77
g63
NtRp3233
(dp3234
g66
(dp3235
sg75
g3163
sg68
(lp3236
g61
(g82
g63
NtRp3237
(dp3238
g66
(dp3239
g86
g87
ssg75
g3233
sg68
(lp3240
S'remember'
p3241
asbag61
(g82
g63
NtRp3242
(dp3243
g66
(dp3244
g93
g94
ssg75
g3233
sg68
(lp3245
S':'
asbag61
(g82
g63
NtRp3246
(dp3247
g66
(dp3248
sg75
g3233
sg68
(lp3249
g61
(g62
g63
NtRp3250
(dp3251
g66
(dp3252
g74
I4
ssg75
g3246
sg68
(lp3253
g1555
asbasbasbag61
(g77
g63
NtRp3254
(dp3255
g66
(dp3256
sg75
g3163
sg68
(lp3257
g61
(g82
g63
NtRp3258
(dp3259
g66
(dp3260
g86
g87
ssg75
g3254
sg68
(lp3261
S'user'
p3262
asbag61
(g82
g63
NtRp3263
(dp3264
g66
(dp3265
g93
g94
ssg75
g3254
sg68
(lp3266
S':'
asbag61
(g82
g63
NtRp3267
(dp3268
g66
(dp3269
sg75
g3254
sg68
(lp3270
g61
(g62
g63
NtRp3271
(dp3272
g66
(dp3273
g74
I4
ssg75
g3267
sg68
(lp3274
g61
(g70
g63
NtRp3275
(dp3276
g66
(dp3277
g74
I3
ssg75
Nsg68
(lp3278
g61
(g77
g63
NtRp3279
(dp3280
g66
(dp3281
sg75
g3275
sg68
(lp3282
g61
(g82
g63
NtRp3283
(dp3284
g66
(dp3285
g86
g87
ssg75
g3279
sg68
(lp3286
S'departamento'
p3287
asbag61
(g82
g63
NtRp3288
(dp3289
g66
(dp3290
g93
g94
ssg75
g3279
sg68
(lp3291
S':'
asbag61
(g82
g63
NtRp3292
(dp3293
g66
(dp3294
sg75
g3279
sg68
(lp3295
g61
(g62
g63
NtRp3296
(dp3297
g66
(dp3298
g74
I3
ssg75
g3292
sg68
(lp3299
S'1'
asbasbasbag61
(g77
g63
NtRp3300
(dp3301
g66
(dp3302
sg75
g3275
sg68
(lp3303
g61
(g82
g63
NtRp3304
(dp3305
g66
(dp3306
g86
g87
ssg75
g3300
sg68
(lp3307
S'email'
p3308
asbag61
(g82
g63
NtRp3309
(dp3310
g66
(dp3311
g93
g94
ssg75
g3300
sg68
(lp3312
S':'
asbag61
(g82
g63
NtRp3313
(dp3314
g66
(dp3315
sg75
g3300
sg68
(lp3316
g61
(g62
g63
NtRp3317
(dp3318
g66
(dp3319
g74
I3
ssg75
g3313
sg68
(lp3320
S'tania.quinones@ucv.ve'
p3321
asbasbasbag61
(g77
g63
NtRp3322
(dp3323
g66
(dp3324
sg75
g3275
sg68
(lp3325
g61
(g82
g63
NtRp3326
(dp3327
g66
(dp3328
g86
g87
ssg75
g3322
sg68
(lp3329
S'first_name'
p3330
asbag61
(g82
g63
NtRp3331
(dp3332
g66
(dp3333
g93
g94
ssg75
g3322
sg68
(lp3334
S':'
asbag61
(g82
g63
NtRp3335
(dp3336
g66
(dp3337
sg75
g3322
sg68
(lp3338
g61
(g62
g63
NtRp3339
(dp3340
g66
(dp3341
g74
I3
ssg75
g3335
sg68
(lp3342
S'Tania'
p3343
asbasbasbag61
(g77
g63
NtRp3344
(dp3345
g66
(dp3346
sg75
g3275
sg68
(lp3347
g61
(g82
g63
NtRp3348
(dp3349
g66
(dp3350
g86
g87
ssg75
g3344
sg68
(lp3351
S'id'
p3352
asbag61
(g82
g63
NtRp3353
(dp3354
g66
(dp3355
g93
g94
ssg75
g3344
sg68
(lp3356
S':'
asbag61
(g82
g63
NtRp3357
(dp3358
g66
(dp3359
sg75
g3344
sg68
(lp3360
g61
(g62
g63
NtRp3361
(dp3362
g66
(dp3363
g74
I3
ssg75
g3357
sg68
(lp3364
S'6'
asbasbasbag61
(g77
g63
NtRp3365
(dp3366
g66
(dp3367
sg75
g3275
sg68
(lp3368
g61
(g82
g63
NtRp3369
(dp3370
g66
(dp3371
g86
g87
ssg75
g3365
sg68
(lp3372
S'last_name'
p3373
asbag61
(g82
g63
NtRp3374
(dp3375
g66
(dp3376
g93
g94
ssg75
g3365
sg68
(lp3377
S':'
asbag61
(g82
g63
NtRp3378
(dp3379
g66
(dp3380
sg75
g3365
sg68
(lp3381
g61
(g62
g63
NtRp3382
(dp3383
g66
(dp3384
g74
I3
ssg75
g3378
sg68
(lp3385
S'Qui\xc3\xb1ones'
p3386
asbasbasbag61
(g77
g63
NtRp3387
(dp3388
g66
(dp3389
sg75
g3275
sg68
(lp3390
g61
(g82
g63
NtRp3391
(dp3392
g66
(dp3393
g86
g87
ssg75
g3387
sg68
(lp3394
S'password'
p3395
asbag61
(g82
g63
NtRp3396
(dp3397
g66
(dp3398
g93
g94
ssg75
g3387
sg68
(lp3399
S':'
asbag61
(g82
g63
NtRp3400
(dp3401
g66
(dp3402
sg75
g3387
sg68
(lp3403
g61
(g62
g63
NtRp3404
(dp3405
g66
(dp3406
g74
I3
ssg75
g3400
sg68
(lp3407
S'pbkdf2(1000,20,sha512)$aa1859b69f7fceb3$e4f37528386d959398f712ed27c2b8a252bf74cc'
p3408
asbasbasbag61
(g77
g63
NtRp3409
(dp3410
g66
(dp3411
sg75
g3275
sg68
(lp3412
g61
(g82
g63
NtRp3413
(dp3414
g66
(dp3415
g86
g87
ssg75
g3409
sg68
(lp3416
S'registration_id'
p3417
asbag61
(g82
g63
NtRp3418
(dp3419
g66
(dp3420
g93
g94
ssg75
g3409
sg68
(lp3421
S':'
asbag61
(g82
g63
NtRp3422
(dp3423
g66
(dp3424
sg75
g3409
sg68
(lp3425
g61
(g62
g63
NtRp3426
(dp3427
g66
(dp3428
g74
I3
ssg75
g3422
sg68
(lp3429
S''
asbasbasbag61
(g77
g63
NtRp3430
(dp3431
g66
(dp3432
sg75
g3275
sg68
(lp3433
g61
(g82
g63
NtRp3434
(dp3435
g66
(dp3436
g86
g87
ssg75
g3430
sg68
(lp3437
S'registration_key'
p3438
asbag61
(g82
g63
NtRp3439
(dp3440
g66
(dp3441
g93
g94
ssg75
g3430
sg68
(lp3442
S':'
asbag61
(g82
g63
NtRp3443
(dp3444
g66
(dp3445
sg75
g3430
sg68
(lp3446
g61
(g62
g63
NtRp3447
(dp3448
g66
(dp3449
g74
I3
ssg75
g3443
sg68
(lp3450
S''
asbasbasbag61
(g77
g63
NtRp3451
(dp3452
g66
(dp3453
sg75
g3275
sg68
(lp3454
g61
(g82
g63
NtRp3455
(dp3456
g66
(dp3457
g86
g87
ssg75
g3451
sg68
(lp3458
S'reset_password_key'
p3459
asbag61
(g82
g63
NtRp3460
(dp3461
g66
(dp3462
g93
g94
ssg75
g3451
sg68
(lp3463
S':'
asbag61
(g82
g63
NtRp3464
(dp3465
g66
(dp3466
sg75
g3451
sg68
(lp3467
g61
(g62
g63
NtRp3468
(dp3469
g66
(dp3470
g74
I3
ssg75
g3464
sg68
(lp3471
S''
asbasbasbasbasbasbasbag61
(g77
g63
NtRp3472
(dp3473
g66
(dp3474
sg75
g3163
sg68
(lp3475
g61
(g82
g63
NtRp3476
(dp3477
g66
(dp3478
g86
g87
ssg75
g3472
sg68
(lp3479
S'user_groups'
p3480
asbag61
(g82
g63
NtRp3481
(dp3482
g66
(dp3483
g93
g94
ssg75
g3472
sg68
(lp3484
S':'
asbag61
(g82
g63
NtRp3485
(dp3486
g66
(dp3487
sg75
g3472
sg68
(lp3488
g61
(g62
g63
NtRp3489
(dp3490
g66
(dp3491
g74
I4
ssg75
g3485
sg68
(lp3492
g61
(g70
g63
NtRp3493
(dp3494
g66
(dp3495
g74
I3
ssg75
Nsg68
(lp3496
g61
(g77
g63
NtRp3497
(dp3498
g66
(dp3499
sg75
g3493
sg68
(lp3500
g61
(g82
g63
NtRp3501
(dp3502
g66
(dp3503
g86
g87
ssg75
g3497
sg68
(lp3504
S'3'
asbag61
(g82
g63
NtRp3505
(dp3506
g66
(dp3507
g93
g94
ssg75
g3497
sg68
(lp3508
S':'
asbag61
(g82
g63
NtRp3509
(dp3510
g66
(dp3511
sg75
g3497
sg68
(lp3512
g61
(g62
g63
NtRp3513
(dp3514
g66
(dp3515
g74
I3
ssg75
g3509
sg68
(lp3516
S'supervisor'
p3517
asbasbasbag61
(g77
g63
NtRp3518
(dp3519
g66
(dp3520
sg75
g3493
sg68
(lp3521
g61
(g82
g63
NtRp3522
(dp3523
g66
(dp3524
g86
g87
ssg75
g3518
sg68
(lp3525
S'10'
p3526
asbag61
(g82
g63
NtRp3527
(dp3528
g66
(dp3529
g93
g94
ssg75
g3518
sg68
(lp3530
S':'
asbag61
(g82
g63
NtRp3531
(dp3532
g66
(dp3533
sg75
g3518
sg68
(lp3534
g61
(g62
g63
NtRp3535
(dp3536
g66
(dp3537
g74
I3
ssg75
g3531
sg68
(lp3538
S'user_6'
p3539
asbasbasbasbasbasbasbasbasbasbasbag61
(g77
g63
NtRp3540
(dp3541
g66
(dp3542
sg75
g3138
sg68
(lp3543
g61
(g82
g63
NtRp3544
(dp3545
g66
(dp3546
g86
g87
ssg75
g3540
sg68
(lp3547
S'flash'
p3548
asbag61
(g82
g63
NtRp3549
(dp3550
g66
(dp3551
g93
g94
ssg75
g3540
sg68
(lp3552
S':'
asbag61
(g82
g63
NtRp3553
(dp3554
g66
(dp3555
sg75
g3540
sg68
(lp3556
g61
(g62
g63
NtRp3557
(dp3558
g66
(dp3559
g74
I5
ssg75
g3553
sg68
(lp3560
S'None'
p3561
asbasbasbasbasbsS'etype'
p3562
S"<class 'gluon.contrib.pymysql.err.IntegrityError'>"
p3563
sS'date'
p3564
S'Tue Oct 16 15:43:52 2012'
p3565
sS'response'
p3566
g61
(g62
g63
NtRp3567
(dp3568
g66
(dp3569
sg68
(lp3570
g61
(g70
g63
NtRp3571
(dp3572
g66
(dp3573
g74
I5
ssg75
Nsg68
(lp3574
g61
(g77
g63
NtRp3575
(dp3576
g66
(dp3577
sg75
g3571
sg68
(lp3578
g61
(g82
g63
NtRp3579
(dp3580
g66
(dp3581
g86
g87
ssg75
g3575
sg68
(lp3582
g172
asbag61
(g82
g63
NtRp3583
(dp3584
g66
(dp3585
g93
g94
ssg75
g3575
sg68
(lp3586
S':'
asbag61
(g82
g63
NtRp3587
(dp3588
g66
(dp3589
sg75
g3575
sg68
(lp3590
g61
(g62
g63
NtRp3591
(dp3592
g66
(dp3593
g74
I5
ssg75
g3587
sg68
(lp3594
S'<cStringIO.StringO object at 0xa03a2a0>'
p3595
asbasbasbag61
(g77
g63
NtRp3596
(dp3597
g66
(dp3598
sg75
g3571
sg68
(lp3599
g61
(g82
g63
NtRp3600
(dp3601
g66
(dp3602
g86
g87
ssg75
g3596
sg68
(lp3603
g260
asbag61
(g82
g63
NtRp3604
(dp3605
g66
(dp3606
g93
g94
ssg75
g3596
sg68
(lp3607
S':'
asbag61
(g82
g63
NtRp3608
(dp3609
g66
(dp3610
sg75
g3596
sg68
(lp3611
g61
(g62
g63
NtRp3612
(dp3613
g66
(dp3614
g74
I5
ssg75
g3608
sg68
(lp3615
g61
(g70
g63
NtRp3616
(dp3617
g66
(dp3618
g74
I4
ssg75
Nsg68
(lp3619
g61
(g77
g63
NtRp3620
(dp3621
g66
(dp3622
sg75
g3616
sg68
(lp3623
g61
(g82
g63
NtRp3624
(dp3625
g66
(dp3626
g86
g87
ssg75
g3620
sg68
(lp3627
S'session_id_sicoin'
p3628
asbag61
(g82
g63
NtRp3629
(dp3630
g66
(dp3631
g93
g94
ssg75
g3620
sg68
(lp3632
S':'
asbag61
(g82
g63
NtRp3633
(dp3634
g66
(dp3635
sg75
g3620
sg68
(lp3636
g61
(g62
g63
NtRp3637
(dp3638
g66
(dp3639
g74
I4
ssg75
g3633
sg68
(lp3640
g492
ag61
(g70
g63
NtRp3641
(dp3642
g66
(dp3643
g74
I3
ssg75
Nsg68
(lp3644
g61
(g77
g63
NtRp3645
(dp3646
g66
(dp3647
sg75
g3641
sg68
(lp3648
g61
(g82
g63
NtRp3649
(dp3650
g66
(dp3651
g86
g87
ssg75
g3645
sg68
(lp3652
g311
asbag61
(g82
g63
NtRp3653
(dp3654
g66
(dp3655
g93
g94
ssg75
g3645
sg68
(lp3656
S':'
asbag61
(g82
g63
NtRp3657
(dp3658
g66
(dp3659
sg75
g3645
sg68
(lp3660
g61
(g62
g63
NtRp3661
(dp3662
g66
(dp3663
g74
I3
ssg75
g3657
sg68
(lp3664
S''
asbasbasbag61
(g77
g63
NtRp3665
(dp3666
g66
(dp3667
sg75
g3641
sg68
(lp3668
g61
(g82
g63
NtRp3669
(dp3670
g66
(dp3671
g86
g87
ssg75
g3665
sg68
(lp3672
g332
asbag61
(g82
g63
NtRp3673
(dp3674
g66
(dp3675
g93
g94
ssg75
g3665
sg68
(lp3676
S':'
asbag61
(g82
g63
NtRp3677
(dp3678
g66
(dp3679
sg75
g3665
sg68
(lp3680
g61
(g62
g63
NtRp3681
(dp3682
g66
(dp3683
g74
I3
ssg75
g3677
sg68
(lp3684
S''
asbasbasbag61
(g77
g63
NtRp3685
(dp3686
g66
(dp3687
sg75
g3641
sg68
(lp3688
g61
(g82
g63
NtRp3689
(dp3690
g66
(dp3691
g86
g87
ssg75
g3685
sg68
(lp3692
g353
asbag61
(g82
g63
NtRp3693
(dp3694
g66
(dp3695
g93
g94
ssg75
g3685
sg68
(lp3696
S':'
asbag61
(g82
g63
NtRp3697
(dp3698
g66
(dp3699
sg75
g3685
sg68
(lp3700
g61
(g62
g63
NtRp3701
(dp3702
g66
(dp3703
g74
I3
ssg75
g3697
sg68
(lp3704
S'2592000'
p3705
asbasbasbag61
(g77
g63
NtRp3706
(dp3707
g66
(dp3708
sg75
g3641
sg68
(lp3709
g61
(g82
g63
NtRp3710
(dp3711
g66
(dp3712
g86
g87
ssg75
g3706
sg68
(lp3713
g374
asbag61
(g82
g63
NtRp3714
(dp3715
g66
(dp3716
g93
g94
ssg75
g3706
sg68
(lp3717
S':'
asbag61
(g82
g63
NtRp3718
(dp3719
g66
(dp3720
sg75
g3706
sg68
(lp3721
g61
(g62
g63
NtRp3722
(dp3723
g66
(dp3724
g74
I3
ssg75
g3718
sg68
(lp3725
S''
asbasbasbag61
(g77
g63
NtRp3726
(dp3727
g66
(dp3728
sg75
g3641
sg68
(lp3729
g61
(g82
g63
NtRp3730
(dp3731
g66
(dp3732
g86
g87
ssg75
g3726
sg68
(lp3733
g395
asbag61
(g82
g63
NtRp3734
(dp3735
g66
(dp3736
g93
g94
ssg75
g3726
sg68
(lp3737
S':'
asbag61
(g82
g63
NtRp3738
(dp3739
g66
(dp3740
sg75
g3726
sg68
(lp3741
g61
(g62
g63
NtRp3742
(dp3743
g66
(dp3744
g74
I3
ssg75
g3738
sg68
(lp3745
S''
asbasbasbag61
(g77
g63
NtRp3746
(dp3747
g66
(dp3748
sg75
g3641
sg68
(lp3749
g61
(g82
g63
NtRp3750
(dp3751
g66
(dp3752
g86
g87
ssg75
g3746
sg68
(lp3753
g416
asbag61
(g82
g63
NtRp3754
(dp3755
g66
(dp3756
g93
g94
ssg75
g3746
sg68
(lp3757
S':'
asbag61
(g82
g63
NtRp3758
(dp3759
g66
(dp3760
sg75
g3746
sg68
(lp3761
g61
(g62
g63
NtRp3762
(dp3763
g66
(dp3764
g74
I3
ssg75
g3758
sg68
(lp3765
S'/'
asbasbasbag61
(g77
g63
NtRp3766
(dp3767
g66
(dp3768
sg75
g3641
sg68
(lp3769
g61
(g82
g63
NtRp3770
(dp3771
g66
(dp3772
g86
g87
ssg75
g3766
sg68
(lp3773
g437
asbag61
(g82
g63
NtRp3774
(dp3775
g66
(dp3776
g93
g94
ssg75
g3766
sg68
(lp3777
S':'
asbag61
(g82
g63
NtRp3778
(dp3779
g66
(dp3780
sg75
g3766
sg68
(lp3781
g61
(g62
g63
NtRp3782
(dp3783
g66
(dp3784
g74
I3
ssg75
g3778
sg68
(lp3785
S''
asbasbasbag61
(g77
g63
NtRp3786
(dp3787
g66
(dp3788
sg75
g3641
sg68
(lp3789
g61
(g82
g63
NtRp3790
(dp3791
g66
(dp3792
g86
g87
ssg75
g3786
sg68
(lp3793
g458
asbag61
(g82
g63
NtRp3794
(dp3795
g66
(dp3796
g93
g94
ssg75
g3786
sg68
(lp3797
S':'
asbag61
(g82
g63
NtRp3798
(dp3799
g66
(dp3800
sg75
g3786
sg68
(lp3801
g61
(g62
g63
NtRp3802
(dp3803
g66
(dp3804
g74
I3
ssg75
g3798
sg68
(lp3805
S''
asbasbasbasbasbasbasbasbasbasbasbag61
(g77
g63
NtRp3806
(dp3807
g66
(dp3808
sg75
g3571
sg68
(lp3809
g61
(g82
g63
NtRp3810
(dp3811
g66
(dp3812
g86
g87
ssg75
g3806
sg68
(lp3813
S'delimiters'
p3814
asbag61
(g82
g63
NtRp3815
(dp3816
g66
(dp3817
g93
g94
ssg75
g3806
sg68
(lp3818
S':'
asbag61
(g82
g63
NtRp3819
(dp3820
g66
(dp3821
sg75
g3806
sg68
(lp3822
g61
(g62
g63
NtRp3823
(dp3824
g66
(dp3825
g74
I5
ssg75
g3819
sg68
(lp3826
g61
(g70
g63
NtRp3827
(dp3828
g66
(dp3829
g74
I4
ssg75
Nsg68
(lp3830
g61
(g77
g63
NtRp3831
(dp3832
g66
(dp3833
sg75
g3827
sg68
(lp3834
g61
(g82
g63
NtRp3835
(dp3836
g66
(dp3837
sg75
g3831
sg68
(lp3838
g61
(g62
g63
NtRp3839
(dp3840
g66
(dp3841
g74
I4
ssg75
g3835
sg68
(lp3842
S'{{'
p3843
asbasbasbag61
(g77
g63
NtRp3844
(dp3845
g66
(dp3846
sg75
g3827
sg68
(lp3847
g61
(g82
g63
NtRp3848
(dp3849
g66
(dp3850
sg75
g3844
sg68
(lp3851
g61
(g62
g63
NtRp3852
(dp3853
g66
(dp3854
g74
I4
ssg75
g3848
sg68
(lp3855
S'}}'
p3856
asbasbasbasbasbasbasbag61
(g77
g63
NtRp3857
(dp3858
g66
(dp3859
sg75
g3571
sg68
(lp3860
g61
(g82
g63
NtRp3861
(dp3862
g66
(dp3863
g86
g87
ssg75
g3857
sg68
(lp3864
S'files'
p3865
asbag61
(g82
g63
NtRp3866
(dp3867
g66
(dp3868
g93
g94
ssg75
g3857
sg68
(lp3869
S':'
asbag61
(g82
g63
NtRp3870
(dp3871
g66
(dp3872
sg75
g3857
sg68
(lp3873
g61
(g62
g63
NtRp3874
(dp3875
g66
(dp3876
g74
I5
ssg75
g3870
sg68
(lp3877
g61
(g70
g63
NtRp3878
(dp3879
g66
(dp3880
g74
I4
ssg75
Nsg68
(lp3881
sbasbasbasbag61
(g77
g63
NtRp3882
(dp3883
g66
(dp3884
sg75
g3571
sg68
(lp3885
g61
(g82
g63
NtRp3886
(dp3887
g66
(dp3888
g86
g87
ssg75
g3882
sg68
(lp3889
S'flash'
p3890
asbag61
(g82
g63
NtRp3891
(dp3892
g66
(dp3893
g93
g94
ssg75
g3882
sg68
(lp3894
S':'
asbag61
(g82
g63
NtRp3895
(dp3896
g66
(dp3897
sg75
g3882
sg68
(lp3898
g61
(g62
g63
NtRp3899
(dp3900
g66
(dp3901
g74
I5
ssg75
g3895
sg68
(lp3902
S''
asbasbasbag61
(g77
g63
NtRp3903
(dp3904
g66
(dp3905
sg75
g3571
sg68
(lp3906
g61
(g82
g63
NtRp3907
(dp3908
g66
(dp3909
g86
g87
ssg75
g3903
sg68
(lp3910
S'generic_patterns'
p3911
asbag61
(g82
g63
NtRp3912
(dp3913
g66
(dp3914
g93
g94
ssg75
g3903
sg68
(lp3915
S':'
asbag61
(g82
g63
NtRp3916
(dp3917
g66
(dp3918
sg75
g3903
sg68
(lp3919
g61
(g62
g63
NtRp3920
(dp3921
g66
(dp3922
g74
I5
ssg75
g3916
sg68
(lp3923
g61
(g70
g63
NtRp3924
(dp3925
g66
(dp3926
g74
I4
ssg75
Nsg68
(lp3927
sbasbasbasbag61
(g77
g63
NtRp3928
(dp3929
g66
(dp3930
sg75
g3571
sg68
(lp3931
g61
(g82
g63
NtRp3932
(dp3933
g66
(dp3934
g86
g87
ssg75
g3928
sg68
(lp3935
S'headers'
p3936
asbag61
(g82
g63
NtRp3937
(dp3938
g66
(dp3939
g93
g94
ssg75
g3928
sg68
(lp3940
S':'
asbag61
(g82
g63
NtRp3941
(dp3942
g66
(dp3943
sg75
g3928
sg68
(lp3944
g61
(g62
g63
NtRp3945
(dp3946
g66
(dp3947
g74
I5
ssg75
g3941
sg68
(lp3948
g61
(g70
g63
NtRp3949
(dp3950
g66
(dp3951
g74
I4
ssg75
Nsg68
(lp3952
g61
(g77
g63
NtRp3953
(dp3954
g66
(dp3955
sg75
g3949
sg68
(lp3956
g61
(g82
g63
NtRp3957
(dp3958
g66
(dp3959
g86
g87
ssg75
g3953
sg68
(lp3960
S'X-Powered-By'
p3961
asbag61
(g82
g63
NtRp3962
(dp3963
g66
(dp3964
g93
g94
ssg75
g3953
sg68
(lp3965
S':'
asbag61
(g82
g63
NtRp3966
(dp3967
g66
(dp3968
sg75
g3953
sg68
(lp3969
g61
(g62
g63
NtRp3970
(dp3971
g66
(dp3972
g74
I4
ssg75
g3966
sg68
(lp3973
S'web2py'
p3974
asbasbasbasbasbasbasbag61
(g77
g63
NtRp3975
(dp3976
g66
(dp3977
sg75
g3571
sg68
(lp3978
g61
(g82
g63
NtRp3979
(dp3980
g66
(dp3981
g86
g87
ssg75
g3975
sg68
(lp3982
S'menu'
p3983
asbag61
(g82
g63
NtRp3984
(dp3985
g66
(dp3986
g93
g94
ssg75
g3975
sg68
(lp3987
S':'
asbag61
(g82
g63
NtRp3988
(dp3989
g66
(dp3990
sg75
g3975
sg68
(lp3991
g61
(g62
g63
NtRp3992
(dp3993
g66
(dp3994
g74
I5
ssg75
g3988
sg68
(lp3995
g61
(g70
g63
NtRp3996
(dp3997
g66
(dp3998
g74
I4
ssg75
Nsg68
(lp3999
g61
(g77
g63
NtRp4000
(dp4001
g66
(dp4002
sg75
g3996
sg68
(lp4003
g61
(g82
g63
NtRp4004
(dp4005
g66
(dp4006
sg75
g4000
sg68
(lp4007
g61
(g62
g63
NtRp4008
(dp4009
g66
(dp4010
g74
I4
ssg75
g4004
sg68
(lp4011
g61
(g70
g63
NtRp4012
(dp4013
g66
(dp4014
g74
I3
ssg75
Nsg68
(lp4015
g61
(g77
g63
NtRp4016
(dp4017
g66
(dp4018
sg75
g4012
sg68
(lp4019
g61
(g82
g63
NtRp4020
(dp4021
g66
(dp4022
sg75
g4016
sg68
(lp4023
g61
(g62
g63
NtRp4024
(dp4025
g66
(dp4026
g74
I3
ssg75
g4020
sg68
(lp4027
cgluon.languages
lazyT_unpickle
p4028
(S's\x06\x00\x00\x00Indice'
tRp4029
asbasbasbag61
(g77
g63
NtRp4030
(dp4031
g66
(dp4032
sg75
g4012
sg68
(lp4033
g61
(g82
g63
NtRp4034
(dp4035
g66
(dp4036
sg75
g4030
sg68
(lp4037
g61
(g62
g63
NtRp4038
(dp4039
g66
(dp4040
g74
I3
ssg75
g4034
sg68
(lp4041
g104
asbasbasbag61
(g77
g63
NtRp4042
(dp4043
g66
(dp4044
sg75
g4012
sg68
(lp4045
g61
(g82
g63
NtRp4046
(dp4047
g66
(dp4048
sg75
g4042
sg68
(lp4049
g61
(g62
g63
NtRp4050
(dp4051
g66
(dp4052
g74
I3
ssg75
g4046
sg68
(lp4053
S'/sicoin/default/index'
p4054
asbasbasbag61
(g77
g63
NtRp4055
(dp4056
g66
(dp4057
sg75
g4012
sg68
(lp4058
g61
(g82
g63
NtRp4059
(dp4060
g66
(dp4061
sg75
g4055
sg68
(lp4062
g61
(g62
g63
NtRp4063
(dp4064
g66
(dp4065
g74
I3
ssg75
g4059
sg68
(lp4066
g61
(g70
g63
NtRp4067
(dp4068
g66
(dp4069
g74
I2
ssg75
Nsg68
(lp4070
sbasbasbasbasbasbasbasbasbasbasbasbag61
(g77
g63
NtRp4071
(dp4072
g66
(dp4073
sg75
g3571
sg68
(lp4074
g61
(g82
g63
NtRp4075
(dp4076
g66
(dp4077
g86
g87
ssg75
g4071
sg68
(lp4078
S'meta'
p4079
asbag61
(g82
g63
NtRp4080
(dp4081
g66
(dp4082
g93
g94
ssg75
g4071
sg68
(lp4083
S':'
asbag61
(g82
g63
NtRp4084
(dp4085
g66
(dp4086
sg75
g4071
sg68
(lp4087
g61
(g62
g63
NtRp4088
(dp4089
g66
(dp4090
g74
I5
ssg75
g4084
sg68
(lp4091
g61
(g70
g63
NtRp4092
(dp4093
g66
(dp4094
g74
I4
ssg75
Nsg68
(lp4095
g61
(g77
g63
NtRp4096
(dp4097
g66
(dp4098
sg75
g4092
sg68
(lp4099
g61
(g82
g63
NtRp4100
(dp4101
g66
(dp4102
g86
g87
ssg75
g4096
sg68
(lp4103
S'author'
p4104
asbag61
(g82
g63
NtRp4105
(dp4106
g66
(dp4107
g93
g94
ssg75
g4096
sg68
(lp4108
S':'
asbag61
(g82
g63
NtRp4109
(dp4110
g66
(dp4111
sg75
g4096
sg68
(lp4112
g61
(g62
g63
NtRp4113
(dp4114
g66
(dp4115
g74
I4
ssg75
g4109
sg68
(lp4116
S'TIC - FIPU <perdomor@ucv.ve>'
p4117
asbasbasbag61
(g77
g63
NtRp4118
(dp4119
g66
(dp4120
sg75
g4092
sg68
(lp4121
g61
(g82
g63
NtRp4122
(dp4123
g66
(dp4124
g86
g87
ssg75
g4118
sg68
(lp4125
S'description'
p4126
asbag61
(g82
g63
NtRp4127
(dp4128
g66
(dp4129
g93
g94
ssg75
g4118
sg68
(lp4130
S':'
asbag61
(g82
g63
NtRp4131
(dp4132
g66
(dp4133
sg75
g4118
sg68
(lp4134
g61
(g62
g63
NtRp4135
(dp4136
g66
(dp4137
g74
I4
ssg75
g4131
sg68
(lp4138
S''
asbasbasbag61
(g77
g63
NtRp4139
(dp4140
g66
(dp4141
sg75
g4092
sg68
(lp4142
g61
(g82
g63
NtRp4143
(dp4144
g66
(dp4145
g86
g87
ssg75
g4139
sg68
(lp4146
S'keywords'
p4147
asbag61
(g82
g63
NtRp4148
(dp4149
g66
(dp4150
g93
g94
ssg75
g4139
sg68
(lp4151
S':'
asbag61
(g82
g63
NtRp4152
(dp4153
g66
(dp4154
sg75
g4139
sg68
(lp4155
g61
(g62
g63
NtRp4156
(dp4157
g66
(dp4158
g74
I4
ssg75
g4152
sg68
(lp4159
S''
asbasbasbasbasbasbasbag61
(g77
g63
NtRp4160
(dp4161
g66
(dp4162
sg75
g3571
sg68
(lp4163
g61
(g82
g63
NtRp4164
(dp4165
g66
(dp4166
g86
g87
ssg75
g4160
sg68
(lp4167
S'models_to_run'
p4168
asbag61
(g82
g63
NtRp4169
(dp4170
g66
(dp4171
g93
g94
ssg75
g4160
sg68
(lp4172
S':'
asbag61
(g82
g63
NtRp4173
(dp4174
g66
(dp4175
sg75
g4160
sg68
(lp4176
g61
(g62
g63
NtRp4177
(dp4178
g66
(dp4179
g74
I5
ssg75
g4173
sg68
(lp4180
g61
(g70
g63
NtRp4181
(dp4182
g66
(dp4183
g74
I4
ssg75
Nsg68
(lp4184
g61
(g77
g63
NtRp4185
(dp4186
g66
(dp4187
sg75
g4181
sg68
(lp4188
g61
(g82
g63
NtRp4189
(dp4190
g66
(dp4191
sg75
g4185
sg68
(lp4192
g61
(g62
g63
NtRp4193
(dp4194
g66
(dp4195
g74
I4
ssg75
g4189
sg68
(lp4196
S'^\\w+\\.py$'
p4197
asbasbasbag61
(g77
g63
NtRp4198
(dp4199
g66
(dp4200
sg75
g4181
sg68
(lp4201
g61
(g82
g63
NtRp4202
(dp4203
g66
(dp4204
sg75
g4198
sg68
(lp4205
g61
(g62
g63
NtRp4206
(dp4207
g66
(dp4208
g74
I4
ssg75
g4202
sg68
(lp4209
S'^default/\\w+\\.py$'
p4210
asbasbasbag61
(g77
g63
NtRp4211
(dp4212
g66
(dp4213
sg75
g4181
sg68
(lp4214
g61
(g82
g63
NtRp4215
(dp4216
g66
(dp4217
sg75
g4211
sg68
(lp4218
g61
(g62
g63
NtRp4219
(dp4220
g66
(dp4221
g74
I4
ssg75
g4215
sg68
(lp4222
S'^default/user/\\w+\\.py$'
p4223
asbasbasbasbasbasbasbag61
(g77
g63
NtRp4224
(dp4225
g66
(dp4226
sg75
g3571
sg68
(lp4227
g61
(g82
g63
NtRp4228
(dp4229
g66
(dp4230
g86
g87
ssg75
g4224
sg68
(lp4231
S'postprocessing'
p4232
asbag61
(g82
g63
NtRp4233
(dp4234
g66
(dp4235
g93
g94
ssg75
g4224
sg68
(lp4236
S':'
asbag61
(g82
g63
NtRp4237
(dp4238
g66
(dp4239
sg75
g4224
sg68
(lp4240
g61
(g62
g63
NtRp4241
(dp4242
g66
(dp4243
g74
I5
ssg75
g4237
sg68
(lp4244
g61
(g70
g63
NtRp4245
(dp4246
g66
(dp4247
g74
I4
ssg75
Nsg68
(lp4248
sbasbasbasbag61
(g77
g63
NtRp4249
(dp4250
g66
(dp4251
sg75
g3571
sg68
(lp4252
g61
(g82
g63
NtRp4253
(dp4254
g66
(dp4255
g86
g87
ssg75
g4249
sg68
(lp4256
S'session_file'
p4257
asbag61
(g82
g63
NtRp4258
(dp4259
g66
(dp4260
g93
g94
ssg75
g4249
sg68
(lp4261
S':'
asbag61
(g82
g63
NtRp4262
(dp4263
g66
(dp4264
sg75
g4249
sg68
(lp4265
g61
(g62
g63
NtRp4266
(dp4267
g66
(dp4268
g74
I5
ssg75
g4262
sg68
(lp4269
S"<open file '/home/perdomor/web2py/applications/sicoin/sessions/190.169.221.32-1d9491ba-4c6b-4d8a-9e62-f8bfc5213949', mode 'rb+' at 0x9f92288>"
p4270
asbasbasbag61
(g77
g63
NtRp4271
(dp4272
g66
(dp4273
sg75
g3571
sg68
(lp4274
g61
(g82
g63
NtRp4275
(dp4276
g66
(dp4277
g86
g87
ssg75
g4271
sg68
(lp4278
S'session_filename'
p4279
asbag61
(g82
g63
NtRp4280
(dp4281
g66
(dp4282
g93
g94
ssg75
g4271
sg68
(lp4283
S':'
asbag61
(g82
g63
NtRp4284
(dp4285
g66
(dp4286
sg75
g4271
sg68
(lp4287
g61
(g62
g63
NtRp4288
(dp4289
g66
(dp4290
g74
I5
ssg75
g4284
sg68
(lp4291
S'/home/perdomor/web2py/applications/sicoin/sessions/190.169.221.32-1d9491ba-4c6b-4d8a-9e62-f8bfc5213949'
p4292
asbasbasbag61
(g77
g63
NtRp4293
(dp4294
g66
(dp4295
sg75
g3571
sg68
(lp4296
g61
(g82
g63
NtRp4297
(dp4298
g66
(dp4299
g86
g87
ssg75
g4293
sg68
(lp4300
S'session_id'
p4301
asbag61
(g82
g63
NtRp4302
(dp4303
g66
(dp4304
g93
g94
ssg75
g4293
sg68
(lp4305
S':'
asbag61
(g82
g63
NtRp4306
(dp4307
g66
(dp4308
sg75
g4293
sg68
(lp4309
g61
(g62
g63
NtRp4310
(dp4311
g66
(dp4312
g74
I5
ssg75
g4306
sg68
(lp4313
g492
asbasbasbag61
(g77
g63
NtRp4314
(dp4315
g66
(dp4316
sg75
g3571
sg68
(lp4317
g61
(g82
g63
NtRp4318
(dp4319
g66
(dp4320
g86
g87
ssg75
g4314
sg68
(lp4321
S'session_id_name'
p4322
asbag61
(g82
g63
NtRp4323
(dp4324
g66
(dp4325
g93
g94
ssg75
g4314
sg68
(lp4326
S':'
asbag61
(g82
g63
NtRp4327
(dp4328
g66
(dp4329
sg75
g4314
sg68
(lp4330
g61
(g62
g63
NtRp4331
(dp4332
g66
(dp4333
g74
I5
ssg75
g4327
sg68
(lp4334
g3628
asbasbasbag61
(g77
g63
NtRp4335
(dp4336
g66
(dp4337
sg75
g3571
sg68
(lp4338
g61
(g82
g63
NtRp4339
(dp4340
g66
(dp4341
g86
g87
ssg75
g4335
sg68
(lp4342
S'session_locked'
p4343
asbag61
(g82
g63
NtRp4344
(dp4345
g66
(dp4346
g93
g94
ssg75
g4335
sg68
(lp4347
S':'
asbag61
(g82
g63
NtRp4348
(dp4349
g66
(dp4350
sg75
g4335
sg68
(lp4351
g61
(g62
g63
NtRp4352
(dp4353
g66
(dp4354
g74
I5
ssg75
g4348
sg68
(lp4355
g1555
asbasbasbag61
(g77
g63
NtRp4356
(dp4357
g66
(dp4358
sg75
g3571
sg68
(lp4359
g61
(g82
g63
NtRp4360
(dp4361
g66
(dp4362
g86
g87
ssg75
g4356
sg68
(lp4363
S'session_new'
p4364
asbag61
(g82
g63
NtRp4365
(dp4366
g66
(dp4367
g93
g94
ssg75
g4356
sg68
(lp4368
S':'
asbag61
(g82
g63
NtRp4369
(dp4370
g66
(dp4371
sg75
g4356
sg68
(lp4372
g61
(g62
g63
NtRp4373
(dp4374
g66
(dp4375
g74
I5
ssg75
g4369
sg68
(lp4376
g104
asbasbasbag61
(g77
g63
NtRp4377
(dp4378
g66
(dp4379
sg75
g3571
sg68
(lp4380
g61
(g82
g63
NtRp4381
(dp4382
g66
(dp4383
g86
g87
ssg75
g4377
sg68
(lp4384
S'status'
p4385
asbag61
(g82
g63
NtRp4386
(dp4387
g66
(dp4388
g93
g94
ssg75
g4377
sg68
(lp4389
S':'
asbag61
(g82
g63
NtRp4390
(dp4391
g66
(dp4392
sg75
g4377
sg68
(lp4393
g61
(g62
g63
NtRp4394
(dp4395
g66
(dp4396
g74
I5
ssg75
g4390
sg68
(lp4397
S'200'
p4398
asbasbasbag61
(g77
g63
NtRp4399
(dp4400
g66
(dp4401
sg75
g3571
sg68
(lp4402
g61
(g82
g63
NtRp4403
(dp4404
g66
(dp4405
g86
g87
ssg75
g4399
sg68
(lp4406
S'subtitle'
p4407
asbag61
(g82
g63
NtRp4408
(dp4409
g66
(dp4410
g93
g94
ssg75
g4399
sg68
(lp4411
S':'
asbag61
(g82
g63
NtRp4412
(dp4413
g66
(dp4414
sg75
g4399
sg68
(lp4415
g61
(g62
g63
NtRp4416
(dp4417
g66
(dp4418
g74
I5
ssg75
g4412
sg68
(lp4419
S'Sistema Integrado de Correspondencia Interna'
p4420
asbasbasbag61
(g77
g63
NtRp4421
(dp4422
g66
(dp4423
sg75
g3571
sg68
(lp4424
g61
(g82
g63
NtRp4425
(dp4426
g66
(dp4427
g86
g87
ssg75
g4421
sg68
(lp4428
S'title'
p4429
asbag61
(g82
g63
NtRp4430
(dp4431
g66
(dp4432
g93
g94
ssg75
g4421
sg68
(lp4433
S':'
asbag61
(g82
g63
NtRp4434
(dp4435
g66
(dp4436
sg75
g4421
sg68
(lp4437
g61
(g62
g63
NtRp4438
(dp4439
g66
(dp4440
g74
I5
ssg75
g4434
sg68
(lp4441
S'SiCoIn'
p4442
asbasbasbag61
(g77
g63
NtRp4443
(dp4444
g66
(dp4445
sg75
g3571
sg68
(lp4446
g61
(g82
g63
NtRp4447
(dp4448
g66
(dp4449
g86
g87
ssg75
g4443
sg68
(lp4450
S'view'
p4451
asbag61
(g82
g63
NtRp4452
(dp4453
g66
(dp4454
g93
g94
ssg75
g4443
sg68
(lp4455
S':'
asbag61
(g82
g63
NtRp4456
(dp4457
g66
(dp4458
sg75
g4443
sg68
(lp4459
g61
(g62
g63
NtRp4460
(dp4461
g66
(dp4462
g74
I5
ssg75
g4456
sg68
(lp4463
S'default/user.html'
p4464
asbasbasbasbasbsS'locals'
p4465
(dp4466
S'query'
p4467
S'"INSERT INTO auth_event(origin,time_stamp,client_...169.221.32\',6,\'Usuario 6 ha finalizado sesi\\xc3\\xb3n\');"'
p4468
sS'self'
p4469
S'<gluon.dal.MySQLAdapter object>'
p4470
sS'e'
S"IntegrityError(1452, u'Cannot add or update a ch...EFERENCES `auth_user` (`id`) ON DELETE CASCADE)')"
p4471
sS'fields'
p4472
S"[(<gluon.dal.Field object>, 'auth'), (<gluon.dal.Field object>, datetime.datetime(2012, 10, 16, 15, 43, 52, 208660)), (<gluon.dal.Field object>, '190.169.221.32'), (<gluon.dal.Field object>, 6), (<gluon.dal.Field object>, 'Usuario 6 ha finalizado sesi\\xc3\\xb3n')]"
p4473
sS'table'
p4474
S'<Table auth_event (id,time_stamp,client_ip,user_id,origin,description)>'
p4475
sssS'traceback'
p4476
S'Traceback (most recent call last):\n  File "/home/perdomor/web2py/gluon/restricted.py", line 209, in restricted\n    exec ccode in environment\n  File "/home/perdomor/web2py/applications/sicoin/controllers/default.py", line 14, in <module>\n  File "/home/perdomor/web2py/gluon/globals.py", line 186, in <lambda>\n    self._caller = lambda f: f()\n  File "/home/perdomor/web2py/applications/sicoin/controllers/default.py", line 4, in user\n    def user(): return dict(form=auth())\n  File "/home/perdomor/web2py/gluon/tools.py", line 1194, in __call__\n    return getattr(self,args[0])()\n  File "/home/perdomor/web2py/gluon/tools.py", line 2050, in logout\n    self.log_event(log, self.user)\n  File "/home/perdomor/web2py/gluon/tools.py", line 1635, in log_event\n    origin=origin, user_id=user_id)\n  File "/home/perdomor/web2py/gluon/dal.py", line 7793, in insert\n    ret =  self._db._adapter.insert(self,self._listify(fields))\n  File "/home/perdomor/web2py/gluon/dal.py", line 1142, in insert\n    raise e\nIntegrityError: (1452, u\'Cannot add or update a child row: a foreign key constraint fails (`db_sicoin`.`auth_event`, CONSTRAINT `auth_event_ibfk_1` FOREIGN KEY (`user_id`) REFERENCES `auth_user` (`id`) ON DELETE CASCADE)\')\n'
p4477
s.