(dp1
S'output'
p2
S"<type 'exceptions.TypeError'> expected string or buffer"
p3
sS'layer'
p4
S'/home/perdomor/web2py/applications/sicoin/controllers/correspondencia.py'
p5
sS'code'
p6
S'# coding: utf8\nT.force(\'es\')\nfrom plugin_solidform import SOLIDFORM\n\n@auth.requires(auth.has_membership(\'recepcionista\') or auth.has_membership(\'master\') or auth.has_membership(\'supervisor\') or auth.has_membership(\'analista\'))\ndef listar_correspondencias():\n    session.pag_editar = URL("editar_correspondencia")\n    session.pag_previa = URL(\'listar_correspondencias\')\n    db.correspondencia.fecha_registro.readable = True\n    links = None \n    fields = [db.correspondencia.nro_de_documento, db.correspondencia.fecha_registro, db.correspondencia.tipo_de_documento,\n              db.correspondencia.estatus,db.correspondencia.remitente,db.correspondencia.destinatario,db.correspondencia.asunto,]\n    orderby = [~db.correspondencia.fecha_registro,] \n    if auth.has_membership(\'recepcionista\'):\n        deletable = False\n        editable=True\n        details = True\n        create=True\n    if auth.has_membership(\'analista\'):\n        deletable = False\n        editable=True\n        details = True\n        create=False\n    if auth.has_membership(\'supervisor\'):\n        deletable = False\n        editable=True\n        details = True\n        create=False\n    query = ((db.correspondencia.registrado_por==auth.user.id) | (db.correspondencia.asignado_a==auth.user.id))\n    if auth.has_membership(\'master\'):\n        deletable = False\n        editable=False\n        details = True\n        create=False\n        query = ((db.correspondencia.registrado_por==auth.user.id) | (db.correspondencia.asignado_a==auth.user.id))\n    links = [lambda row: A(TAG[\'\'](SPAN(_class="icon icon-list"),SPAN(\'Hist\xc3\xb3rico\', _class="buttontext button", _title="Hist\xc3\xb3rico")), _class="w2p_trap button btn popup", _href=URL(\'ver_historico\', args=[row.id]))\n            ]\n    grid = SQLFORM.grid(query, fields = fields, user_signature=False, selectable= lambda ids: reporte_entregas(ids),deletable=deletable, editable=editable, details = details,create=create, csv=False, orderby = orderby, links = links)\n    return dict(grid = grid)\n\n@auth.requires(auth.has_membership(\'recepcionista\') or auth.has_membership(\'supervisor\') or auth.has_membership(\'master\'))\ndef listar_correspondencias_departamento():\n    session.pag_editar = URL("editar_correspondencia_departamento")\n    session.pag_previa = URL(\'listar_correspondencias_departamento\') \n    fields = [db.correspondencia.nro_de_documento,db.correspondencia.fecha_registro,db.correspondencia.estatus,db.correspondencia.remitente,db.correspondencia.destinatario,db.correspondencia.asunto,]\n    orderby = [\'correspondencia.fecha_registro\',] \n    deletable = False\n    editable=True\n    details = True\n    create=False\n    db.correspondencia.nro_de_documento.writable = False\n    db.correspondencia.fecha_registro.writable = False\n    db.correspondencia.tipo_de_documento.writable = False\n    db.correspondencia.remitente.writable = False\n    db.correspondencia.departamento_origen.writable = False\n    db.correspondencia.destinatario.writable = False\n    db.correspondencia.departamento_destino.writable = False\n    db.correspondencia.asunto.writable = False\n    db.correspondencia.registrado_por.writable = False\n    links = [lambda row: A(TAG[\'\'](SPAN(_class="icon icon-list"),SPAN(\'Hist\xc3\xb3rico\', _class="buttontext button", _title="Hist\xc3\xb3rico")), _class="w2p_trap button btn popup", _href=URL(\'ver_historico\', args=[row.id]))]\n    query = (db.correspondencia.departamento_destino==auth.user.departamento)|(db.correspondencia.departamento_origen==auth.user.departamento)\n    grid = SQLFORM.grid(query, fields = fields, user_signature=False, deletable=deletable, editable=editable, \n                        details = details,create=create, csv=False, orderby = orderby, links = links)\n    return dict(grid = grid)      \n      \n@auth.requires(auth.has_membership(\'master\'))\ndef listar_correspondencias_master(): \n    session.pag_previa = URL(\'listar_correspondencias_master\') \n    fields = [db.correspondencia.nro_de_documento,db.correspondencia.fecha_registro,db.correspondencia.estatus,db.correspondencia.remitente,db.correspondencia.destinatario,db.correspondencia.asunto,]\n    orderby = [~db.correspondencia.fecha_registro, db.correspondencia.departamento_origen, db.correspondencia.departamento_origen] \n    deletable = False\n    editable=False\n    details = True\n    create=False\n    links = [lambda row: A(TAG[\'\'](SPAN(_class="icon icon-list"),SPAN(\'Hist\xc3\xb3rico\', _class="buttontext button", _title="Hist\xc3\xb3rico")), _class="w2p_trap button btn popup", _href=URL(\'ver_historico\', args=[row.id]))]\n    query =db.correspondencia \n    grid = SQLFORM.grid(query, fields = fields, user_signature=False, deletable=deletable, editable=editable, \n                        details = details,create=create, csv=False, orderby = orderby, links = links)\n    return dict(grid = grid)\n\n@auth.requires(auth.has_membership(\'recepcionista\') or auth.has_membership(\'master\') or auth.has_membership(\'supervisor\'))\ndef agregar_correspondencia():\n    session.pag_previa = URL(\'agregar_correspondencia\') \n    request_fields = request.vars.fields or \'default\'\n    asignados = usuariosDepartamento()\n\n################################ The core ######################################\n    # Specify structured fields for the multi-line form layout.\n    # A "None" indicates an empty line over which the precedent line spans\n    if request_fields == \'default\':\n        fields = [\n                  [\'nro_de_documento\', \'fecha_correspondencia\'],\n                  [\'tipo_de_documento\', \'estatus\'],\n                  \'asunto\',\n                  [\'departamento_origen\', \'departamento_destino\'],\n                  [None, None],\n                  [\'remitente\', \'destinatario\'],\n                  [None, \'observaciones\'],\n                  \'asignado_a\'\n                  ]\n    \n    form = SOLIDFORM(db.correspondencia, fields=fields, tabla = auth.archive)\n    if form.process(onsuccess=auth.archive).accepted:\n        session.flash = \'registro procesado con \xc3\xa9xito\'\n        redirect(URL(\'/listar_correspondencias\'))\n    style = STYLE("""input[type="text"], textarea {width:100%; max-height: 50px;}\n                     .w2p_fw {padding-right: 10px; max-width:100%;}\n                     .w2p_fl {background: #eee;}\n                     .string {max-width: 300px;}\n                     .date {max-width: 80px;}""")\n    return dict(asignados = asignados,\n                form=DIV(style, form),\n                #form__factory=form_factory, form__readonly=form_readonly, form__edit=form_edit,\n                form_args=DIV(A(\'fields=default\', _href=URL(vars={\'fields\': \'default\'})), \' \',\n                               ))\n\n@auth.requires(auth.has_membership(\'recepcionista\') or auth.has_membership(\'master\') or auth.has_membership(\'supervisor\') or auth.has_membership(\'analista\'))\ndef ver_correspondencia():\n    id = request.args(1)\n    tabla = request.args(0)\n    fields = [\n                  [\'nro_de_documento\', \'fecha_correspondencia\'],\n                  [\'tipo_de_documento\', \'estatus\'],\n                  \'asunto\',\n                  [\'departamento_origen\', \'departamento_destino\'],\n                  [None, None],\n                  [\'remitente\', \'destinatario\'],\n                  [None, \'observaciones\'],\n                  [\'asignado_a\', \'registrado_por\'],\n                  [\'modificado_el\', \'modificado_por\'],\n                  ]\n\n    if (tabla == "activo"):\n        db.correspondencia.modificado_el.readable = True\n        db.correspondencia.modificado_por.readable = True\n        correspondencia = db(db.correspondencia.id==id).select().first()\n        form = SOLIDFORM(db.correspondencia, correspondencia, fields=fields, showid=False, readonly=True)\n    elif (tabla == "archivo"):\n        db.correspondencia_archive.modificado_el.readable = True\n        db.correspondencia_archive.modificado_por.readable = True\n        correspondencia = db(db.correspondencia_archive.id==id).select().first()\n        form = SOLIDFORM(db.correspondencia_archive, correspondencia, fields=fields, showid=False, readonly=True)\n    if form.accepts(request.vars, session):\n        session.flash = \'registro procesado con \xc3\xa9xito\'\n        redirect(URL(\'/listar_correspondencias\'))\n     \n    style = STYLE("""input[type="text"], textarea {width:100%; max-height: 50px;}\n                     .w2p_fw {padding-right: 10px; max-width:100%;}\n                     .w2p_fl {background: #eee;}\n                     .string {max-width: 300px;}\n                     .date {max-width: 80px;}""")\n    return dict(id = id, form=DIV(style, form),\n                #form__factory=form_factory, form__readonly=form_readonly, form__edit=form_edit,\n                form_args=DIV(A(\'fields=default\', _href=URL(vars={\'fields\': \'default\'})), \' \',\n\n                               ))\n                            \n@auth.requires(auth.has_membership(\'recepcionista\') or auth.has_membership(\'master\') or auth.has_membership(\'supervisor\') or auth.has_membership(\'analista\'))\ndef editar_correspondencia():\n    session.pag_previa = URL(\'editar_correspondencia\') \n    id = request.args(0)\n    asignados = usuariosDepartamento()\n    fields = [\n                  [\'nro_de_documento\', \'fecha_correspondencia\'],\n                  [\'tipo_de_documento\', \'estatus\'],\n                  \'asunto\',\n                  [\'departamento_origen\', \'departamento_destino\'],\n                  [None, None],\n                  [\'remitente\', \'destinatario\'],\n                  [None, \'observaciones\'],\n                  [\'asignado_a\'],\n                  \n                  ]\n    if auth.has_membership(\'analista\'):\n        db.correspondencia.nro_de_documento.readable = True\n        db.correspondencia.nro_de_documento.writable = False\n        db.correspondencia.fecha_correspondencia.readable = True\n        db.correspondencia.fecha_correspondencia.writable = False\n        db.correspondencia.tipo_de_documento.readable = True\n        db.correspondencia.tipo_de_documento.writable = False\n        db.correspondencia.asunto.readable = True\n        db.correspondencia.asunto.writable = False\n        db.correspondencia.departamento_origen.readable = True\n        db.correspondencia.departamento_origen.writable = False\n        db.correspondencia.departamento_destino.readable = True\n        db.correspondencia.departamento_destino.writable = False\n        db.correspondencia.remitente.readable = True\n        db.correspondencia.remitente.writable = False\n        db.correspondencia.destinatario.readable = True\n        db.correspondencia.destinatario.writable = False        \n        db.correspondencia.asignado_a.readable = True\n        db.correspondencia.asignado_a.writable = False\n    if auth.has_membership(\'supervisor\'):\n        db.correspondencia.nro_de_documento.readable = True\n        db.correspondencia.nro_de_documento.writable = False\n        db.correspondencia.fecha_correspondencia.readable = True\n        db.correspondencia.fecha_correspondencia.writable = False\n        db.correspondencia.tipo_de_documento.readable = True\n        db.correspondencia.tipo_de_documento.writable = False\n        db.correspondencia.asunto.readable = True\n        db.correspondencia.asunto.writable = False\n        db.correspondencia.departamento_origen.readable = True\n        db.correspondencia.departamento_origen.writable = False\n        db.correspondencia.departamento_destino.readable = True\n        db.correspondencia.departamento_destino.writable = False\n        db.correspondencia.remitente.readable = True\n        db.correspondencia.remitente.writable = False\n        db.correspondencia.destinatario.readable = True\n        db.correspondencia.destinatario.writable = False        \n        db.correspondencia.asignado_a.readable = True\n        db.correspondencia.asignado_a.writable = False\n    #db.correspondencia.modificado_por.writable = True\n    #db.correspondencia.modificado_el.writable = True\n    correspondencia = db(db.correspondencia.id==id).select().first()\n    form = SOLIDFORM(db.correspondencia, correspondencia, fields=fields, showid=False, readonly=False)\n    if form.process(onsuccess=auth.archive).accepted:\n        session.flash = \'registro modificado con \xc3\xa9xito\'\n        redirect(URL(\'/listar_correspondencias\'))\n     \n    style = STYLE("""input[type="text"], textarea {width:100%; max-height: 50px;}\n                     .w2p_fw {padding-right: 10px; max-width:100%;}\n                     .w2p_fl {background: #eee;}\n                     .string {max-width: 300px;}\n                     .date {max-width: 80px;}""")\n    return dict(asignados = asignados,\n                 form=DIV(style, form),\n                 #form__factory=form_factory, form__readonly=form_readonly, form__edit=form_edit,\n                 form_args=DIV(A(\'fields=default\', _href=URL(vars={\'fields\': \'default\'})), \' \',\n\n                               ))\n\n@auth.requires(auth.has_membership(\'recepcionista\') or auth.has_membership(\'supervisor\') or auth.has_membership(\'master\'))\ndef ver_correspondencia_departamento():\n    id = request.args(0)\n    fields = [\n                  [\'nro_de_documento\', \'fecha_correspondencia\'],\n                  [\'tipo_de_documento\', \'estatus\'],\n                  \'asunto\',\n                  [\'departamento_origen\', \'departamento_destino\'],\n                  [None, None],\n                  [\'remitente\', \'destinatario\'],\n                  [None, \'observaciones\'],\n                  [\'asignado_a\', \'registrado_por\'],\n                  [\'modificado_el\', \'modificado_por\'],\n                  ]\n    db.correspondencia.nro_de_documento.writable = False\n    db.correspondencia.fecha_registro.writable = False\n    db.correspondencia.tipo_de_documento.writable = False\n    db.correspondencia.remitente.writable = False\n    db.correspondencia.departamento_origen.writable = False\n    db.correspondencia.destinatario.writable = False\n    db.correspondencia.departamento_destino.writable = False\n    db.correspondencia.asunto.writable = False\n    db.correspondencia.registrado_por.writable = False\n    db.correspondencia.modificado_el.readable = True\n    db.correspondencia.modificado_por.readable = True\n    correspondencia = db(db.correspondencia.id==id).select().first()\n    form = SOLIDFORM(db.correspondencia, correspondencia, fields=fields, showid=False, readonly=True)\n\n    if form.accepts(request.vars, session):\n        session.flash = \'registro procesado con \xc3\xa9xito\'\n        redirect(URL(\'/listar_correspondencias\'))\n     \n    style = STYLE("""input[type="text"], textarea {width:100%; max-height: 50px;}\n                     .w2p_fw {padding-right: 10px; max-width:100%;}\n                     .w2p_fl {background: #eee;}\n                     .string {max-width: 300px;}\n                     .date {max-width: 80px;}""")\n    return dict(id = id, form=DIV(style, form),\n                #form__factory=form_factory, form__readonly=form_readonly, form__edit=form_edit,\n                form_args=DIV(A(\'fields=default\', _href=URL(vars={\'fields\': \'default\'})), \' \',\n                               ))\n                              \n@auth.requires(auth.has_membership(\'recepcionista\') or auth.has_membership(\'supervisor\') or auth.has_membership(\'master\'))\ndef editar_correspondencia_departamento():\n    session.pag_previa = URL(\'editar_correspondencias_departamento\') \n    id = request.args(0)\n    asignados = usuariosDepartamento()\n    fields = [\n                  [\'nro_de_documento\', \'fecha_correspondencia\'],\n                  [\'tipo_de_documento\', \'estatus\'],\n                  \'asunto\',\n                  [\'departamento_origen\', \'departamento_destino\'],\n                  [None, None],\n                  [\'remitente\', \'destinatario\'],\n                  [None, \'observaciones\'],\n                  \'asignado_a\'\n                  ]\n    db.correspondencia.nro_de_documento.readable = True\n    db.correspondencia.nro_de_documento.writable = False\n    db.correspondencia.fecha_correspondencia.readable = True\n    db.correspondencia.fecha_correspondencia.writable = False\n    db.correspondencia.tipo_de_documento.readable = True\n    db.correspondencia.tipo_de_documento.writable = False\n    db.correspondencia.asunto.readable = True\n    db.correspondencia.asunto.writable = False\n    db.correspondencia.departamento_origen.readable = True\n    db.correspondencia.departamento_origen.writable = False\n    db.correspondencia.departamento_destino.readable = True\n    db.correspondencia.departamento_destino.writable = False\n    db.correspondencia.remitente.readable = True\n    db.correspondencia.remitente.writable = False\n    db.correspondencia.destinatario.readable = True\n    db.correspondencia.destinatario.writable = False        \n    db.correspondencia.asignado_a.readable = True\n    db.correspondencia.asignado_a.writable = True\n    \n    correspondencia = db(db.correspondencia.id==id).select().first()\n    form = SOLIDFORM(db.correspondencia, correspondencia, fields=fields, showid=False, readonly=False)\n    \n    if form.process(onsuccess=auth.archive).accepted:\n        session.flash = \'registro procesado con \xc3\xa9xito\'\n        redirect(URL(\'/listar_correspondencias_departamento\'))     \n\n    style = STYLE("""input[type="text"], textarea {width:100%; max-height: 50px;}\n                     .w2p_fw {padding-right: 10px; max-width:100%;}\n                     .w2p_fl {background: #eee;}\n                     .string {max-width: 300px;}\n                     .date {max-width: 80px;}""")\n    return dict(asignados = asignados,\n                form=DIV(style, form),\n                #form__factory=form_factory, form__readonly=form_readonly, form__edit=form_edit,\n                form_args=DIV(A(\'fields=default\', _href=URL(vars={\'fields\': \'default\'})), \' \',\n                               ))\n                               \ndef ver_historico():\n    id_registro = request.args(0)\n    #<a href="/sicoin/correspondencia/ver_correspondencia/4" class="w2p_trap button btn"><span class="icon magnifier icon-zoom-in"></span><span title="View" class="buttontext button">Vista</span></a>\n    db.correspondencia.id.represent= lambda value, row: CENTER(A(TAG[\'\'](SPAN(_class="icon magnifier icon-zoom-in"),SPAN(\'\', _class="buttontext button")),_class="w2p_trap button btn", _href = URL(\'ver_correspondencia/activo\', args = str(value))))                                                                   \n                                                                          \n    rows_actual = db(db.correspondencia.id==id_registro).select(db.correspondencia.modificado_el,\n                                                                             db.correspondencia.modificado_por,\n                                                                             db.correspondencia.nro_de_documento,\n                                                                             db.correspondencia.tipo_de_documento,\n                                                                             db.estatus.tipo_estatus, \n                                                                             db.correspondencia.remitente,\n                                                                             db.correspondencia.departamento_origen,\n                                                                             db.correspondencia.destinatario,\n                                                                             db.correspondencia.departamento_destino,\n                                                                             db.correspondencia.asunto,\n                                                                             db.correspondencia.observaciones,\n                                                                             db.correspondencia.id,\n                                                                     left=[db.estatus.on(db.estatus.id==db.correspondencia.estatus)])\n    db.correspondencia_archive.id.represent= lambda value, row: CENTER(A(TAG[\'\'](SPAN(_class="icon magnifier icon-zoom-in"),SPAN(\'\', _class="buttontext button")),_class="w2p_trap button btn", _href = URL(\'ver_correspondencia/archivo\', args = str(value))))\n    rows = db(db.correspondencia_archive.current_record==id_registro).select(db.correspondencia_archive.modificado_el,\n                                                                             db.correspondencia_archive.modificado_por,\n                                                                             db.correspondencia_archive.nro_de_documento,\n                                                                             db.correspondencia_archive.tipo_de_documento,\n                                                                             db.estatus.tipo_estatus, \n                                                                             db.correspondencia_archive.remitente,\n                                                                             db.correspondencia_archive.departamento_origen,\n                                                                             db.correspondencia_archive.destinatario,\n                                                                             db.correspondencia_archive.departamento_destino,\n                                                                             db.correspondencia_archive.asunto,\n                                                                             db.correspondencia_archive.observaciones,\n                                                                             db.correspondencia_archive.id,\n                                                                     left=[db.estatus.on(db.estatus.id==db.correspondencia_archive.estatus)])\n\n    headers = {\'correspondencia_archive.modificado_el\':{\'label\':\'Modificado el\',\n                       \'class\':\'\', #class name of the header\n                       \'width\':\'\', #width in pixels or %\n                       \'truncate\': 16, #truncate the content to...\n                       \'selected\': False #agregate class selected to this column\n                       },\n               \'correspondencia_archive.modificado_por\':{\'label\':\'Modificado por\',\n                            \'class\':\'\', #class name of the header\n                            \'width\':\'\', #width in pixels or %\n                            \'truncate\': 16, #truncate the content to...\n                            \'selected\': False #agregate class selected to this column\n                            },\n               \'correspondencia_archive.nro_de_documento\':{\'label\':\'Nro Documento\',\n                            \'class\':\'\', #class name of the header\n                            \'width\':\'\', #width in pixels or %\n                            \'truncate\': 16, #truncate the content to...\n                            \'selected\': False #agregate class selected to this column\n                            },\n               \'correspondencia_archive.tipo_de_documento\':{\'label\':\'Tipo Documento\',\n                            \'class\':\'\', #class name of the header\n                            \'width\':\'\', #width in pixels or %\n                            \'truncate\': 16, #truncate the content to...\n                            \'selected\': False #agregate class selected to this column\n                            },\n               \'estatus.tipo_estatus\':{\'label\':\'Estatus\',\n                            \'class\':\'\', #class name of the header\n                            \'width\':\'\', #width in pixels or %\n                            \'truncate\': 16, #truncate the content to...\n                            \'selected\': False #agregate class selected to this column\n                            },\n               \'correspondencia_archive.remitente\':{\'label\':\'Remitente\',\n                            \'class\':\'\', #class name of the header\n                            \'width\':\'\', #width in pixels or %\n                            \'truncate\': 50, #truncate the content to...\n                            \'selected\': False #agregate class selected to this column\n                            },\n               \'correspondencia_archive.departamento_origen\':{\'label\':\'Dpto. Origen\',\n                            \'class\':\'\', #class name of the header\n                            \'width\':\'\', #width in pixels or %\n                            \'truncate\': 16, #truncate the content to...\n                            \'selected\': False #agregate class selected to this column\n                            },\n               \'correspondencia_archive.destinatario\':{\'label\':\'Destinatario\',\n                            \'class\':\'\', #class name of the header\n                            \'width\':\'\', #width in pixels or %\n                            \'truncate\': 60, #truncate the content to...\n                            \'selected\': False #agregate class selected to this column\n                            },\n               \'correspondencia_archive.departamento_destino\':{\'label\':\'Depto. Destino\',\n                            \'class\':\'\', #class name of the header\n                            \'width\':\'\', #width in pixels or %\n                            \'truncate\': 16, #truncate the content to...\n                            \'selected\': False #agregate class selected to this column\n                            },\n                \'correspondencia_archive.asunto\':{\'label\':\'Asunto\',\n                            \'class\':\'\', #class name of the header\n                            \'width\':\'15%\', #width in pixels or %\n                            \'truncate\': 50, #truncate the content to...\n                            \'selected\': False #agregate class selected to this column\n                            },\n                \'correspondencia_archive.observaciones\':{\'label\':\'Observaciones\',\n                            \'class\':\'\', #class name of the header\n                            \'width\':\'20%\', #width in pixels or %\n                            \'truncate\': 50, #truncate the content to...\n                            \'selected\': False #agregate class selected to this column\n                            },\n                \'correspondencia_archive.id\':{\'label\':\'Acci\xc3\xb3n\',\n                            \'class\':\'\', #class name of the header\n                            \'width\':\'10%\', #width in pixels or %\n                            \'truncate\': 50, #truncate the content to...\n                            \'selected\': False, #agregate class selected to this column\n                            \'align\': \'center\'\n                            },\n           }\n    tabla = SQLTABLE(rows, headers = headers)\n    tabla_actual = SQLTABLE(rows_actual, truncate = 100)\n    return dict(table=tabla, tabla_actual =tabla_actual,id = id)\n    \n@auth.requires(auth.has_membership(\'recepcionista\') or auth.has_membership(\'master\') or auth.has_membership(\'supervisor\') or auth.has_membership(\'analista\'))\ndef listar_movimientos():\n    session.pag_previa = URL(\'listar_movimientos\') \n    links = None \n    fields = [db.correspondencia.nro_de_documento, db.correspondencia.tipo_de_documento,db.correspondencia.fecha_registro,\n              db.correspondencia.estatus,db.correspondencia.remitente,db.correspondencia.destinatario,db.correspondencia.asunto,]\n    orderby = [\'correspondencia.fecha_registro\',] \n    deletable = False\n    editable=True\n    details = True\n    create=True\n    documento = db(db.documento.tipo_de_documento=="movimiento").select(db.documento.id).first()\n    id_documento_movimiento = documento[\'id\']\n    query = (((db.correspondencia.registrado_por==auth.user.id) | (db.correspondencia.asignado_a==auth.user.id)) & (db.correspondencia.tipo_de_documento==id_documento_movimiento))\n    links = [lambda row: A(TAG[\'\'](SPAN(_class="icon icon-list"),SPAN(\'Hist\xc3\xb3rico\', _class="buttontext button", _title="Hist\xc3\xb3rico")), _class="w2p_trap button btn popup", _href=URL(\'ver_historico\', args=[row.id]))\n            ]\n    grid = SQLFORM.grid(query, fields = fields, selectable= lambda ids: reporte_entrega_movimiento(ids), user_signature=False, deletable=deletable, editable=editable, details = details,create=create, csv=False, orderby = orderby, links = links)\n    return dict(grid = grid)\n    \ndef reporte_entrega_movimiento(ids):\n    if not ids:\n        session.flash=\'No has seleccionado ninguna correspondencia\'\n    else: \n        #import gluon.contenttype\n        al_reporte=db(db.correspondencia.id.belongs(ids)).select(db.correspondencia.nro_de_documento, db.correspondencia.departamento_destino)\n        headers = {\'correspondencia.nro_de_documento\':{\'label\':\'Nro. Documento\',\n                       \'class\':\'\', #class name of the header\n                       \'width\':\'\', #width in pixels or %\n                       \'truncate\': 16, #truncate the content to...\n                       \'selected\': False #agregate class selected to this column\n                       },\n               \'correspondencia.departamento_destino\':{\'label\':\'Departamento Destino\',\n                            \'class\':\'\', #class name of the header\n                            \'width\':\'\', #width in pixels or %\n                            \'truncate\': 16, #truncate the content to...\n                            \'selected\': False #agregate class selected to this column\n                            },           \n           }\n        tabla_actual = SQLTABLE(al_reporte, truncate = 100, headers = headers)\n        session.reporte_movimiento = tabla_actual\n        session.flash="Reporte Generado"\n        #response.headers[\'Content-Type\']=gluon.contenttype.contenttype(\'.js\')\n        #return \'alert("alerta en javascript");\'\n        #response.render();\n        #session.flash=al_reporte[1]        \n\treturn ()\n\t\ndef reporte_entregas(ids):\n    if not ids:\n        session.flash=\'No has seleccionado ninguna correspondencia\'\n    else: \n        #import gluon.contenttype\n        al_reporte=db(db.correspondencia.id.belongs(ids)).select(db.correspondencia.nro_de_documento, db.correspondencia.departamento_destino)\n        headers = {\'correspondencia.nro_de_documento\':{\'label\':\'Nro. Documento\',\n                       \'class\':\'\', #class name of the header\n                       \'width\':\'\', #width in pixels or %\n                       \'truncate\': 16, #truncate the content to...\n                       \'selected\': False #agregate class selected to this column\n                       },\n               \'correspondencia.departamento_destino\':{\'label\':\'Departamento Destino\',\n                            \'class\':\'\', #class name of the header\n                            \'width\':\'\', #width in pixels or %\n                            \'truncate\': 16, #truncate the content to...\n                            \'selected\': False #agregate class selected to this column\n                            },           \n           }\n        tabla_actual = SQLTABLE(al_reporte, truncate = 100, headers = headers)\n        session.reporte = tabla_actual\n        #response.headers[\'Content-Type\']=gluon.contenttype.contenttype(\'.js\')\n        #return \'alert("alerta en javascript");\'\n        #response.render();\n        #session.flash=al_reporte[1]        \n\treturn ()\n\ndef devolver_mes(mes):\n    if mes == 1:\n        mes= "enero"\n    elif mes == 2:\n        mes= "febrero"\n    elif mes == 3:\n        mes= "marzo"\n    elif mes == 4:\n        mes= "abril"\n    elif mes == 5:\n        mes= "mayo"\n    elif mes == 6:\n        mes= "junio"\n    elif mes == 7:\n        mes= "julio"\n    elif mes == 8:\n        mes= "agosto"\n    elif mes == 9:\n        mes= "septiembre"    \n    elif mes == 10:\n        mes= "octubre"\n    elif mes == 11:\n        mes= "noviembre"\n    else:\n        mes = "diciembre"\n    return mes\n    \ndef usuariosDepartamento():\n    options = [OPTION(t.first_name + " " + t.last_name,_value=t.id) for t in db(db.auth_user.departamento==auth.user.departamento).select(db.auth_user.id, db.auth_user.first_name, db.auth_user.last_name)]\n    options.insert(0, OPTION(_value=""))\n    usuarios = SELECT(*options, _name="asignado_a", _id="correspondencia_asignados", _class="generic-widget")\n    #usuarios = db(db.auth_user.departamento==auth.user.departamento).select(db.auth_user.id, db.auth_user.first_name, db.auth_user.last_name)\n    return usuarios\n    \ndef correspondenciasDependencia():\n    session.documento = \'\'\n    session.dependencia = \'\'\n    form = SQLFORM.factory(Field(\'documento\',label = \'Tipo de Documento\', requires= IS_IN_DB(db, db.documento.id, \'%(tipo_de_documento)s\', \n                                                                                             zero =\'Seleccione un tipo de documento\')),\n                           Field(\'dependencia\', requires= IS_IN_DB(db, db.dependencia.id, \'%(dependencia)s\',\n                                                                   zero =\'Seleccione una dependencia\')),\n                           submit_button=\'Enviar\')\n    #form = SQLFORM.factory(db.documento, db.dependencia)\n    if form.process().accepted:\n        session.documento = form.vars.documento\n        session.dependencia = form.vars.dependencia\n        redirect(URL(\'/agregarCorrespondenciaMultiple\'))\n    else:\n        session.flash=\'Ha ocurrido un error\'\n    return dict(form = form)\n    \ndef agregarCorrespondenciaMultiple():\n\n################################ The core ######################################\n    # Specify structured fields for the multi-line form layout.\n    # A "None" indicates an empty line over which the precedent line spans\n    #fields = [Field(\'nro_de_documento\'), Field(\'fecha_correspondencia\')],\n    #             [Field(\'tipo_de_documento\'), Field(\'estatus\')],\n    #             [Field(\'asunto\')],\n    #             [Field(None), Field(None)],\n    #             [Field(\'remitente\'), Field(\'destinatario\')],\n    #             [Field(None, \'observaciones\')],\n    #             [Field(\'asignado_a\')]\n\n    \n    form = SOLIDFORM.factory([Field(\'nro_de_documento\'), Field(\'fecha_correspondencia\')],\n                             [Field(\'tipo_de_documento\'), Field(\'estatus\')],\n                             [Field(\'asunto\')],\n                             [Field(None), Field(None)],\n                             [Field(\'remitente\'), Field(\'destinatario\')],\n                             [Field(None, \'observaciones\')],\n                             [Field(\'asignado_a\')]\n)\n    if form.process().accepted:\n        session.flash = \'registro procesado con \xc3\xa9xito\'\n    style = STYLE("""input[type="text"], textarea {width:100%; max-height: 50px;}\n                     .w2p_fw {padding-right: 10px; max-width:100%;}\n                     .w2p_fl {background: #eee;}\n                     .string {max-width: 300px;}\n                     .date {max-width: 80px;}""")\n    return dict(form=DIV(style, form))\n\nresponse._vars=response._caller(agregarCorrespondenciaMultiple)\n'
p7
sS'snapshot'
p8
(dp9
S'exception'
p10
(dp11
S'__hash__'
p12
S"<method-wrapper '__hash__' of exceptions.TypeError object>"
p13
sS'__setattr__'
p14
S"<method-wrapper '__setattr__' of exceptions.TypeError object>"
p15
sS'__reduce_ex__'
p16
S'<built-in method __reduce_ex__ of exceptions.TypeError object>'
p17
sS'__getslice__'
p18
S"<method-wrapper '__getslice__' of exceptions.TypeError object>"
p19
sS'__getitem__'
p20
S"<method-wrapper '__getitem__' of exceptions.TypeError object>"
p21
sS'__setstate__'
p22
S'<built-in method __setstate__ of exceptions.TypeError object>'
p23
sS'__reduce__'
p24
S'<built-in method __reduce__ of exceptions.TypeError object>'
p25
sS'__str__'
p26
S"<method-wrapper '__str__' of exceptions.TypeError object>"
p27
sS'__format__'
p28
S'<built-in method __format__ of exceptions.TypeError object>'
p29
sS'__getattribute__'
p30
S"<method-wrapper '__getattribute__' of exceptions.TypeError object>"
p31
sS'__class__'
p32
S"<type 'exceptions.TypeError'>"
p33
sS'__unicode__'
p34
S'<built-in method __unicode__ of exceptions.TypeError object>'
p35
sS'__delattr__'
p36
S"<method-wrapper '__delattr__' of exceptions.TypeError object>"
p37
sS'__subclasshook__'
p38
S'<built-in method __subclasshook__ of type object>'
p39
sS'__repr__'
p40
S"<method-wrapper '__repr__' of exceptions.TypeError object>"
p41
sS'args'
p42
S"('expected string or buffer',)"
p43
sS'__dict__'
p44
S'{}'
p45
sS'__sizeof__'
p46
S'<built-in method __sizeof__ of exceptions.TypeError object>'
p47
sS'__doc__'
p48
S"'Inappropriate argument type.'"
p49
sS'__init__'
p50
S"<method-wrapper '__init__' of exceptions.TypeError object>"
p51
sS'__new__'
p52
S'<built-in method __new__ of type object>'
p53
ssS'evalue'
p54
S'expected string or buffer'
p55
sS'request'
p56
ccopy_reg
_reconstructor
p57
(cgluon.html
BEAUTIFY
p58
c__builtin__
object
p59
NtRp60
(dp61
S'attributes'
p62
(dp63
sS'components'
p64
(lp65
g57
(cgluon.html
TABLE
p66
g59
NtRp67
(dp68
g62
(dp69
S'level'
p70
I5
ssS'parent'
p71
Nsg64
(lp72
g57
(cgluon.html
TR
p73
g59
NtRp74
(dp75
g62
(dp76
sg71
g67
sg64
(lp77
g57
(cgluon.html
TD
p78
g59
NtRp79
(dp80
g62
(dp81
S'_style'
p82
S'font-weight:bold;vertical-align:top'
p83
ssg71
g74
sg64
(lp84
S'ajax'
p85
asbag57
(g78
g59
NtRp86
(dp87
g62
(dp88
S'_valign'
p89
S'top'
p90
ssg71
g74
sg64
(lp91
S':'
asbag57
(g78
g59
NtRp92
(dp93
g62
(dp94
sg71
g74
sg64
(lp95
g57
(g58
g59
NtRp96
(dp97
g62
(dp98
g70
I5
ssg71
g92
sg64
(lp99
S'False'
p100
asbasbasbag57
(g73
g59
NtRp101
(dp102
g62
(dp103
sg71
g67
sg64
(lp104
g57
(g78
g59
NtRp105
(dp106
g62
(dp107
g82
g83
ssg71
g101
sg64
(lp108
S'application'
p109
asbag57
(g78
g59
NtRp110
(dp111
g62
(dp112
g89
g90
ssg71
g101
sg64
(lp113
S':'
asbag57
(g78
g59
NtRp114
(dp115
g62
(dp116
sg71
g101
sg64
(lp117
g57
(g58
g59
NtRp118
(dp119
g62
(dp120
g70
I5
ssg71
g114
sg64
(lp121
S'sicoin'
p122
asbasbasbag57
(g73
g59
NtRp123
(dp124
g62
(dp125
sg71
g67
sg64
(lp126
g57
(g78
g59
NtRp127
(dp128
g62
(dp129
g82
g83
ssg71
g123
sg64
(lp130
g42
asbag57
(g78
g59
NtRp131
(dp132
g62
(dp133
g89
g90
ssg71
g123
sg64
(lp134
S':'
asbag57
(g78
g59
NtRp135
(dp136
g62
(dp137
sg71
g123
sg64
(lp138
g57
(g58
g59
NtRp139
(dp140
g62
(dp141
g70
I5
ssg71
g135
sg64
(lp142
g57
(g66
g59
NtRp143
(dp144
g62
(dp145
g70
I4
ssg71
Nsg64
(lp146
sbasbasbasbag57
(g73
g59
NtRp147
(dp148
g62
(dp149
sg71
g67
sg64
(lp150
g57
(g78
g59
NtRp151
(dp152
g62
(dp153
g82
g83
ssg71
g147
sg64
(lp154
S'body'
p155
asbag57
(g78
g59
NtRp156
(dp157
g62
(dp158
g89
g90
ssg71
g147
sg64
(lp159
S':'
asbag57
(g78
g59
NtRp160
(dp161
g62
(dp162
sg71
g147
sg64
(lp163
g57
(g58
g59
NtRp164
(dp165
g62
(dp166
g70
I5
ssg71
g160
sg64
(lp167
S'<cStringIO.StringO object at 0xa6800a0>'
p168
asbasbasbag57
(g73
g59
NtRp169
(dp170
g62
(dp171
sg71
g67
sg64
(lp172
g57
(g78
g59
NtRp173
(dp174
g62
(dp175
g82
g83
ssg71
g169
sg64
(lp176
S'cid'
p177
asbag57
(g78
g59
NtRp178
(dp179
g62
(dp180
g89
g90
ssg71
g169
sg64
(lp181
S':'
asbag57
(g78
g59
NtRp182
(dp183
g62
(dp184
sg71
g169
sg64
(lp185
g57
(g58
g59
NtRp186
(dp187
g62
(dp188
g70
I5
ssg71
g182
sg64
(lp189
S'None'
p190
asbasbasbag57
(g73
g59
NtRp191
(dp192
g62
(dp193
sg71
g67
sg64
(lp194
g57
(g78
g59
NtRp195
(dp196
g62
(dp197
g82
g83
ssg71
g191
sg64
(lp198
S'client'
p199
asbag57
(g78
g59
NtRp200
(dp201
g62
(dp202
g89
g90
ssg71
g191
sg64
(lp203
S':'
asbag57
(g78
g59
NtRp204
(dp205
g62
(dp206
sg71
g191
sg64
(lp207
g57
(g58
g59
NtRp208
(dp209
g62
(dp210
g70
I5
ssg71
g204
sg64
(lp211
S'190.169.221.43'
p212
asbasbasbag57
(g73
g59
NtRp213
(dp214
g62
(dp215
sg71
g67
sg64
(lp216
g57
(g78
g59
NtRp217
(dp218
g62
(dp219
g82
g83
ssg71
g213
sg64
(lp220
S'controller'
p221
asbag57
(g78
g59
NtRp222
(dp223
g62
(dp224
g89
g90
ssg71
g213
sg64
(lp225
S':'
asbag57
(g78
g59
NtRp226
(dp227
g62
(dp228
sg71
g213
sg64
(lp229
g57
(g58
g59
NtRp230
(dp231
g62
(dp232
g70
I5
ssg71
g226
sg64
(lp233
S'correspondencia'
p234
asbasbasbag57
(g73
g59
NtRp235
(dp236
g62
(dp237
sg71
g67
sg64
(lp238
g57
(g78
g59
NtRp239
(dp240
g62
(dp241
g82
g83
ssg71
g235
sg64
(lp242
S'cookies'
p243
asbag57
(g78
g59
NtRp244
(dp245
g62
(dp246
g89
g90
ssg71
g235
sg64
(lp247
S':'
asbag57
(g78
g59
NtRp248
(dp249
g62
(dp250
sg71
g235
sg64
(lp251
g57
(g58
g59
NtRp252
(dp253
g62
(dp254
g70
I5
ssg71
g248
sg64
(lp255
g57
(g66
g59
NtRp256
(dp257
g62
(dp258
g70
I4
ssg71
Nsg64
(lp259
g57
(g73
g59
NtRp260
(dp261
g62
(dp262
sg71
g256
sg64
(lp263
g57
(g78
g59
NtRp264
(dp265
g62
(dp266
g82
g83
ssg71
g260
sg64
(lp267
S'session_id_admin'
p268
asbag57
(g78
g59
NtRp269
(dp270
g62
(dp271
g89
g90
ssg71
g260
sg64
(lp272
S':'
asbag57
(g78
g59
NtRp273
(dp274
g62
(dp275
sg71
g260
sg64
(lp276
g57
(g58
g59
NtRp277
(dp278
g62
(dp279
g70
I4
ssg71
g273
sg64
(lp280
S'190.169.221.43-1fd46d30-6f47-480c-8fe8-2790caea62ba'
p281
ag57
(g66
g59
NtRp282
(dp283
g62
(dp284
g70
I3
ssg71
Nsg64
(lp285
g57
(g73
g59
NtRp286
(dp287
g62
(dp288
sg71
g282
sg64
(lp289
g57
(g78
g59
NtRp290
(dp291
g62
(dp292
g82
g83
ssg71
g286
sg64
(lp293
S'comment'
p294
asbag57
(g78
g59
NtRp295
(dp296
g62
(dp297
g89
g90
ssg71
g286
sg64
(lp298
S':'
asbag57
(g78
g59
NtRp299
(dp300
g62
(dp301
sg71
g286
sg64
(lp302
g57
(g58
g59
NtRp303
(dp304
g62
(dp305
g70
I3
ssg71
g299
sg64
(lp306
S''
asbasbasbag57
(g73
g59
NtRp307
(dp308
g62
(dp309
sg71
g282
sg64
(lp310
g57
(g78
g59
NtRp311
(dp312
g62
(dp313
g82
g83
ssg71
g307
sg64
(lp314
S'domain'
p315
asbag57
(g78
g59
NtRp316
(dp317
g62
(dp318
g89
g90
ssg71
g307
sg64
(lp319
S':'
asbag57
(g78
g59
NtRp320
(dp321
g62
(dp322
sg71
g307
sg64
(lp323
g57
(g58
g59
NtRp324
(dp325
g62
(dp326
g70
I3
ssg71
g320
sg64
(lp327
S''
asbasbasbag57
(g73
g59
NtRp328
(dp329
g62
(dp330
sg71
g282
sg64
(lp331
g57
(g78
g59
NtRp332
(dp333
g62
(dp334
g82
g83
ssg71
g328
sg64
(lp335
S'expires'
p336
asbag57
(g78
g59
NtRp337
(dp338
g62
(dp339
g89
g90
ssg71
g328
sg64
(lp340
S':'
asbag57
(g78
g59
NtRp341
(dp342
g62
(dp343
sg71
g328
sg64
(lp344
g57
(g58
g59
NtRp345
(dp346
g62
(dp347
g70
I3
ssg71
g341
sg64
(lp348
S''
asbasbasbag57
(g73
g59
NtRp349
(dp350
g62
(dp351
sg71
g282
sg64
(lp352
g57
(g78
g59
NtRp353
(dp354
g62
(dp355
g82
g83
ssg71
g349
sg64
(lp356
S'httponly'
p357
asbag57
(g78
g59
NtRp358
(dp359
g62
(dp360
g89
g90
ssg71
g349
sg64
(lp361
S':'
asbag57
(g78
g59
NtRp362
(dp363
g62
(dp364
sg71
g349
sg64
(lp365
g57
(g58
g59
NtRp366
(dp367
g62
(dp368
g70
I3
ssg71
g362
sg64
(lp369
S''
asbasbasbag57
(g73
g59
NtRp370
(dp371
g62
(dp372
sg71
g282
sg64
(lp373
g57
(g78
g59
NtRp374
(dp375
g62
(dp376
g82
g83
ssg71
g370
sg64
(lp377
S'max-age'
p378
asbag57
(g78
g59
NtRp379
(dp380
g62
(dp381
g89
g90
ssg71
g370
sg64
(lp382
S':'
asbag57
(g78
g59
NtRp383
(dp384
g62
(dp385
sg71
g370
sg64
(lp386
g57
(g58
g59
NtRp387
(dp388
g62
(dp389
g70
I3
ssg71
g383
sg64
(lp390
S''
asbasbasbag57
(g73
g59
NtRp391
(dp392
g62
(dp393
sg71
g282
sg64
(lp394
g57
(g78
g59
NtRp395
(dp396
g62
(dp397
g82
g83
ssg71
g391
sg64
(lp398
S'path'
p399
asbag57
(g78
g59
NtRp400
(dp401
g62
(dp402
g89
g90
ssg71
g391
sg64
(lp403
S':'
asbag57
(g78
g59
NtRp404
(dp405
g62
(dp406
sg71
g391
sg64
(lp407
g57
(g58
g59
NtRp408
(dp409
g62
(dp410
g70
I3
ssg71
g404
sg64
(lp411
S''
asbasbasbag57
(g73
g59
NtRp412
(dp413
g62
(dp414
sg71
g282
sg64
(lp415
g57
(g78
g59
NtRp416
(dp417
g62
(dp418
g82
g83
ssg71
g412
sg64
(lp419
S'secure'
p420
asbag57
(g78
g59
NtRp421
(dp422
g62
(dp423
g89
g90
ssg71
g412
sg64
(lp424
S':'
asbag57
(g78
g59
NtRp425
(dp426
g62
(dp427
sg71
g412
sg64
(lp428
g57
(g58
g59
NtRp429
(dp430
g62
(dp431
g70
I3
ssg71
g425
sg64
(lp432
S''
asbasbasbag57
(g73
g59
NtRp433
(dp434
g62
(dp435
sg71
g282
sg64
(lp436
g57
(g78
g59
NtRp437
(dp438
g62
(dp439
g82
g83
ssg71
g433
sg64
(lp440
S'version'
p441
asbag57
(g78
g59
NtRp442
(dp443
g62
(dp444
g89
g90
ssg71
g433
sg64
(lp445
S':'
asbag57
(g78
g59
NtRp446
(dp447
g62
(dp448
sg71
g433
sg64
(lp449
g57
(g58
g59
NtRp450
(dp451
g62
(dp452
g70
I3
ssg71
g446
sg64
(lp453
S''
asbasbasbasbasbasbasbag57
(g73
g59
NtRp454
(dp455
g62
(dp456
sg71
g256
sg64
(lp457
g57
(g78
g59
NtRp458
(dp459
g62
(dp460
g82
g83
ssg71
g454
sg64
(lp461
S'session_id_sicoin'
p462
asbag57
(g78
g59
NtRp463
(dp464
g62
(dp465
g89
g90
ssg71
g454
sg64
(lp466
S':'
asbag57
(g78
g59
NtRp467
(dp468
g62
(dp469
sg71
g454
sg64
(lp470
g57
(g58
g59
NtRp471
(dp472
g62
(dp473
g70
I4
ssg71
g467
sg64
(lp474
S'190.169.221.43-18ae5cff-6588-4bc2-9b03-12ce6f7f60af'
p475
ag57
(g66
g59
NtRp476
(dp477
g62
(dp478
g70
I3
ssg71
Nsg64
(lp479
g57
(g73
g59
NtRp480
(dp481
g62
(dp482
sg71
g476
sg64
(lp483
g57
(g78
g59
NtRp484
(dp485
g62
(dp486
g82
g83
ssg71
g480
sg64
(lp487
g294
asbag57
(g78
g59
NtRp488
(dp489
g62
(dp490
g89
g90
ssg71
g480
sg64
(lp491
S':'
asbag57
(g78
g59
NtRp492
(dp493
g62
(dp494
sg71
g480
sg64
(lp495
g57
(g58
g59
NtRp496
(dp497
g62
(dp498
g70
I3
ssg71
g492
sg64
(lp499
S''
asbasbasbag57
(g73
g59
NtRp500
(dp501
g62
(dp502
sg71
g476
sg64
(lp503
g57
(g78
g59
NtRp504
(dp505
g62
(dp506
g82
g83
ssg71
g500
sg64
(lp507
g315
asbag57
(g78
g59
NtRp508
(dp509
g62
(dp510
g89
g90
ssg71
g500
sg64
(lp511
S':'
asbag57
(g78
g59
NtRp512
(dp513
g62
(dp514
sg71
g500
sg64
(lp515
g57
(g58
g59
NtRp516
(dp517
g62
(dp518
g70
I3
ssg71
g512
sg64
(lp519
S''
asbasbasbag57
(g73
g59
NtRp520
(dp521
g62
(dp522
sg71
g476
sg64
(lp523
g57
(g78
g59
NtRp524
(dp525
g62
(dp526
g82
g83
ssg71
g520
sg64
(lp527
g336
asbag57
(g78
g59
NtRp528
(dp529
g62
(dp530
g89
g90
ssg71
g520
sg64
(lp531
S':'
asbag57
(g78
g59
NtRp532
(dp533
g62
(dp534
sg71
g520
sg64
(lp535
g57
(g58
g59
NtRp536
(dp537
g62
(dp538
g70
I3
ssg71
g532
sg64
(lp539
S''
asbasbasbag57
(g73
g59
NtRp540
(dp541
g62
(dp542
sg71
g476
sg64
(lp543
g57
(g78
g59
NtRp544
(dp545
g62
(dp546
g82
g83
ssg71
g540
sg64
(lp547
g357
asbag57
(g78
g59
NtRp548
(dp549
g62
(dp550
g89
g90
ssg71
g540
sg64
(lp551
S':'
asbag57
(g78
g59
NtRp552
(dp553
g62
(dp554
sg71
g540
sg64
(lp555
g57
(g58
g59
NtRp556
(dp557
g62
(dp558
g70
I3
ssg71
g552
sg64
(lp559
S''
asbasbasbag57
(g73
g59
NtRp560
(dp561
g62
(dp562
sg71
g476
sg64
(lp563
g57
(g78
g59
NtRp564
(dp565
g62
(dp566
g82
g83
ssg71
g560
sg64
(lp567
g378
asbag57
(g78
g59
NtRp568
(dp569
g62
(dp570
g89
g90
ssg71
g560
sg64
(lp571
S':'
asbag57
(g78
g59
NtRp572
(dp573
g62
(dp574
sg71
g560
sg64
(lp575
g57
(g58
g59
NtRp576
(dp577
g62
(dp578
g70
I3
ssg71
g572
sg64
(lp579
S''
asbasbasbag57
(g73
g59
NtRp580
(dp581
g62
(dp582
sg71
g476
sg64
(lp583
g57
(g78
g59
NtRp584
(dp585
g62
(dp586
g82
g83
ssg71
g580
sg64
(lp587
g399
asbag57
(g78
g59
NtRp588
(dp589
g62
(dp590
g89
g90
ssg71
g580
sg64
(lp591
S':'
asbag57
(g78
g59
NtRp592
(dp593
g62
(dp594
sg71
g580
sg64
(lp595
g57
(g58
g59
NtRp596
(dp597
g62
(dp598
g70
I3
ssg71
g592
sg64
(lp599
S''
asbasbasbag57
(g73
g59
NtRp600
(dp601
g62
(dp602
sg71
g476
sg64
(lp603
g57
(g78
g59
NtRp604
(dp605
g62
(dp606
g82
g83
ssg71
g600
sg64
(lp607
g420
asbag57
(g78
g59
NtRp608
(dp609
g62
(dp610
g89
g90
ssg71
g600
sg64
(lp611
S':'
asbag57
(g78
g59
NtRp612
(dp613
g62
(dp614
sg71
g600
sg64
(lp615
g57
(g58
g59
NtRp616
(dp617
g62
(dp618
g70
I3
ssg71
g612
sg64
(lp619
S''
asbasbasbag57
(g73
g59
NtRp620
(dp621
g62
(dp622
sg71
g476
sg64
(lp623
g57
(g78
g59
NtRp624
(dp625
g62
(dp626
g82
g83
ssg71
g620
sg64
(lp627
g441
asbag57
(g78
g59
NtRp628
(dp629
g62
(dp630
g89
g90
ssg71
g620
sg64
(lp631
S':'
asbag57
(g78
g59
NtRp632
(dp633
g62
(dp634
sg71
g620
sg64
(lp635
g57
(g58
g59
NtRp636
(dp637
g62
(dp638
g70
I3
ssg71
g632
sg64
(lp639
S''
asbasbasbasbasbasbasbasbasbasbasbag57
(g73
g59
NtRp640
(dp641
g62
(dp642
sg71
g67
sg64
(lp643
g57
(g78
g59
NtRp644
(dp645
g62
(dp646
g82
g83
ssg71
g640
sg64
(lp647
S'env'
p648
asbag57
(g78
g59
NtRp649
(dp650
g62
(dp651
g89
g90
ssg71
g640
sg64
(lp652
S':'
asbag57
(g78
g59
NtRp653
(dp654
g62
(dp655
sg71
g640
sg64
(lp656
g57
(g58
g59
NtRp657
(dp658
g62
(dp659
g70
I5
ssg71
g653
sg64
(lp660
g57
(g66
g59
NtRp661
(dp662
g62
(dp663
g70
I4
ssg71
Nsg64
(lp664
g57
(g73
g59
NtRp665
(dp666
g62
(dp667
sg71
g661
sg64
(lp668
g57
(g78
g59
NtRp669
(dp670
g62
(dp671
g82
g83
ssg71
g665
sg64
(lp672
S'app_folders'
p673
asbag57
(g78
g59
NtRp674
(dp675
g62
(dp676
g89
g90
ssg71
g665
sg64
(lp677
S':'
asbag57
(g78
g59
NtRp678
(dp679
g62
(dp680
sg71
g665
sg64
(lp681
g57
(g58
g59
NtRp682
(dp683
g62
(dp684
g70
I4
ssg71
g678
sg64
(lp685
S"set(['/home/perdomor/web2py/applications/sicoin/', '/home/perdomor/web2py/applications/admin/', '/home/perdomor/web2py/applications/siex/'])"
p686
asbasbasbag57
(g73
g59
NtRp687
(dp688
g62
(dp689
sg71
g661
sg64
(lp690
g57
(g78
g59
NtRp691
(dp692
g62
(dp693
g82
g83
ssg71
g687
sg64
(lp694
S'applications_parent'
p695
asbag57
(g78
g59
NtRp696
(dp697
g62
(dp698
g89
g90
ssg71
g687
sg64
(lp699
S':'
asbag57
(g78
g59
NtRp700
(dp701
g62
(dp702
sg71
g687
sg64
(lp703
g57
(g58
g59
NtRp704
(dp705
g62
(dp706
g70
I4
ssg71
g700
sg64
(lp707
S'/home/perdomor/web2py'
p708
asbasbasbag57
(g73
g59
NtRp709
(dp710
g62
(dp711
sg71
g661
sg64
(lp712
g57
(g78
g59
NtRp713
(dp714
g62
(dp715
g82
g83
ssg71
g709
sg64
(lp716
S'cmd_args'
p717
asbag57
(g78
g59
NtRp718
(dp719
g62
(dp720
g89
g90
ssg71
g709
sg64
(lp721
S':'
asbag57
(g78
g59
NtRp722
(dp723
g62
(dp724
sg71
g709
sg64
(lp725
g57
(g58
g59
NtRp726
(dp727
g62
(dp728
g70
I4
ssg71
g722
sg64
(lp729
g57
(g66
g59
NtRp730
(dp731
g62
(dp732
g70
I3
ssg71
Nsg64
(lp733
sbasbasbasbag57
(g73
g59
NtRp734
(dp735
g62
(dp736
sg71
g661
sg64
(lp737
g57
(g78
g59
NtRp738
(dp739
g62
(dp740
g82
g83
ssg71
g734
sg64
(lp741
S'cmd_options'
p742
asbag57
(g78
g59
NtRp743
(dp744
g62
(dp745
g89
g90
ssg71
g734
sg64
(lp746
S':'
asbag57
(g78
g59
NtRp747
(dp748
g62
(dp749
sg71
g734
sg64
(lp750
g57
(g58
g59
NtRp751
(dp752
g62
(dp753
g70
I4
ssg71
g747
sg64
(lp754
S"<Values at 0x9fe3c0c: {'verbose': False, 'ip': '190.169.221.43', 'with_scheduler': False, 'ips': ['127.0.1.1'], 'shutdown_timeout': 5, 'taskbar': False, 'port': 8080, 'maxthreads': None, 'softcron': False, 'server_name': 'perdomor', 'bpython': False, 'nogui': False, 'nocron': False, 'extcron': False, 'run_system_tests': False, 'test': None, 'folder': '/home/perdomor/web2py', 'config': '', 'import_models': False, 'winservice': '', 'shell': None, 'run': '', 'log_filename': 'httpserver.log', 'debuglevel': 30, 'args': [''], 'socket_timeout': 5, 'ssl_ca_certificate': None, 'scheduler': None, 'profiler_filename': None, 'ssl_private_key': '', 'scheduler_groups': None, 'password': '12345', 'request_queue_size': 5, 'ssl_certificate': '', 'cronjob': False, 'numthreads': None, 'quiet': False, 'interfaces': None, 'minthreads': None, 'timeout': 10, 'plain': False, 'nobanner': False, 'pid_filename': 'httpserver.pid'}>"
p755
asbasbasbag57
(g73
g59
NtRp756
(dp757
g62
(dp758
sg71
g661
sg64
(lp759
g57
(g78
g59
NtRp760
(dp761
g62
(dp762
g82
g83
ssg71
g756
sg64
(lp763
S'db_sessions'
p764
asbag57
(g78
g59
NtRp765
(dp766
g62
(dp767
g89
g90
ssg71
g756
sg64
(lp768
S':'
asbag57
(g78
g59
NtRp769
(dp770
g62
(dp771
sg71
g756
sg64
(lp772
g57
(g58
g59
NtRp773
(dp774
g62
(dp775
g70
I4
ssg71
g769
sg64
(lp776
S'set([])'
p777
asbasbasbag57
(g73
g59
NtRp778
(dp779
g62
(dp780
sg71
g661
sg64
(lp781
g57
(g78
g59
NtRp782
(dp783
g62
(dp784
g82
g83
ssg71
g778
sg64
(lp785
S'debugging'
p786
asbag57
(g78
g59
NtRp787
(dp788
g62
(dp789
g89
g90
ssg71
g778
sg64
(lp790
S':'
asbag57
(g78
g59
NtRp791
(dp792
g62
(dp793
sg71
g778
sg64
(lp794
g57
(g58
g59
NtRp795
(dp796
g62
(dp797
g70
I4
ssg71
g791
sg64
(lp798
g100
asbasbasbag57
(g73
g59
NtRp799
(dp800
g62
(dp801
sg71
g661
sg64
(lp802
g57
(g78
g59
NtRp803
(dp804
g62
(dp805
g82
g83
ssg71
g799
sg64
(lp806
S'gluon_parent'
p807
asbag57
(g78
g59
NtRp808
(dp809
g62
(dp810
g89
g90
ssg71
g799
sg64
(lp811
S':'
asbag57
(g78
g59
NtRp812
(dp813
g62
(dp814
sg71
g799
sg64
(lp815
g57
(g58
g59
NtRp816
(dp817
g62
(dp818
g70
I4
ssg71
g812
sg64
(lp819
S'/home/perdomor/web2py'
p820
asbasbasbag57
(g73
g59
NtRp821
(dp822
g62
(dp823
sg71
g661
sg64
(lp824
g57
(g78
g59
NtRp825
(dp826
g62
(dp827
g82
g83
ssg71
g821
sg64
(lp828
S'http_accept'
p829
asbag57
(g78
g59
NtRp830
(dp831
g62
(dp832
g89
g90
ssg71
g821
sg64
(lp833
S':'
asbag57
(g78
g59
NtRp834
(dp835
g62
(dp836
sg71
g821
sg64
(lp837
g57
(g58
g59
NtRp838
(dp839
g62
(dp840
g70
I4
ssg71
g834
sg64
(lp841
S'text/html,application/xhtml+xml,application/xml;q=0.9,*/*;q=0.8'
p842
asbasbasbag57
(g73
g59
NtRp843
(dp844
g62
(dp845
sg71
g661
sg64
(lp846
g57
(g78
g59
NtRp847
(dp848
g62
(dp849
g82
g83
ssg71
g843
sg64
(lp850
S'http_accept_encoding'
p851
asbag57
(g78
g59
NtRp852
(dp853
g62
(dp854
g89
g90
ssg71
g843
sg64
(lp855
S':'
asbag57
(g78
g59
NtRp856
(dp857
g62
(dp858
sg71
g843
sg64
(lp859
g57
(g58
g59
NtRp860
(dp861
g62
(dp862
g70
I4
ssg71
g856
sg64
(lp863
S'gzip, deflate'
p864
asbasbasbag57
(g73
g59
NtRp865
(dp866
g62
(dp867
sg71
g661
sg64
(lp868
g57
(g78
g59
NtRp869
(dp870
g62
(dp871
g82
g83
ssg71
g865
sg64
(lp872
S'http_accept_language'
p873
asbag57
(g78
g59
NtRp874
(dp875
g62
(dp876
g89
g90
ssg71
g865
sg64
(lp877
S':'
asbag57
(g78
g59
NtRp878
(dp879
g62
(dp880
sg71
g865
sg64
(lp881
g57
(g58
g59
NtRp882
(dp883
g62
(dp884
g70
I4
ssg71
g878
sg64
(lp885
S'es-es,es;q=0.8,en-us;q=0.5,en;q=0.3'
p886
asbasbasbag57
(g73
g59
NtRp887
(dp888
g62
(dp889
sg71
g661
sg64
(lp890
g57
(g78
g59
NtRp891
(dp892
g62
(dp893
g82
g83
ssg71
g887
sg64
(lp894
S'http_cache_control'
p895
asbag57
(g78
g59
NtRp896
(dp897
g62
(dp898
g89
g90
ssg71
g887
sg64
(lp899
S':'
asbag57
(g78
g59
NtRp900
(dp901
g62
(dp902
sg71
g887
sg64
(lp903
g57
(g58
g59
NtRp904
(dp905
g62
(dp906
g70
I4
ssg71
g900
sg64
(lp907
S'max-age=0'
p908
asbasbasbag57
(g73
g59
NtRp909
(dp910
g62
(dp911
sg71
g661
sg64
(lp912
g57
(g78
g59
NtRp913
(dp914
g62
(dp915
g82
g83
ssg71
g909
sg64
(lp916
S'http_connection'
p917
asbag57
(g78
g59
NtRp918
(dp919
g62
(dp920
g89
g90
ssg71
g909
sg64
(lp921
S':'
asbag57
(g78
g59
NtRp922
(dp923
g62
(dp924
sg71
g909
sg64
(lp925
g57
(g58
g59
NtRp926
(dp927
g62
(dp928
g70
I4
ssg71
g922
sg64
(lp929
S'keep-alive'
p930
asbasbasbag57
(g73
g59
NtRp931
(dp932
g62
(dp933
sg71
g661
sg64
(lp934
g57
(g78
g59
NtRp935
(dp936
g62
(dp937
g82
g83
ssg71
g931
sg64
(lp938
S'http_cookie'
p939
asbag57
(g78
g59
NtRp940
(dp941
g62
(dp942
g89
g90
ssg71
g931
sg64
(lp943
S':'
asbag57
(g78
g59
NtRp944
(dp945
g62
(dp946
sg71
g931
sg64
(lp947
g57
(g58
g59
NtRp948
(dp949
g62
(dp950
g70
I4
ssg71
g944
sg64
(lp951
S'session_id_admin=190.169.221.43-1fd46d30-6f47-480c-8fe8-2790caea62ba; session_id_sicoin=190.169.221.43-18ae5cff-6588-4bc2-9b03-12ce6f7f60af'
p952
asbasbasbag57
(g73
g59
NtRp953
(dp954
g62
(dp955
sg71
g661
sg64
(lp956
g57
(g78
g59
NtRp957
(dp958
g62
(dp959
g82
g83
ssg71
g953
sg64
(lp960
S'http_host'
p961
asbag57
(g78
g59
NtRp962
(dp963
g62
(dp964
g89
g90
ssg71
g953
sg64
(lp965
S':'
asbag57
(g78
g59
NtRp966
(dp967
g62
(dp968
sg71
g953
sg64
(lp969
g57
(g58
g59
NtRp970
(dp971
g62
(dp972
g70
I4
ssg71
g966
sg64
(lp973
S'190.169.221.43:8080'
p974
asbasbasbag57
(g73
g59
NtRp975
(dp976
g62
(dp977
sg71
g661
sg64
(lp978
g57
(g78
g59
NtRp979
(dp980
g62
(dp981
g82
g83
ssg71
g975
sg64
(lp982
S'http_user_agent'
p983
asbag57
(g78
g59
NtRp984
(dp985
g62
(dp986
g89
g90
ssg71
g975
sg64
(lp987
S':'
asbag57
(g78
g59
NtRp988
(dp989
g62
(dp990
sg71
g975
sg64
(lp991
g57
(g58
g59
NtRp992
(dp993
g62
(dp994
g70
I4
ssg71
g988
sg64
(lp995
S'Mozilla/5.0 (X11; Ubuntu; Linux i686; rv:10.0.2) Gecko/20100101 Firefox/10.0.2'
p996
asbasbasbag57
(g73
g59
NtRp997
(dp998
g62
(dp999
sg71
g661
sg64
(lp1000
g57
(g78
g59
NtRp1001
(dp1002
g62
(dp1003
g82
g83
ssg71
g997
sg64
(lp1004
S'is_jython'
p1005
asbag57
(g78
g59
NtRp1006
(dp1007
g62
(dp1008
g89
g90
ssg71
g997
sg64
(lp1009
S':'
asbag57
(g78
g59
NtRp1010
(dp1011
g62
(dp1012
sg71
g997
sg64
(lp1013
g57
(g58
g59
NtRp1014
(dp1015
g62
(dp1016
g70
I4
ssg71
g1010
sg64
(lp1017
g100
asbasbasbag57
(g73
g59
NtRp1018
(dp1019
g62
(dp1020
sg71
g661
sg64
(lp1021
g57
(g78
g59
NtRp1022
(dp1023
g62
(dp1024
g82
g83
ssg71
g1018
sg64
(lp1025
S'is_pypy'
p1026
asbag57
(g78
g59
NtRp1027
(dp1028
g62
(dp1029
g89
g90
ssg71
g1018
sg64
(lp1030
S':'
asbag57
(g78
g59
NtRp1031
(dp1032
g62
(dp1033
sg71
g1018
sg64
(lp1034
g57
(g58
g59
NtRp1035
(dp1036
g62
(dp1037
g70
I4
ssg71
g1031
sg64
(lp1038
g100
asbasbasbag57
(g73
g59
NtRp1039
(dp1040
g62
(dp1041
sg71
g661
sg64
(lp1042
g57
(g78
g59
NtRp1043
(dp1044
g62
(dp1045
g82
g83
ssg71
g1039
sg64
(lp1046
S'path_info'
p1047
asbag57
(g78
g59
NtRp1048
(dp1049
g62
(dp1050
g89
g90
ssg71
g1039
sg64
(lp1051
S':'
asbag57
(g78
g59
NtRp1052
(dp1053
g62
(dp1054
sg71
g1039
sg64
(lp1055
g57
(g58
g59
NtRp1056
(dp1057
g62
(dp1058
g70
I4
ssg71
g1052
sg64
(lp1059
S'/sicoin/correspondencia/agregarCorrespondenciaMultiple'
p1060
asbasbasbag57
(g73
g59
NtRp1061
(dp1062
g62
(dp1063
sg71
g661
sg64
(lp1064
g57
(g78
g59
NtRp1065
(dp1066
g62
(dp1067
g82
g83
ssg71
g1061
sg64
(lp1068
S'query_string'
p1069
asbag57
(g78
g59
NtRp1070
(dp1071
g62
(dp1072
g89
g90
ssg71
g1061
sg64
(lp1073
S':'
asbag57
(g78
g59
NtRp1074
(dp1075
g62
(dp1076
sg71
g1061
sg64
(lp1077
g57
(g58
g59
NtRp1078
(dp1079
g62
(dp1080
g70
I4
ssg71
g1074
sg64
(lp1081
S''
asbasbasbag57
(g73
g59
NtRp1082
(dp1083
g62
(dp1084
sg71
g661
sg64
(lp1085
g57
(g78
g59
NtRp1086
(dp1087
g62
(dp1088
g82
g83
ssg71
g1082
sg64
(lp1089
S'remote_addr'
p1090
asbag57
(g78
g59
NtRp1091
(dp1092
g62
(dp1093
g89
g90
ssg71
g1082
sg64
(lp1094
S':'
asbag57
(g78
g59
NtRp1095
(dp1096
g62
(dp1097
sg71
g1082
sg64
(lp1098
g57
(g58
g59
NtRp1099
(dp1100
g62
(dp1101
g70
I4
ssg71
g1095
sg64
(lp1102
g212
asbasbasbag57
(g73
g59
NtRp1103
(dp1104
g62
(dp1105
sg71
g661
sg64
(lp1106
g57
(g78
g59
NtRp1107
(dp1108
g62
(dp1109
g82
g83
ssg71
g1103
sg64
(lp1110
S'remote_port'
p1111
asbag57
(g78
g59
NtRp1112
(dp1113
g62
(dp1114
g89
g90
ssg71
g1103
sg64
(lp1115
S':'
asbag57
(g78
g59
NtRp1116
(dp1117
g62
(dp1118
sg71
g1103
sg64
(lp1119
g57
(g58
g59
NtRp1120
(dp1121
g62
(dp1122
g70
I4
ssg71
g1116
sg64
(lp1123
S'34448'
p1124
asbasbasbag57
(g73
g59
NtRp1125
(dp1126
g62
(dp1127
sg71
g661
sg64
(lp1128
g57
(g78
g59
NtRp1129
(dp1130
g62
(dp1131
g82
g83
ssg71
g1125
sg64
(lp1132
S'request_method'
p1133
asbag57
(g78
g59
NtRp1134
(dp1135
g62
(dp1136
g89
g90
ssg71
g1125
sg64
(lp1137
S':'
asbag57
(g78
g59
NtRp1138
(dp1139
g62
(dp1140
sg71
g1125
sg64
(lp1141
g57
(g58
g59
NtRp1142
(dp1143
g62
(dp1144
g70
I4
ssg71
g1138
sg64
(lp1145
S'GET'
p1146
asbasbasbag57
(g73
g59
NtRp1147
(dp1148
g62
(dp1149
sg71
g661
sg64
(lp1150
g57
(g78
g59
NtRp1151
(dp1152
g62
(dp1153
g82
g83
ssg71
g1147
sg64
(lp1154
S'request_uri'
p1155
asbag57
(g78
g59
NtRp1156
(dp1157
g62
(dp1158
g89
g90
ssg71
g1147
sg64
(lp1159
S':'
asbag57
(g78
g59
NtRp1160
(dp1161
g62
(dp1162
sg71
g1147
sg64
(lp1163
g57
(g58
g59
NtRp1164
(dp1165
g62
(dp1166
g70
I4
ssg71
g1160
sg64
(lp1167
g1060
asbasbasbag57
(g73
g59
NtRp1168
(dp1169
g62
(dp1170
sg71
g661
sg64
(lp1171
g57
(g78
g59
NtRp1172
(dp1173
g62
(dp1174
g82
g83
ssg71
g1168
sg64
(lp1175
S'script_name'
p1176
asbag57
(g78
g59
NtRp1177
(dp1178
g62
(dp1179
g89
g90
ssg71
g1168
sg64
(lp1180
S':'
asbag57
(g78
g59
NtRp1181
(dp1182
g62
(dp1183
sg71
g1168
sg64
(lp1184
g57
(g58
g59
NtRp1185
(dp1186
g62
(dp1187
g70
I4
ssg71
g1181
sg64
(lp1188
S''
asbasbasbag57
(g73
g59
NtRp1189
(dp1190
g62
(dp1191
sg71
g661
sg64
(lp1192
g57
(g78
g59
NtRp1193
(dp1194
g62
(dp1195
g82
g83
ssg71
g1189
sg64
(lp1196
S'server_name'
p1197
asbag57
(g78
g59
NtRp1198
(dp1199
g62
(dp1200
g89
g90
ssg71
g1189
sg64
(lp1201
S':'
asbag57
(g78
g59
NtRp1202
(dp1203
g62
(dp1204
sg71
g1189
sg64
(lp1205
g57
(g58
g59
NtRp1206
(dp1207
g62
(dp1208
g70
I4
ssg71
g1202
sg64
(lp1209
S'perdomor'
p1210
asbasbasbag57
(g73
g59
NtRp1211
(dp1212
g62
(dp1213
sg71
g661
sg64
(lp1214
g57
(g78
g59
NtRp1215
(dp1216
g62
(dp1217
g82
g83
ssg71
g1211
sg64
(lp1218
S'server_port'
p1219
asbag57
(g78
g59
NtRp1220
(dp1221
g62
(dp1222
g89
g90
ssg71
g1211
sg64
(lp1223
S':'
asbag57
(g78
g59
NtRp1224
(dp1225
g62
(dp1226
sg71
g1211
sg64
(lp1227
g57
(g58
g59
NtRp1228
(dp1229
g62
(dp1230
g70
I4
ssg71
g1224
sg64
(lp1231
S'8080'
p1232
asbasbasbag57
(g73
g59
NtRp1233
(dp1234
g62
(dp1235
sg71
g661
sg64
(lp1236
g57
(g78
g59
NtRp1237
(dp1238
g62
(dp1239
g82
g83
ssg71
g1233
sg64
(lp1240
S'server_protocol'
p1241
asbag57
(g78
g59
NtRp1242
(dp1243
g62
(dp1244
g89
g90
ssg71
g1233
sg64
(lp1245
S':'
asbag57
(g78
g59
NtRp1246
(dp1247
g62
(dp1248
sg71
g1233
sg64
(lp1249
g57
(g58
g59
NtRp1250
(dp1251
g62
(dp1252
g70
I4
ssg71
g1246
sg64
(lp1253
S'HTTP/1.1'
p1254
asbasbasbag57
(g73
g59
NtRp1255
(dp1256
g62
(dp1257
sg71
g661
sg64
(lp1258
g57
(g78
g59
NtRp1259
(dp1260
g62
(dp1261
g82
g83
ssg71
g1255
sg64
(lp1262
S'server_software'
p1263
asbag57
(g78
g59
NtRp1264
(dp1265
g62
(dp1266
g89
g90
ssg71
g1255
sg64
(lp1267
S':'
asbag57
(g78
g59
NtRp1268
(dp1269
g62
(dp1270
sg71
g1255
sg64
(lp1271
g57
(g58
g59
NtRp1272
(dp1273
g62
(dp1274
g70
I4
ssg71
g1268
sg64
(lp1275
S'Rocket 1.2.4'
p1276
asbasbasbag57
(g73
g59
NtRp1277
(dp1278
g62
(dp1279
sg71
g661
sg64
(lp1280
g57
(g78
g59
NtRp1281
(dp1282
g62
(dp1283
g82
g83
ssg71
g1277
sg64
(lp1284
S'web2py_crontype'
p1285
asbag57
(g78
g59
NtRp1286
(dp1287
g62
(dp1288
g89
g90
ssg71
g1277
sg64
(lp1289
S':'
asbag57
(g78
g59
NtRp1290
(dp1291
g62
(dp1292
sg71
g1277
sg64
(lp1293
g57
(g58
g59
NtRp1294
(dp1295
g62
(dp1296
g70
I4
ssg71
g1290
sg64
(lp1297
S'hard'
p1298
asbasbasbag57
(g73
g59
NtRp1299
(dp1300
g62
(dp1301
sg71
g661
sg64
(lp1302
g57
(g78
g59
NtRp1303
(dp1304
g62
(dp1305
g82
g83
ssg71
g1299
sg64
(lp1306
S'web2py_path'
p1307
asbag57
(g78
g59
NtRp1308
(dp1309
g62
(dp1310
g89
g90
ssg71
g1299
sg64
(lp1311
S':'
asbag57
(g78
g59
NtRp1312
(dp1313
g62
(dp1314
sg71
g1299
sg64
(lp1315
g57
(g58
g59
NtRp1316
(dp1317
g62
(dp1318
g70
I4
ssg71
g1312
sg64
(lp1319
g708
asbasbasbag57
(g73
g59
NtRp1320
(dp1321
g62
(dp1322
sg71
g661
sg64
(lp1323
g57
(g78
g59
NtRp1324
(dp1325
g62
(dp1326
g82
g83
ssg71
g1320
sg64
(lp1327
S'web2py_version'
p1328
asbag57
(g78
g59
NtRp1329
(dp1330
g62
(dp1331
g89
g90
ssg71
g1320
sg64
(lp1332
S':'
asbag57
(g78
g59
NtRp1333
(dp1334
g62
(dp1335
sg71
g1320
sg64
(lp1336
g57
(g58
g59
NtRp1337
(dp1338
g62
(dp1339
g70
I4
ssg71
g1333
sg64
(lp1340
g57
(g66
g59
NtRp1341
(dp1342
g62
(dp1343
g70
I3
ssg71
Nsg64
(lp1344
g57
(g73
g59
NtRp1345
(dp1346
g62
(dp1347
sg71
g1341
sg64
(lp1348
g57
(g78
g59
NtRp1349
(dp1350
g62
(dp1351
sg71
g1345
sg64
(lp1352
g57
(g58
g59
NtRp1353
(dp1354
g62
(dp1355
g70
I3
ssg71
g1349
sg64
(lp1356
S'2'
asbasbasbag57
(g73
g59
NtRp1357
(dp1358
g62
(dp1359
sg71
g1341
sg64
(lp1360
g57
(g78
g59
NtRp1361
(dp1362
g62
(dp1363
sg71
g1357
sg64
(lp1364
g57
(g58
g59
NtRp1365
(dp1366
g62
(dp1367
g70
I3
ssg71
g1361
sg64
(lp1368
S'0'
asbasbasbag57
(g73
g59
NtRp1369
(dp1370
g62
(dp1371
sg71
g1341
sg64
(lp1372
g57
(g78
g59
NtRp1373
(dp1374
g62
(dp1375
sg71
g1369
sg64
(lp1376
g57
(g58
g59
NtRp1377
(dp1378
g62
(dp1379
g70
I3
ssg71
g1373
sg64
(lp1380
S'9'
asbasbasbag57
(g73
g59
NtRp1381
(dp1382
g62
(dp1383
sg71
g1341
sg64
(lp1384
g57
(g78
g59
NtRp1385
(dp1386
g62
(dp1387
sg71
g1381
sg64
(lp1388
g57
(g58
g59
NtRp1389
(dp1390
g62
(dp1391
g70
I3
ssg71
g1385
sg64
(lp1392
S'datetime.datetime(2012, 9, 13, 23, 51, 30)'
p1393
asbasbasbag57
(g73
g59
NtRp1394
(dp1395
g62
(dp1396
sg71
g1341
sg64
(lp1397
g57
(g78
g59
NtRp1398
(dp1399
g62
(dp1400
sg71
g1394
sg64
(lp1401
g57
(g58
g59
NtRp1402
(dp1403
g62
(dp1404
g70
I3
ssg71
g1398
sg64
(lp1405
S'stable'
p1406
asbasbasbasbasbasbasbag57
(g73
g59
NtRp1407
(dp1408
g62
(dp1409
sg71
g661
sg64
(lp1410
g57
(g78
g59
NtRp1411
(dp1412
g62
(dp1413
g82
g83
ssg71
g1407
sg64
(lp1414
S'wsgi_errors'
p1415
asbag57
(g78
g59
NtRp1416
(dp1417
g62
(dp1418
g89
g90
ssg71
g1407
sg64
(lp1419
S':'
asbag57
(g78
g59
NtRp1420
(dp1421
g62
(dp1422
sg71
g1407
sg64
(lp1423
g57
(g58
g59
NtRp1424
(dp1425
g62
(dp1426
g70
I4
ssg71
g1420
sg64
(lp1427
S"<open file '<stderr>', mode 'w' at 0xb774d0d0>"
p1428
asbasbasbag57
(g73
g59
NtRp1429
(dp1430
g62
(dp1431
sg71
g661
sg64
(lp1432
g57
(g78
g59
NtRp1433
(dp1434
g62
(dp1435
g82
g83
ssg71
g1429
sg64
(lp1436
S'wsgi_file_wrapper'
p1437
asbag57
(g78
g59
NtRp1438
(dp1439
g62
(dp1440
g89
g90
ssg71
g1429
sg64
(lp1441
S':'
asbag57
(g78
g59
NtRp1442
(dp1443
g62
(dp1444
sg71
g1429
sg64
(lp1445
g57
(g58
g59
NtRp1446
(dp1447
g62
(dp1448
g70
I4
ssg71
g1442
sg64
(lp1449
S'<class wsgiref.util.FileWrapper at 0x9f9186c>'
p1450
asbasbasbag57
(g73
g59
NtRp1451
(dp1452
g62
(dp1453
sg71
g661
sg64
(lp1454
g57
(g78
g59
NtRp1455
(dp1456
g62
(dp1457
g82
g83
ssg71
g1451
sg64
(lp1458
S'wsgi_input'
p1459
asbag57
(g78
g59
NtRp1460
(dp1461
g62
(dp1462
g89
g90
ssg71
g1451
sg64
(lp1463
S':'
asbag57
(g78
g59
NtRp1464
(dp1465
g62
(dp1466
sg71
g1451
sg64
(lp1467
g57
(g58
g59
NtRp1468
(dp1469
g62
(dp1470
g70
I4
ssg71
g1464
sg64
(lp1471
S'<socket._fileobject object at 0xa458bec>'
p1472
asbasbasbag57
(g73
g59
NtRp1473
(dp1474
g62
(dp1475
sg71
g661
sg64
(lp1476
g57
(g78
g59
NtRp1477
(dp1478
g62
(dp1479
g82
g83
ssg71
g1473
sg64
(lp1480
S'wsgi_multiprocess'
p1481
asbag57
(g78
g59
NtRp1482
(dp1483
g62
(dp1484
g89
g90
ssg71
g1473
sg64
(lp1485
S':'
asbag57
(g78
g59
NtRp1486
(dp1487
g62
(dp1488
sg71
g1473
sg64
(lp1489
g57
(g58
g59
NtRp1490
(dp1491
g62
(dp1492
g70
I4
ssg71
g1486
sg64
(lp1493
g100
asbasbasbag57
(g73
g59
NtRp1494
(dp1495
g62
(dp1496
sg71
g661
sg64
(lp1497
g57
(g78
g59
NtRp1498
(dp1499
g62
(dp1500
g82
g83
ssg71
g1494
sg64
(lp1501
S'wsgi_multithread'
p1502
asbag57
(g78
g59
NtRp1503
(dp1504
g62
(dp1505
g89
g90
ssg71
g1494
sg64
(lp1506
S':'
asbag57
(g78
g59
NtRp1507
(dp1508
g62
(dp1509
sg71
g1494
sg64
(lp1510
g57
(g58
g59
NtRp1511
(dp1512
g62
(dp1513
g70
I4
ssg71
g1507
sg64
(lp1514
S'True'
p1515
asbasbasbag57
(g73
g59
NtRp1516
(dp1517
g62
(dp1518
sg71
g661
sg64
(lp1519
g57
(g78
g59
NtRp1520
(dp1521
g62
(dp1522
g82
g83
ssg71
g1516
sg64
(lp1523
S'wsgi_run_once'
p1524
asbag57
(g78
g59
NtRp1525
(dp1526
g62
(dp1527
g89
g90
ssg71
g1516
sg64
(lp1528
S':'
asbag57
(g78
g59
NtRp1529
(dp1530
g62
(dp1531
sg71
g1516
sg64
(lp1532
g57
(g58
g59
NtRp1533
(dp1534
g62
(dp1535
g70
I4
ssg71
g1529
sg64
(lp1536
g100
asbasbasbag57
(g73
g59
NtRp1537
(dp1538
g62
(dp1539
sg71
g661
sg64
(lp1540
g57
(g78
g59
NtRp1541
(dp1542
g62
(dp1543
g82
g83
ssg71
g1537
sg64
(lp1544
S'wsgi_url_scheme'
p1545
asbag57
(g78
g59
NtRp1546
(dp1547
g62
(dp1548
g89
g90
ssg71
g1537
sg64
(lp1549
S':'
asbag57
(g78
g59
NtRp1550
(dp1551
g62
(dp1552
sg71
g1537
sg64
(lp1553
g57
(g58
g59
NtRp1554
(dp1555
g62
(dp1556
g70
I4
ssg71
g1550
sg64
(lp1557
S'http'
p1558
asbasbasbag57
(g73
g59
NtRp1559
(dp1560
g62
(dp1561
sg71
g661
sg64
(lp1562
g57
(g78
g59
NtRp1563
(dp1564
g62
(dp1565
g82
g83
ssg71
g1559
sg64
(lp1566
S'wsgi_version'
p1567
asbag57
(g78
g59
NtRp1568
(dp1569
g62
(dp1570
g89
g90
ssg71
g1559
sg64
(lp1571
S':'
asbag57
(g78
g59
NtRp1572
(dp1573
g62
(dp1574
sg71
g1559
sg64
(lp1575
g57
(g58
g59
NtRp1576
(dp1577
g62
(dp1578
g70
I4
ssg71
g1572
sg64
(lp1579
g57
(g66
g59
NtRp1580
(dp1581
g62
(dp1582
g70
I3
ssg71
Nsg64
(lp1583
g57
(g73
g59
NtRp1584
(dp1585
g62
(dp1586
sg71
g1580
sg64
(lp1587
g57
(g78
g59
NtRp1588
(dp1589
g62
(dp1590
sg71
g1584
sg64
(lp1591
g57
(g58
g59
NtRp1592
(dp1593
g62
(dp1594
g70
I3
ssg71
g1588
sg64
(lp1595
S'1'
asbasbasbag57
(g73
g59
NtRp1596
(dp1597
g62
(dp1598
sg71
g1580
sg64
(lp1599
g57
(g78
g59
NtRp1600
(dp1601
g62
(dp1602
sg71
g1596
sg64
(lp1603
g57
(g58
g59
NtRp1604
(dp1605
g62
(dp1606
g70
I3
ssg71
g1600
sg64
(lp1607
S'0'
asbasbasbasbasbasbasbasbasbasbasbag57
(g73
g59
NtRp1608
(dp1609
g62
(dp1610
sg71
g67
sg64
(lp1611
g57
(g78
g59
NtRp1612
(dp1613
g62
(dp1614
g82
g83
ssg71
g1608
sg64
(lp1615
S'extension'
p1616
asbag57
(g78
g59
NtRp1617
(dp1618
g62
(dp1619
g89
g90
ssg71
g1608
sg64
(lp1620
S':'
asbag57
(g78
g59
NtRp1621
(dp1622
g62
(dp1623
sg71
g1608
sg64
(lp1624
g57
(g58
g59
NtRp1625
(dp1626
g62
(dp1627
g70
I5
ssg71
g1621
sg64
(lp1628
S'html'
p1629
asbasbasbag57
(g73
g59
NtRp1630
(dp1631
g62
(dp1632
sg71
g67
sg64
(lp1633
g57
(g78
g59
NtRp1634
(dp1635
g62
(dp1636
g82
g83
ssg71
g1630
sg64
(lp1637
S'folder'
p1638
asbag57
(g78
g59
NtRp1639
(dp1640
g62
(dp1641
g89
g90
ssg71
g1630
sg64
(lp1642
S':'
asbag57
(g78
g59
NtRp1643
(dp1644
g62
(dp1645
sg71
g1630
sg64
(lp1646
g57
(g58
g59
NtRp1647
(dp1648
g62
(dp1649
g70
I5
ssg71
g1643
sg64
(lp1650
S'/home/perdomor/web2py/applications/sicoin/'
p1651
asbasbasbag57
(g73
g59
NtRp1652
(dp1653
g62
(dp1654
sg71
g67
sg64
(lp1655
g57
(g78
g59
NtRp1656
(dp1657
g62
(dp1658
g82
g83
ssg71
g1652
sg64
(lp1659
S'function'
p1660
asbag57
(g78
g59
NtRp1661
(dp1662
g62
(dp1663
g89
g90
ssg71
g1652
sg64
(lp1664
S':'
asbag57
(g78
g59
NtRp1665
(dp1666
g62
(dp1667
sg71
g1652
sg64
(lp1668
g57
(g58
g59
NtRp1669
(dp1670
g62
(dp1671
g70
I5
ssg71
g1665
sg64
(lp1672
S'agregarCorrespondenciaMultiple'
p1673
asbasbasbag57
(g73
g59
NtRp1674
(dp1675
g62
(dp1676
sg71
g67
sg64
(lp1677
g57
(g78
g59
NtRp1678
(dp1679
g62
(dp1680
g82
g83
ssg71
g1674
sg64
(lp1681
S'get_vars'
p1682
asbag57
(g78
g59
NtRp1683
(dp1684
g62
(dp1685
g89
g90
ssg71
g1674
sg64
(lp1686
S':'
asbag57
(g78
g59
NtRp1687
(dp1688
g62
(dp1689
sg71
g1674
sg64
(lp1690
g57
(g58
g59
NtRp1691
(dp1692
g62
(dp1693
g70
I5
ssg71
g1687
sg64
(lp1694
g57
(g66
g59
NtRp1695
(dp1696
g62
(dp1697
g70
I4
ssg71
Nsg64
(lp1698
sbasbasbasbag57
(g73
g59
NtRp1699
(dp1700
g62
(dp1701
sg71
g67
sg64
(lp1702
g57
(g78
g59
NtRp1703
(dp1704
g62
(dp1705
g82
g83
ssg71
g1699
sg64
(lp1706
S'global_settings'
p1707
asbag57
(g78
g59
NtRp1708
(dp1709
g62
(dp1710
g89
g90
ssg71
g1699
sg64
(lp1711
S':'
asbag57
(g78
g59
NtRp1712
(dp1713
g62
(dp1714
sg71
g1699
sg64
(lp1715
g57
(g58
g59
NtRp1716
(dp1717
g62
(dp1718
g70
I5
ssg71
g1712
sg64
(lp1719
g57
(g66
g59
NtRp1720
(dp1721
g62
(dp1722
g70
I4
ssg71
Nsg64
(lp1723
g57
(g73
g59
NtRp1724
(dp1725
g62
(dp1726
sg71
g1720
sg64
(lp1727
g57
(g78
g59
NtRp1728
(dp1729
g62
(dp1730
g82
g83
ssg71
g1724
sg64
(lp1731
g673
asbag57
(g78
g59
NtRp1732
(dp1733
g62
(dp1734
g89
g90
ssg71
g1724
sg64
(lp1735
S':'
asbag57
(g78
g59
NtRp1736
(dp1737
g62
(dp1738
sg71
g1724
sg64
(lp1739
g57
(g58
g59
NtRp1740
(dp1741
g62
(dp1742
g70
I4
ssg71
g1736
sg64
(lp1743
S"set(['/home/perdomor/web2py/applications/sicoin/', '/home/perdomor/web2py/applications/admin/', '/home/perdomor/web2py/applications/siex/'])"
p1744
asbasbasbag57
(g73
g59
NtRp1745
(dp1746
g62
(dp1747
sg71
g1720
sg64
(lp1748
g57
(g78
g59
NtRp1749
(dp1750
g62
(dp1751
g82
g83
ssg71
g1745
sg64
(lp1752
g695
asbag57
(g78
g59
NtRp1753
(dp1754
g62
(dp1755
g89
g90
ssg71
g1745
sg64
(lp1756
S':'
asbag57
(g78
g59
NtRp1757
(dp1758
g62
(dp1759
sg71
g1745
sg64
(lp1760
g57
(g58
g59
NtRp1761
(dp1762
g62
(dp1763
g70
I4
ssg71
g1757
sg64
(lp1764
g708
asbasbasbag57
(g73
g59
NtRp1765
(dp1766
g62
(dp1767
sg71
g1720
sg64
(lp1768
g57
(g78
g59
NtRp1769
(dp1770
g62
(dp1771
g82
g83
ssg71
g1765
sg64
(lp1772
g717
asbag57
(g78
g59
NtRp1773
(dp1774
g62
(dp1775
g89
g90
ssg71
g1765
sg64
(lp1776
S':'
asbag57
(g78
g59
NtRp1777
(dp1778
g62
(dp1779
sg71
g1765
sg64
(lp1780
g57
(g58
g59
NtRp1781
(dp1782
g62
(dp1783
g70
I4
ssg71
g1777
sg64
(lp1784
g57
(g66
g59
NtRp1785
(dp1786
g62
(dp1787
g70
I3
ssg71
Nsg64
(lp1788
sbasbasbasbag57
(g73
g59
NtRp1789
(dp1790
g62
(dp1791
sg71
g1720
sg64
(lp1792
g57
(g78
g59
NtRp1793
(dp1794
g62
(dp1795
g82
g83
ssg71
g1789
sg64
(lp1796
g742
asbag57
(g78
g59
NtRp1797
(dp1798
g62
(dp1799
g89
g90
ssg71
g1789
sg64
(lp1800
S':'
asbag57
(g78
g59
NtRp1801
(dp1802
g62
(dp1803
sg71
g1789
sg64
(lp1804
g57
(g58
g59
NtRp1805
(dp1806
g62
(dp1807
g70
I4
ssg71
g1801
sg64
(lp1808
S"<Values at 0x9fe3c0c: {'verbose': False, 'ip': '190.169.221.43', 'with_scheduler': False, 'ips': ['127.0.1.1'], 'shutdown_timeout': 5, 'taskbar': False, 'port': 8080, 'maxthreads': None, 'softcron': False, 'server_name': 'perdomor', 'bpython': False, 'nogui': False, 'nocron': False, 'extcron': False, 'run_system_tests': False, 'test': None, 'folder': '/home/perdomor/web2py', 'config': '', 'import_models': False, 'winservice': '', 'shell': None, 'run': '', 'log_filename': 'httpserver.log', 'debuglevel': 30, 'args': [''], 'socket_timeout': 5, 'ssl_ca_certificate': None, 'scheduler': None, 'profiler_filename': None, 'ssl_private_key': '', 'scheduler_groups': None, 'password': '12345', 'request_queue_size': 5, 'ssl_certificate': '', 'cronjob': False, 'numthreads': None, 'quiet': False, 'interfaces': None, 'minthreads': None, 'timeout': 10, 'plain': False, 'nobanner': False, 'pid_filename': 'httpserver.pid'}>"
p1809
asbasbasbag57
(g73
g59
NtRp1810
(dp1811
g62
(dp1812
sg71
g1720
sg64
(lp1813
g57
(g78
g59
NtRp1814
(dp1815
g62
(dp1816
g82
g83
ssg71
g1810
sg64
(lp1817
g764
asbag57
(g78
g59
NtRp1818
(dp1819
g62
(dp1820
g89
g90
ssg71
g1810
sg64
(lp1821
S':'
asbag57
(g78
g59
NtRp1822
(dp1823
g62
(dp1824
sg71
g1810
sg64
(lp1825
g57
(g58
g59
NtRp1826
(dp1827
g62
(dp1828
g70
I4
ssg71
g1822
sg64
(lp1829
S'set([])'
p1830
asbasbasbag57
(g73
g59
NtRp1831
(dp1832
g62
(dp1833
sg71
g1720
sg64
(lp1834
g57
(g78
g59
NtRp1835
(dp1836
g62
(dp1837
g82
g83
ssg71
g1831
sg64
(lp1838
g786
asbag57
(g78
g59
NtRp1839
(dp1840
g62
(dp1841
g89
g90
ssg71
g1831
sg64
(lp1842
S':'
asbag57
(g78
g59
NtRp1843
(dp1844
g62
(dp1845
sg71
g1831
sg64
(lp1846
g57
(g58
g59
NtRp1847
(dp1848
g62
(dp1849
g70
I4
ssg71
g1843
sg64
(lp1850
g100
asbasbasbag57
(g73
g59
NtRp1851
(dp1852
g62
(dp1853
sg71
g1720
sg64
(lp1854
g57
(g78
g59
NtRp1855
(dp1856
g62
(dp1857
g82
g83
ssg71
g1851
sg64
(lp1858
g807
asbag57
(g78
g59
NtRp1859
(dp1860
g62
(dp1861
g89
g90
ssg71
g1851
sg64
(lp1862
S':'
asbag57
(g78
g59
NtRp1863
(dp1864
g62
(dp1865
sg71
g1851
sg64
(lp1866
g57
(g58
g59
NtRp1867
(dp1868
g62
(dp1869
g70
I4
ssg71
g1863
sg64
(lp1870
g820
asbasbasbag57
(g73
g59
NtRp1871
(dp1872
g62
(dp1873
sg71
g1720
sg64
(lp1874
g57
(g78
g59
NtRp1875
(dp1876
g62
(dp1877
g82
g83
ssg71
g1871
sg64
(lp1878
g1005
asbag57
(g78
g59
NtRp1879
(dp1880
g62
(dp1881
g89
g90
ssg71
g1871
sg64
(lp1882
S':'
asbag57
(g78
g59
NtRp1883
(dp1884
g62
(dp1885
sg71
g1871
sg64
(lp1886
g57
(g58
g59
NtRp1887
(dp1888
g62
(dp1889
g70
I4
ssg71
g1883
sg64
(lp1890
g100
asbasbasbag57
(g73
g59
NtRp1891
(dp1892
g62
(dp1893
sg71
g1720
sg64
(lp1894
g57
(g78
g59
NtRp1895
(dp1896
g62
(dp1897
g82
g83
ssg71
g1891
sg64
(lp1898
g1026
asbag57
(g78
g59
NtRp1899
(dp1900
g62
(dp1901
g89
g90
ssg71
g1891
sg64
(lp1902
S':'
asbag57
(g78
g59
NtRp1903
(dp1904
g62
(dp1905
sg71
g1891
sg64
(lp1906
g57
(g58
g59
NtRp1907
(dp1908
g62
(dp1909
g70
I4
ssg71
g1903
sg64
(lp1910
g100
asbasbasbag57
(g73
g59
NtRp1911
(dp1912
g62
(dp1913
sg71
g1720
sg64
(lp1914
g57
(g78
g59
NtRp1915
(dp1916
g62
(dp1917
g82
g83
ssg71
g1911
sg64
(lp1918
g1285
asbag57
(g78
g59
NtRp1919
(dp1920
g62
(dp1921
g89
g90
ssg71
g1911
sg64
(lp1922
S':'
asbag57
(g78
g59
NtRp1923
(dp1924
g62
(dp1925
sg71
g1911
sg64
(lp1926
g57
(g58
g59
NtRp1927
(dp1928
g62
(dp1929
g70
I4
ssg71
g1923
sg64
(lp1930
g1298
asbasbasbag57
(g73
g59
NtRp1931
(dp1932
g62
(dp1933
sg71
g1720
sg64
(lp1934
g57
(g78
g59
NtRp1935
(dp1936
g62
(dp1937
g82
g83
ssg71
g1931
sg64
(lp1938
g1328
asbag57
(g78
g59
NtRp1939
(dp1940
g62
(dp1941
g89
g90
ssg71
g1931
sg64
(lp1942
S':'
asbag57
(g78
g59
NtRp1943
(dp1944
g62
(dp1945
sg71
g1931
sg64
(lp1946
g57
(g58
g59
NtRp1947
(dp1948
g62
(dp1949
g70
I4
ssg71
g1943
sg64
(lp1950
g57
(g66
g59
NtRp1951
(dp1952
g62
(dp1953
g70
I3
ssg71
Nsg64
(lp1954
g57
(g73
g59
NtRp1955
(dp1956
g62
(dp1957
sg71
g1951
sg64
(lp1958
g57
(g78
g59
NtRp1959
(dp1960
g62
(dp1961
sg71
g1955
sg64
(lp1962
g57
(g58
g59
NtRp1963
(dp1964
g62
(dp1965
g70
I3
ssg71
g1959
sg64
(lp1966
S'2'
asbasbasbag57
(g73
g59
NtRp1967
(dp1968
g62
(dp1969
sg71
g1951
sg64
(lp1970
g57
(g78
g59
NtRp1971
(dp1972
g62
(dp1973
sg71
g1967
sg64
(lp1974
g57
(g58
g59
NtRp1975
(dp1976
g62
(dp1977
g70
I3
ssg71
g1971
sg64
(lp1978
S'0'
asbasbasbag57
(g73
g59
NtRp1979
(dp1980
g62
(dp1981
sg71
g1951
sg64
(lp1982
g57
(g78
g59
NtRp1983
(dp1984
g62
(dp1985
sg71
g1979
sg64
(lp1986
g57
(g58
g59
NtRp1987
(dp1988
g62
(dp1989
g70
I3
ssg71
g1983
sg64
(lp1990
S'9'
asbasbasbag57
(g73
g59
NtRp1991
(dp1992
g62
(dp1993
sg71
g1951
sg64
(lp1994
g57
(g78
g59
NtRp1995
(dp1996
g62
(dp1997
sg71
g1991
sg64
(lp1998
g57
(g58
g59
NtRp1999
(dp2000
g62
(dp2001
g70
I3
ssg71
g1995
sg64
(lp2002
S'datetime.datetime(2012, 9, 13, 23, 51, 30)'
p2003
asbasbasbag57
(g73
g59
NtRp2004
(dp2005
g62
(dp2006
sg71
g1951
sg64
(lp2007
g57
(g78
g59
NtRp2008
(dp2009
g62
(dp2010
sg71
g2004
sg64
(lp2011
g57
(g58
g59
NtRp2012
(dp2013
g62
(dp2014
g70
I3
ssg71
g2008
sg64
(lp2015
g1406
asbasbasbasbasbasbasbasbasbasbasbag57
(g73
g59
NtRp2016
(dp2017
g62
(dp2018
sg71
g67
sg64
(lp2019
g57
(g78
g59
NtRp2020
(dp2021
g62
(dp2022
g82
g83
ssg71
g2016
sg64
(lp2023
S'is_https'
p2024
asbag57
(g78
g59
NtRp2025
(dp2026
g62
(dp2027
g89
g90
ssg71
g2016
sg64
(lp2028
S':'
asbag57
(g78
g59
NtRp2029
(dp2030
g62
(dp2031
sg71
g2016
sg64
(lp2032
g57
(g58
g59
NtRp2033
(dp2034
g62
(dp2035
g70
I5
ssg71
g2029
sg64
(lp2036
g100
asbasbasbag57
(g73
g59
NtRp2037
(dp2038
g62
(dp2039
sg71
g67
sg64
(lp2040
g57
(g78
g59
NtRp2041
(dp2042
g62
(dp2043
g82
g83
ssg71
g2037
sg64
(lp2044
S'is_local'
p2045
asbag57
(g78
g59
NtRp2046
(dp2047
g62
(dp2048
g89
g90
ssg71
g2037
sg64
(lp2049
S':'
asbag57
(g78
g59
NtRp2050
(dp2051
g62
(dp2052
sg71
g2037
sg64
(lp2053
g57
(g58
g59
NtRp2054
(dp2055
g62
(dp2056
g70
I5
ssg71
g2050
sg64
(lp2057
g1515
asbasbasbag57
(g73
g59
NtRp2058
(dp2059
g62
(dp2060
sg71
g67
sg64
(lp2061
g57
(g78
g59
NtRp2062
(dp2063
g62
(dp2064
g82
g83
ssg71
g2058
sg64
(lp2065
S'is_restful'
p2066
asbag57
(g78
g59
NtRp2067
(dp2068
g62
(dp2069
g89
g90
ssg71
g2058
sg64
(lp2070
S':'
asbag57
(g78
g59
NtRp2071
(dp2072
g62
(dp2073
sg71
g2058
sg64
(lp2074
g57
(g58
g59
NtRp2075
(dp2076
g62
(dp2077
g70
I5
ssg71
g2071
sg64
(lp2078
g100
asbasbasbag57
(g73
g59
NtRp2079
(dp2080
g62
(dp2081
sg71
g67
sg64
(lp2082
g57
(g78
g59
NtRp2083
(dp2084
g62
(dp2085
g82
g83
ssg71
g2079
sg64
(lp2086
S'now'
p2087
asbag57
(g78
g59
NtRp2088
(dp2089
g62
(dp2090
g89
g90
ssg71
g2079
sg64
(lp2091
S':'
asbag57
(g78
g59
NtRp2092
(dp2093
g62
(dp2094
sg71
g2079
sg64
(lp2095
g57
(g58
g59
NtRp2096
(dp2097
g62
(dp2098
g70
I5
ssg71
g2092
sg64
(lp2099
S'datetime.datetime(2012, 12, 16, 10, 8, 24, 289052)'
p2100
asbasbasbag57
(g73
g59
NtRp2101
(dp2102
g62
(dp2103
sg71
g67
sg64
(lp2104
g57
(g78
g59
NtRp2105
(dp2106
g62
(dp2107
g82
g83
ssg71
g2101
sg64
(lp2108
S'post_vars'
p2109
asbag57
(g78
g59
NtRp2110
(dp2111
g62
(dp2112
g89
g90
ssg71
g2101
sg64
(lp2113
S':'
asbag57
(g78
g59
NtRp2114
(dp2115
g62
(dp2116
sg71
g2101
sg64
(lp2117
g57
(g58
g59
NtRp2118
(dp2119
g62
(dp2120
g70
I5
ssg71
g2114
sg64
(lp2121
g57
(g66
g59
NtRp2122
(dp2123
g62
(dp2124
g70
I4
ssg71
Nsg64
(lp2125
sbasbasbasbag57
(g73
g59
NtRp2126
(dp2127
g62
(dp2128
sg71
g67
sg64
(lp2129
g57
(g78
g59
NtRp2130
(dp2131
g62
(dp2132
g82
g83
ssg71
g2126
sg64
(lp2133
S'raw_args'
p2134
asbag57
(g78
g59
NtRp2135
(dp2136
g62
(dp2137
g89
g90
ssg71
g2126
sg64
(lp2138
S':'
asbag57
(g78
g59
NtRp2139
(dp2140
g62
(dp2141
sg71
g2126
sg64
(lp2142
g57
(g58
g59
NtRp2143
(dp2144
g62
(dp2145
g70
I5
ssg71
g2139
sg64
(lp2146
S'None'
p2147
asbasbasbag57
(g73
g59
NtRp2148
(dp2149
g62
(dp2150
sg71
g67
sg64
(lp2151
g57
(g78
g59
NtRp2152
(dp2153
g62
(dp2154
g82
g83
ssg71
g2148
sg64
(lp2155
S'raw_extension'
p2156
asbag57
(g78
g59
NtRp2157
(dp2158
g62
(dp2159
g89
g90
ssg71
g2148
sg64
(lp2160
S':'
asbag57
(g78
g59
NtRp2161
(dp2162
g62
(dp2163
sg71
g2148
sg64
(lp2164
g57
(g58
g59
NtRp2165
(dp2166
g62
(dp2167
g70
I5
ssg71
g2161
sg64
(lp2168
S'None'
p2169
asbasbasbag57
(g73
g59
NtRp2170
(dp2171
g62
(dp2172
sg71
g67
sg64
(lp2173
g57
(g78
g59
NtRp2174
(dp2175
g62
(dp2176
g82
g83
ssg71
g2170
sg64
(lp2177
S'url'
p2178
asbag57
(g78
g59
NtRp2179
(dp2180
g62
(dp2181
g89
g90
ssg71
g2170
sg64
(lp2182
S':'
asbag57
(g78
g59
NtRp2183
(dp2184
g62
(dp2185
sg71
g2170
sg64
(lp2186
g57
(g58
g59
NtRp2187
(dp2188
g62
(dp2189
g70
I5
ssg71
g2183
sg64
(lp2190
g1060
asbasbasbag57
(g73
g59
NtRp2191
(dp2192
g62
(dp2193
sg71
g67
sg64
(lp2194
g57
(g78
g59
NtRp2195
(dp2196
g62
(dp2197
g82
g83
ssg71
g2191
sg64
(lp2198
S'utcnow'
p2199
asbag57
(g78
g59
NtRp2200
(dp2201
g62
(dp2202
g89
g90
ssg71
g2191
sg64
(lp2203
S':'
asbag57
(g78
g59
NtRp2204
(dp2205
g62
(dp2206
sg71
g2191
sg64
(lp2207
g57
(g58
g59
NtRp2208
(dp2209
g62
(dp2210
g70
I5
ssg71
g2204
sg64
(lp2211
S'datetime.datetime(2012, 12, 16, 14, 38, 24, 289089)'
p2212
asbasbasbag57
(g73
g59
NtRp2213
(dp2214
g62
(dp2215
sg71
g67
sg64
(lp2216
g57
(g78
g59
NtRp2217
(dp2218
g62
(dp2219
g82
g83
ssg71
g2213
sg64
(lp2220
S'uuid'
p2221
asbag57
(g78
g59
NtRp2222
(dp2223
g62
(dp2224
g89
g90
ssg71
g2213
sg64
(lp2225
S':'
asbag57
(g78
g59
NtRp2226
(dp2227
g62
(dp2228
sg71
g2213
sg64
(lp2229
g57
(g58
g59
NtRp2230
(dp2231
g62
(dp2232
g70
I5
ssg71
g2226
sg64
(lp2233
S'sicoin/190.169.221.43.2012-12-16.10-08-24.9ffe2dff-57bf-47ae-b1df-b88fcd88a810'
p2234
asbasbasbag57
(g73
g59
NtRp2235
(dp2236
g62
(dp2237
sg71
g67
sg64
(lp2238
g57
(g78
g59
NtRp2239
(dp2240
g62
(dp2241
g82
g83
ssg71
g2235
sg64
(lp2242
S'vars'
p2243
asbag57
(g78
g59
NtRp2244
(dp2245
g62
(dp2246
g89
g90
ssg71
g2235
sg64
(lp2247
S':'
asbag57
(g78
g59
NtRp2248
(dp2249
g62
(dp2250
sg71
g2235
sg64
(lp2251
g57
(g58
g59
NtRp2252
(dp2253
g62
(dp2254
g70
I5
ssg71
g2248
sg64
(lp2255
g57
(g66
g59
NtRp2256
(dp2257
g62
(dp2258
g70
I4
ssg71
Nsg64
(lp2259
sbasbasbasbag57
(g73
g59
NtRp2260
(dp2261
g62
(dp2262
sg71
g67
sg64
(lp2263
g57
(g78
g59
NtRp2264
(dp2265
g62
(dp2266
g82
g83
ssg71
g2260
sg64
(lp2267
S'wsgi'
p2268
asbag57
(g78
g59
NtRp2269
(dp2270
g62
(dp2271
g89
g90
ssg71
g2260
sg64
(lp2272
S':'
asbag57
(g78
g59
NtRp2273
(dp2274
g62
(dp2275
sg71
g2260
sg64
(lp2276
g57
(g58
g59
NtRp2277
(dp2278
g62
(dp2279
g70
I5
ssg71
g2273
sg64
(lp2280
g57
(g66
g59
NtRp2281
(dp2282
g62
(dp2283
g70
I4
ssg71
Nsg64
(lp2284
g57
(g73
g59
NtRp2285
(dp2286
g62
(dp2287
sg71
g2281
sg64
(lp2288
g57
(g78
g59
NtRp2289
(dp2290
g62
(dp2291
g82
g83
ssg71
g2285
sg64
(lp2292
S'environ'
p2293
asbag57
(g78
g59
NtRp2294
(dp2295
g62
(dp2296
g89
g90
ssg71
g2285
sg64
(lp2297
S':'
asbag57
(g78
g59
NtRp2298
(dp2299
g62
(dp2300
sg71
g2285
sg64
(lp2301
g57
(g58
g59
NtRp2302
(dp2303
g62
(dp2304
g70
I4
ssg71
g2298
sg64
(lp2305
g57
(g66
g59
NtRp2306
(dp2307
g62
(dp2308
g70
I3
ssg71
Nsg64
(lp2309
g57
(g73
g59
NtRp2310
(dp2311
g62
(dp2312
sg71
g2306
sg64
(lp2313
g57
(g78
g59
NtRp2314
(dp2315
g62
(dp2316
g82
g83
ssg71
g2310
sg64
(lp2317
S'HTTP_ACCEPT'
p2318
asbag57
(g78
g59
NtRp2319
(dp2320
g62
(dp2321
g89
g90
ssg71
g2310
sg64
(lp2322
S':'
asbag57
(g78
g59
NtRp2323
(dp2324
g62
(dp2325
sg71
g2310
sg64
(lp2326
g57
(g58
g59
NtRp2327
(dp2328
g62
(dp2329
g70
I3
ssg71
g2323
sg64
(lp2330
g842
asbasbasbag57
(g73
g59
NtRp2331
(dp2332
g62
(dp2333
sg71
g2306
sg64
(lp2334
g57
(g78
g59
NtRp2335
(dp2336
g62
(dp2337
g82
g83
ssg71
g2331
sg64
(lp2338
S'HTTP_ACCEPT_ENCODING'
p2339
asbag57
(g78
g59
NtRp2340
(dp2341
g62
(dp2342
g89
g90
ssg71
g2331
sg64
(lp2343
S':'
asbag57
(g78
g59
NtRp2344
(dp2345
g62
(dp2346
sg71
g2331
sg64
(lp2347
g57
(g58
g59
NtRp2348
(dp2349
g62
(dp2350
g70
I3
ssg71
g2344
sg64
(lp2351
g864
asbasbasbag57
(g73
g59
NtRp2352
(dp2353
g62
(dp2354
sg71
g2306
sg64
(lp2355
g57
(g78
g59
NtRp2356
(dp2357
g62
(dp2358
g82
g83
ssg71
g2352
sg64
(lp2359
S'HTTP_ACCEPT_LANGUAGE'
p2360
asbag57
(g78
g59
NtRp2361
(dp2362
g62
(dp2363
g89
g90
ssg71
g2352
sg64
(lp2364
S':'
asbag57
(g78
g59
NtRp2365
(dp2366
g62
(dp2367
sg71
g2352
sg64
(lp2368
g57
(g58
g59
NtRp2369
(dp2370
g62
(dp2371
g70
I3
ssg71
g2365
sg64
(lp2372
g886
asbasbasbag57
(g73
g59
NtRp2373
(dp2374
g62
(dp2375
sg71
g2306
sg64
(lp2376
g57
(g78
g59
NtRp2377
(dp2378
g62
(dp2379
g82
g83
ssg71
g2373
sg64
(lp2380
S'HTTP_CACHE_CONTROL'
p2381
asbag57
(g78
g59
NtRp2382
(dp2383
g62
(dp2384
g89
g90
ssg71
g2373
sg64
(lp2385
S':'
asbag57
(g78
g59
NtRp2386
(dp2387
g62
(dp2388
sg71
g2373
sg64
(lp2389
g57
(g58
g59
NtRp2390
(dp2391
g62
(dp2392
g70
I3
ssg71
g2386
sg64
(lp2393
g908
asbasbasbag57
(g73
g59
NtRp2394
(dp2395
g62
(dp2396
sg71
g2306
sg64
(lp2397
g57
(g78
g59
NtRp2398
(dp2399
g62
(dp2400
g82
g83
ssg71
g2394
sg64
(lp2401
S'HTTP_CONNECTION'
p2402
asbag57
(g78
g59
NtRp2403
(dp2404
g62
(dp2405
g89
g90
ssg71
g2394
sg64
(lp2406
S':'
asbag57
(g78
g59
NtRp2407
(dp2408
g62
(dp2409
sg71
g2394
sg64
(lp2410
g57
(g58
g59
NtRp2411
(dp2412
g62
(dp2413
g70
I3
ssg71
g2407
sg64
(lp2414
g930
asbasbasbag57
(g73
g59
NtRp2415
(dp2416
g62
(dp2417
sg71
g2306
sg64
(lp2418
g57
(g78
g59
NtRp2419
(dp2420
g62
(dp2421
g82
g83
ssg71
g2415
sg64
(lp2422
S'HTTP_COOKIE'
p2423
asbag57
(g78
g59
NtRp2424
(dp2425
g62
(dp2426
g89
g90
ssg71
g2415
sg64
(lp2427
S':'
asbag57
(g78
g59
NtRp2428
(dp2429
g62
(dp2430
sg71
g2415
sg64
(lp2431
g57
(g58
g59
NtRp2432
(dp2433
g62
(dp2434
g70
I3
ssg71
g2428
sg64
(lp2435
g952
asbasbasbag57
(g73
g59
NtRp2436
(dp2437
g62
(dp2438
sg71
g2306
sg64
(lp2439
g57
(g78
g59
NtRp2440
(dp2441
g62
(dp2442
g82
g83
ssg71
g2436
sg64
(lp2443
S'HTTP_HOST'
p2444
asbag57
(g78
g59
NtRp2445
(dp2446
g62
(dp2447
g89
g90
ssg71
g2436
sg64
(lp2448
S':'
asbag57
(g78
g59
NtRp2449
(dp2450
g62
(dp2451
sg71
g2436
sg64
(lp2452
g57
(g58
g59
NtRp2453
(dp2454
g62
(dp2455
g70
I3
ssg71
g2449
sg64
(lp2456
g974
asbasbasbag57
(g73
g59
NtRp2457
(dp2458
g62
(dp2459
sg71
g2306
sg64
(lp2460
g57
(g78
g59
NtRp2461
(dp2462
g62
(dp2463
g82
g83
ssg71
g2457
sg64
(lp2464
S'HTTP_USER_AGENT'
p2465
asbag57
(g78
g59
NtRp2466
(dp2467
g62
(dp2468
g89
g90
ssg71
g2457
sg64
(lp2469
S':'
asbag57
(g78
g59
NtRp2470
(dp2471
g62
(dp2472
sg71
g2457
sg64
(lp2473
g57
(g58
g59
NtRp2474
(dp2475
g62
(dp2476
g70
I3
ssg71
g2470
sg64
(lp2477
g996
asbasbasbag57
(g73
g59
NtRp2478
(dp2479
g62
(dp2480
sg71
g2306
sg64
(lp2481
g57
(g78
g59
NtRp2482
(dp2483
g62
(dp2484
g82
g83
ssg71
g2478
sg64
(lp2485
S'PATH_INFO'
p2486
asbag57
(g78
g59
NtRp2487
(dp2488
g62
(dp2489
g89
g90
ssg71
g2478
sg64
(lp2490
S':'
asbag57
(g78
g59
NtRp2491
(dp2492
g62
(dp2493
sg71
g2478
sg64
(lp2494
g57
(g58
g59
NtRp2495
(dp2496
g62
(dp2497
g70
I3
ssg71
g2491
sg64
(lp2498
g1060
asbasbasbag57
(g73
g59
NtRp2499
(dp2500
g62
(dp2501
sg71
g2306
sg64
(lp2502
g57
(g78
g59
NtRp2503
(dp2504
g62
(dp2505
g82
g83
ssg71
g2499
sg64
(lp2506
S'QUERY_STRING'
p2507
asbag57
(g78
g59
NtRp2508
(dp2509
g62
(dp2510
g89
g90
ssg71
g2499
sg64
(lp2511
S':'
asbag57
(g78
g59
NtRp2512
(dp2513
g62
(dp2514
sg71
g2499
sg64
(lp2515
g57
(g58
g59
NtRp2516
(dp2517
g62
(dp2518
g70
I3
ssg71
g2512
sg64
(lp2519
S''
asbasbasbag57
(g73
g59
NtRp2520
(dp2521
g62
(dp2522
sg71
g2306
sg64
(lp2523
g57
(g78
g59
NtRp2524
(dp2525
g62
(dp2526
g82
g83
ssg71
g2520
sg64
(lp2527
S'REMOTE_ADDR'
p2528
asbag57
(g78
g59
NtRp2529
(dp2530
g62
(dp2531
g89
g90
ssg71
g2520
sg64
(lp2532
S':'
asbag57
(g78
g59
NtRp2533
(dp2534
g62
(dp2535
sg71
g2520
sg64
(lp2536
g57
(g58
g59
NtRp2537
(dp2538
g62
(dp2539
g70
I3
ssg71
g2533
sg64
(lp2540
g212
asbasbasbag57
(g73
g59
NtRp2541
(dp2542
g62
(dp2543
sg71
g2306
sg64
(lp2544
g57
(g78
g59
NtRp2545
(dp2546
g62
(dp2547
g82
g83
ssg71
g2541
sg64
(lp2548
S'REMOTE_PORT'
p2549
asbag57
(g78
g59
NtRp2550
(dp2551
g62
(dp2552
g89
g90
ssg71
g2541
sg64
(lp2553
S':'
asbag57
(g78
g59
NtRp2554
(dp2555
g62
(dp2556
sg71
g2541
sg64
(lp2557
g57
(g58
g59
NtRp2558
(dp2559
g62
(dp2560
g70
I3
ssg71
g2554
sg64
(lp2561
g1124
asbasbasbag57
(g73
g59
NtRp2562
(dp2563
g62
(dp2564
sg71
g2306
sg64
(lp2565
g57
(g78
g59
NtRp2566
(dp2567
g62
(dp2568
g82
g83
ssg71
g2562
sg64
(lp2569
S'REQUEST_METHOD'
p2570
asbag57
(g78
g59
NtRp2571
(dp2572
g62
(dp2573
g89
g90
ssg71
g2562
sg64
(lp2574
S':'
asbag57
(g78
g59
NtRp2575
(dp2576
g62
(dp2577
sg71
g2562
sg64
(lp2578
g57
(g58
g59
NtRp2579
(dp2580
g62
(dp2581
g70
I3
ssg71
g2575
sg64
(lp2582
g1146
asbasbasbag57
(g73
g59
NtRp2583
(dp2584
g62
(dp2585
sg71
g2306
sg64
(lp2586
g57
(g78
g59
NtRp2587
(dp2588
g62
(dp2589
g82
g83
ssg71
g2583
sg64
(lp2590
S'REQUEST_URI'
p2591
asbag57
(g78
g59
NtRp2592
(dp2593
g62
(dp2594
g89
g90
ssg71
g2583
sg64
(lp2595
S':'
asbag57
(g78
g59
NtRp2596
(dp2597
g62
(dp2598
sg71
g2583
sg64
(lp2599
g57
(g58
g59
NtRp2600
(dp2601
g62
(dp2602
g70
I3
ssg71
g2596
sg64
(lp2603
g1060
asbasbasbag57
(g73
g59
NtRp2604
(dp2605
g62
(dp2606
sg71
g2306
sg64
(lp2607
g57
(g78
g59
NtRp2608
(dp2609
g62
(dp2610
g82
g83
ssg71
g2604
sg64
(lp2611
S'SCRIPT_NAME'
p2612
asbag57
(g78
g59
NtRp2613
(dp2614
g62
(dp2615
g89
g90
ssg71
g2604
sg64
(lp2616
S':'
asbag57
(g78
g59
NtRp2617
(dp2618
g62
(dp2619
sg71
g2604
sg64
(lp2620
g57
(g58
g59
NtRp2621
(dp2622
g62
(dp2623
g70
I3
ssg71
g2617
sg64
(lp2624
S''
asbasbasbag57
(g73
g59
NtRp2625
(dp2626
g62
(dp2627
sg71
g2306
sg64
(lp2628
g57
(g78
g59
NtRp2629
(dp2630
g62
(dp2631
g82
g83
ssg71
g2625
sg64
(lp2632
S'SERVER_NAME'
p2633
asbag57
(g78
g59
NtRp2634
(dp2635
g62
(dp2636
g89
g90
ssg71
g2625
sg64
(lp2637
S':'
asbag57
(g78
g59
NtRp2638
(dp2639
g62
(dp2640
sg71
g2625
sg64
(lp2641
g57
(g58
g59
NtRp2642
(dp2643
g62
(dp2644
g70
I3
ssg71
g2638
sg64
(lp2645
g1210
asbasbasbag57
(g73
g59
NtRp2646
(dp2647
g62
(dp2648
sg71
g2306
sg64
(lp2649
g57
(g78
g59
NtRp2650
(dp2651
g62
(dp2652
g82
g83
ssg71
g2646
sg64
(lp2653
S'SERVER_PORT'
p2654
asbag57
(g78
g59
NtRp2655
(dp2656
g62
(dp2657
g89
g90
ssg71
g2646
sg64
(lp2658
S':'
asbag57
(g78
g59
NtRp2659
(dp2660
g62
(dp2661
sg71
g2646
sg64
(lp2662
g57
(g58
g59
NtRp2663
(dp2664
g62
(dp2665
g70
I3
ssg71
g2659
sg64
(lp2666
g1232
asbasbasbag57
(g73
g59
NtRp2667
(dp2668
g62
(dp2669
sg71
g2306
sg64
(lp2670
g57
(g78
g59
NtRp2671
(dp2672
g62
(dp2673
g82
g83
ssg71
g2667
sg64
(lp2674
S'SERVER_PROTOCOL'
p2675
asbag57
(g78
g59
NtRp2676
(dp2677
g62
(dp2678
g89
g90
ssg71
g2667
sg64
(lp2679
S':'
asbag57
(g78
g59
NtRp2680
(dp2681
g62
(dp2682
sg71
g2667
sg64
(lp2683
g57
(g58
g59
NtRp2684
(dp2685
g62
(dp2686
g70
I3
ssg71
g2680
sg64
(lp2687
g1254
asbasbasbag57
(g73
g59
NtRp2688
(dp2689
g62
(dp2690
sg71
g2306
sg64
(lp2691
g57
(g78
g59
NtRp2692
(dp2693
g62
(dp2694
g82
g83
ssg71
g2688
sg64
(lp2695
S'SERVER_SOFTWARE'
p2696
asbag57
(g78
g59
NtRp2697
(dp2698
g62
(dp2699
g89
g90
ssg71
g2688
sg64
(lp2700
S':'
asbag57
(g78
g59
NtRp2701
(dp2702
g62
(dp2703
sg71
g2688
sg64
(lp2704
g57
(g58
g59
NtRp2705
(dp2706
g62
(dp2707
g70
I3
ssg71
g2701
sg64
(lp2708
g1276
asbasbasbag57
(g73
g59
NtRp2709
(dp2710
g62
(dp2711
sg71
g2306
sg64
(lp2712
g57
(g78
g59
NtRp2713
(dp2714
g62
(dp2715
g82
g83
ssg71
g2709
sg64
(lp2716
S'wsgi.errors'
p2717
asbag57
(g78
g59
NtRp2718
(dp2719
g62
(dp2720
g89
g90
ssg71
g2709
sg64
(lp2721
S':'
asbag57
(g78
g59
NtRp2722
(dp2723
g62
(dp2724
sg71
g2709
sg64
(lp2725
g57
(g58
g59
NtRp2726
(dp2727
g62
(dp2728
g70
I3
ssg71
g2722
sg64
(lp2729
S"<open file '<stderr>', mode 'w' at 0xb774d0d0>"
p2730
asbasbasbag57
(g73
g59
NtRp2731
(dp2732
g62
(dp2733
sg71
g2306
sg64
(lp2734
g57
(g78
g59
NtRp2735
(dp2736
g62
(dp2737
g82
g83
ssg71
g2731
sg64
(lp2738
S'wsgi.file_wrapper'
p2739
asbag57
(g78
g59
NtRp2740
(dp2741
g62
(dp2742
g89
g90
ssg71
g2731
sg64
(lp2743
S':'
asbag57
(g78
g59
NtRp2744
(dp2745
g62
(dp2746
sg71
g2731
sg64
(lp2747
g57
(g58
g59
NtRp2748
(dp2749
g62
(dp2750
g70
I3
ssg71
g2744
sg64
(lp2751
S'<class wsgiref.util.FileWrapper at 0x9f9186c>'
p2752
asbasbasbag57
(g73
g59
NtRp2753
(dp2754
g62
(dp2755
sg71
g2306
sg64
(lp2756
g57
(g78
g59
NtRp2757
(dp2758
g62
(dp2759
g82
g83
ssg71
g2753
sg64
(lp2760
S'wsgi.input'
p2761
asbag57
(g78
g59
NtRp2762
(dp2763
g62
(dp2764
g89
g90
ssg71
g2753
sg64
(lp2765
S':'
asbag57
(g78
g59
NtRp2766
(dp2767
g62
(dp2768
sg71
g2753
sg64
(lp2769
g57
(g58
g59
NtRp2770
(dp2771
g62
(dp2772
g70
I3
ssg71
g2766
sg64
(lp2773
S'<cStringIO.StringO object at 0xa6800a0>'
p2774
asbasbasbag57
(g73
g59
NtRp2775
(dp2776
g62
(dp2777
sg71
g2306
sg64
(lp2778
g57
(g78
g59
NtRp2779
(dp2780
g62
(dp2781
g82
g83
ssg71
g2775
sg64
(lp2782
S'wsgi.multiprocess'
p2783
asbag57
(g78
g59
NtRp2784
(dp2785
g62
(dp2786
g89
g90
ssg71
g2775
sg64
(lp2787
S':'
asbag57
(g78
g59
NtRp2788
(dp2789
g62
(dp2790
sg71
g2775
sg64
(lp2791
g57
(g58
g59
NtRp2792
(dp2793
g62
(dp2794
g70
I3
ssg71
g2788
sg64
(lp2795
g100
asbasbasbag57
(g73
g59
NtRp2796
(dp2797
g62
(dp2798
sg71
g2306
sg64
(lp2799
g57
(g78
g59
NtRp2800
(dp2801
g62
(dp2802
g82
g83
ssg71
g2796
sg64
(lp2803
S'wsgi.multithread'
p2804
asbag57
(g78
g59
NtRp2805
(dp2806
g62
(dp2807
g89
g90
ssg71
g2796
sg64
(lp2808
S':'
asbag57
(g78
g59
NtRp2809
(dp2810
g62
(dp2811
sg71
g2796
sg64
(lp2812
g57
(g58
g59
NtRp2813
(dp2814
g62
(dp2815
g70
I3
ssg71
g2809
sg64
(lp2816
g1515
asbasbasbag57
(g73
g59
NtRp2817
(dp2818
g62
(dp2819
sg71
g2306
sg64
(lp2820
g57
(g78
g59
NtRp2821
(dp2822
g62
(dp2823
g82
g83
ssg71
g2817
sg64
(lp2824
S'wsgi.run_once'
p2825
asbag57
(g78
g59
NtRp2826
(dp2827
g62
(dp2828
g89
g90
ssg71
g2817
sg64
(lp2829
S':'
asbag57
(g78
g59
NtRp2830
(dp2831
g62
(dp2832
sg71
g2817
sg64
(lp2833
g57
(g58
g59
NtRp2834
(dp2835
g62
(dp2836
g70
I3
ssg71
g2830
sg64
(lp2837
g100
asbasbasbag57
(g73
g59
NtRp2838
(dp2839
g62
(dp2840
sg71
g2306
sg64
(lp2841
g57
(g78
g59
NtRp2842
(dp2843
g62
(dp2844
g82
g83
ssg71
g2838
sg64
(lp2845
S'wsgi.url_scheme'
p2846
asbag57
(g78
g59
NtRp2847
(dp2848
g62
(dp2849
g89
g90
ssg71
g2838
sg64
(lp2850
S':'
asbag57
(g78
g59
NtRp2851
(dp2852
g62
(dp2853
sg71
g2838
sg64
(lp2854
g57
(g58
g59
NtRp2855
(dp2856
g62
(dp2857
g70
I3
ssg71
g2851
sg64
(lp2858
g1558
asbasbasbag57
(g73
g59
NtRp2859
(dp2860
g62
(dp2861
sg71
g2306
sg64
(lp2862
g57
(g78
g59
NtRp2863
(dp2864
g62
(dp2865
g82
g83
ssg71
g2859
sg64
(lp2866
S'wsgi.version'
p2867
asbag57
(g78
g59
NtRp2868
(dp2869
g62
(dp2870
g89
g90
ssg71
g2859
sg64
(lp2871
S':'
asbag57
(g78
g59
NtRp2872
(dp2873
g62
(dp2874
sg71
g2859
sg64
(lp2875
g57
(g58
g59
NtRp2876
(dp2877
g62
(dp2878
g70
I3
ssg71
g2872
sg64
(lp2879
S'1'
asbasbasbasbasbasbasbasbasbasbasbasbasbsS'frames'
p2880
(lp2881
(dp2882
S'file'
p2883
S'/home/perdomor/web2py/gluon/restricted.py'
p2884
sS'dump'
p2885
(dp2886
S'environment'
p2887
S"{'A': <class 'gluon.html.A'>, 'Auth': <class 'gluon.tools.Auth'>, 'B': <class 'gluon.html.B'>, 'BEAUTIFY': <class 'gluon.html.BEAUTIFY'>, 'BODY': <class 'gluon.html.BODY'>, 'BR': <class 'gluon.html.BR'>, 'BUTTON': <class 'gluon.html.BUTTON'>, 'CAT': <class 'gluon.html.CAT'>, 'CENTER': <class 'gluon.html.CENTER'>, 'CLEANUP': <class 'gluon.validators.CLEANUP'>, ...}"
p2888
sS'ccode'
p2889
S'<code object <module> at 0xa20c6e0, file "/home/...s/sicoin/controllers/correspondencia.py", line 2>'
p2890
ssS'lnum'
p2891
I209
sS'lines'
p2892
(dp2893
I204
S'    try:'
p2894
sI205
S'        if type(code) == types.CodeType:'
p2895
sI206
S'            ccode = code'
p2896
sI207
S'        else:'
p2897
sI208
S'            ccode = compile2(code,layer)'
p2898
sI209
S'        exec ccode in environment'
p2899
sI210
S'    except HTTP:'
p2900
sI211
S'        raise'
p2901
sI212
S'    except RestrictedError:'
p2902
sI213
S'        # do not encapsulate (obfuscate) the original RestrictedError'
p2903
ssS'call'
p2904
S'(code="# coding: utf8\\nT.force(\'es\')\\nfrom plugin_solidfo...response._caller(agregarCorrespondenciaMultiple)\\n", environment={\'A\': <class \'gluon.html.A\'>, \'Auth\': <class \'gluon.tools.Auth\'>, \'B\': <class \'gluon.html.B\'>, \'BEAUTIFY\': <class \'gluon.html.BEAUTIFY\'>, \'BODY\': <class \'gluon.html.BODY\'>, \'BR\': <class \'gluon.html.BR\'>, \'BUTTON\': <class \'gluon.html.BUTTON\'>, \'CAT\': <class \'gluon.html.CAT\'>, \'CENTER\': <class \'gluon.html.CENTER\'>, \'CLEANUP\': <class \'gluon.validators.CLEANUP\'>, ...}, layer=\'/home/perdomor/web2py/applications/sicoin/controllers/correspondencia.py\')'
p2905
sS'func'
p2906
S'restricted'
p2907
sa(dp2908
g2883
S'/home/perdomor/web2py/applications/sicoin/controllers/correspondencia.py'
p2909
sg2885
(dp2910
sg2891
I593
sg2892
(dp2911
I582
S"                             [Field('asignado_a')]"
p2912
sI583
S')'
sI584
S'    if form.process().accepted:'
p2913
sI585
S"        session.flash = 'registro procesado con \xc3\xa9xito'"
p2914
sI586
S'    style = STYLE("""input[type="text"], textarea {width:100%; max-height: 50px;}'
p2915
sI587
S'                     .w2p_fw {padding-right: 10px; max-width:100%;}'
p2916
sI588
S'                     .w2p_fl {background: #eee;}'
p2917
sI589
S'                     .string {max-width: 300px;}'
p2918
sI590
S'                     .date {max-width: 80px;}""")'
p2919
sI591
S'    return dict(form=DIV(style, form))'
p2920
ssg2904
S'()'
p2921
sg2906
S'<module>'
p2922
sa(dp2923
g2883
S'/home/perdomor/web2py/gluon/globals.py'
p2924
sg2885
(dp2925
S'self'
p2926
S'undefined'
p2927
sS'f'
S'<function agregarCorrespondenciaMultiple>'
p2928
ssg2891
I186
sg2892
(dp2929
I181
S'        self.menu = []             # used by the default view layout'
p2930
sI182
S'        self.files = []            # used by web2py_ajax.html'
p2931
sI183
S'        self.generic_patterns = [] # patterns to allow generic views'
p2932
sI184
S"        self.delimiters = ('{{','}}')"
p2933
sI185
S'        self._vars = None'
p2934
sI186
S'        self._caller = lambda f: f()'
p2935
sI187
S'        self._view_environment = None'
p2936
sI188
S'        self._custom_commit = None'
p2937
sI189
S'        self._custom_rollback = None'
p2938
sI190
S''
ssg2904
S'(f=<function agregarCorrespondenciaMultiple>)'
p2939
sg2906
S'<lambda>'
p2940
sa(dp2941
g2883
S'/home/perdomor/web2py/applications/sicoin/controllers/correspondencia.py'
p2942
sg2885
(dp2943
S'builtinNone'
p2944
S'None'
p2945
sS'global Field'
p2946
S"<class 'gluon.dal.Field'>"
p2947
ssg2891
I579
sg2892
(dp2948
I576
S"    form = SOLIDFORM.factory([Field('nro_de_documento'), Field('fecha_correspondencia')],"
p2949
sI577
S"                             [Field('tipo_de_documento'), Field('estatus')],"
p2950
sI578
S"                             [Field('asunto')],"
p2951
sI579
S'                             [Field(None), Field(None)],'
p2952
sI580
S"                             [Field('remitente'), Field('destinatario')],"
p2953
sI581
S"                             [Field(None, 'observaciones')],"
p2954
sI582
S"                             [Field('asignado_a')]"
p2955
sI583
S')'
sI574
S''
sI575
S''
ssg2904
S'()'
p2956
sg2906
S'agregarCorrespondenciaMultiple'
p2957
sa(dp2958
g2883
S'/home/perdomor/web2py/gluon/dal.py'
p2959
sg2885
(dp2960
S'fieldname'
p2961
S'None'
p2962
sS'self'
p2963
S'<gluon.dal.Field object>'
p2964
sS'self.name'
p2965
g2927
sS'global cleanup'
p2966
S'<function cleanup>'
p2967
ssg2891
I8411
sg2892
(dp2968
I8406
S'        ):'
p2969
sI8407
S'        self._db = self.db = None # both for backward compatibility'
p2970
sI8408
S'        self.op = None'
p2971
sI8409
S'        self.first = None'
p2972
sI8410
S'        self.second = None'
p2973
sI8411
S'        self.name = fieldname = cleanup(fieldname)'
p2974
sI8412
S'        if not isinstance(fieldname,str) or hasattr(Table,fieldname) or \\'
p2975
sI8413
S"                fieldname[0] == '_' or REGEX_PYTHON_KEYWORDS.match(fieldname):"
p2976
sI8414
S"            raise SyntaxError, 'Field: invalid field name: %s' % fieldname"
p2977
sI8415
S"        self.type = type if not isinstance(type, Table) else 'reference %s' % type"
p2978
ssg2904
S"(self=<gluon.dal.Field object>, fieldname=None, type='string', length=None, default=<function <lambda>>, required=False, requires=<function <lambda>>, ondelete='CASCADE', notnull=False, unique=False, uploadfield=True, widget=None, label=None, comment=None, writable=True, readable=True, update=None, authorize=None, autodelete=False, represent=None, uploadfolder=None, uploadseparate=False, uploadfs=None, compute=None, custom_store=None, custom_retrieve=None, custom_retrieve_file_properties=None, custom_delete=None, filter_in=None, filter_out=None, custom_qualifier=None)"
p2979
sg2906
g50
sa(dp2980
g2883
S'/home/perdomor/web2py/gluon/dal.py'
p2981
sg2885
(dp2982
S'text'
p2983
S'None'
p2984
sS'global REGEX_ALPHANUMERIC'
p2985
S'<_sre.SRE_Pattern object>'
p2986
sS'REGEX_ALPHANUMERIC.match'
p2987
S'<built-in method match of _sre.SRE_Pattern object>'
p2988
ssg2891
I4778
sg2892
(dp2989
I4773
S''
sI4774
S'def cleanup(text):'
p2990
sI4775
S'    """'
p2991
sI4776
S'    validates that the given text is clean: only contains [0-9a-zA-Z_]'
p2992
sI4777
S'    """'
p2993
sI4778
S'    if not REGEX_ALPHANUMERIC.match(text):'
p2994
sI4779
S"        raise SyntaxError, 'invalid table or field name: %s' % text"
p2995
sI4780
S'    return text'
p2996
sI4781
S''
sI4782
S'class MongoDBAdapter(NoSQLAdapter):'
p2997
ssg2904
S'(text=None)'
p2998
sg2906
S'cleanup'
p2999
sasS'pyver'
p3000
S'Python 2.7.2+: /usr/bin/python'
p3001
sS'session'
p3002
g57
(g58
g59
NtRp3003
(dp3004
g62
(dp3005
sg64
(lp3006
g57
(g66
g59
NtRp3007
(dp3008
g62
(dp3009
g70
I5
ssg71
Nsg64
(lp3010
g57
(g73
g59
NtRp3011
(dp3012
g62
(dp3013
sg71
g3007
sg64
(lp3014
g57
(g78
g59
NtRp3015
(dp3016
g62
(dp3017
g82
g83
ssg71
g3011
sg64
(lp3018
S'auth'
p3019
asbag57
(g78
g59
NtRp3020
(dp3021
g62
(dp3022
g89
g90
ssg71
g3011
sg64
(lp3023
S':'
asbag57
(g78
g59
NtRp3024
(dp3025
g62
(dp3026
sg71
g3011
sg64
(lp3027
g57
(g58
g59
NtRp3028
(dp3029
g62
(dp3030
g70
I5
ssg71
g3024
sg64
(lp3031
g57
(g66
g59
NtRp3032
(dp3033
g62
(dp3034
g70
I4
ssg71
Nsg64
(lp3035
g57
(g73
g59
NtRp3036
(dp3037
g62
(dp3038
sg71
g3032
sg64
(lp3039
g57
(g78
g59
NtRp3040
(dp3041
g62
(dp3042
g82
g83
ssg71
g3036
sg64
(lp3043
S'expiration'
p3044
asbag57
(g78
g59
NtRp3045
(dp3046
g62
(dp3047
g89
g90
ssg71
g3036
sg64
(lp3048
S':'
asbag57
(g78
g59
NtRp3049
(dp3050
g62
(dp3051
sg71
g3036
sg64
(lp3052
g57
(g58
g59
NtRp3053
(dp3054
g62
(dp3055
g70
I4
ssg71
g3049
sg64
(lp3056
S'3600'
p3057
asbasbasbag57
(g73
g59
NtRp3058
(dp3059
g62
(dp3060
sg71
g3032
sg64
(lp3061
g57
(g78
g59
NtRp3062
(dp3063
g62
(dp3064
g82
g83
ssg71
g3058
sg64
(lp3065
S'hmac_key'
p3066
asbag57
(g78
g59
NtRp3067
(dp3068
g62
(dp3069
g89
g90
ssg71
g3058
sg64
(lp3070
S':'
asbag57
(g78
g59
NtRp3071
(dp3072
g62
(dp3073
sg71
g3058
sg64
(lp3074
g57
(g58
g59
NtRp3075
(dp3076
g62
(dp3077
g70
I4
ssg71
g3071
sg64
(lp3078
S'd126ba3e-f42d-4576-8a1a-c85b58303953'
p3079
asbasbasbag57
(g73
g59
NtRp3080
(dp3081
g62
(dp3082
sg71
g3032
sg64
(lp3083
g57
(g78
g59
NtRp3084
(dp3085
g62
(dp3086
g82
g83
ssg71
g3080
sg64
(lp3087
S'last_visit'
p3088
asbag57
(g78
g59
NtRp3089
(dp3090
g62
(dp3091
g89
g90
ssg71
g3080
sg64
(lp3092
S':'
asbag57
(g78
g59
NtRp3093
(dp3094
g62
(dp3095
sg71
g3080
sg64
(lp3096
g57
(g58
g59
NtRp3097
(dp3098
g62
(dp3099
g70
I4
ssg71
g3093
sg64
(lp3100
S'datetime.datetime(2012, 12, 16, 10, 8, 24, 289052)'
p3101
asbasbasbag57
(g73
g59
NtRp3102
(dp3103
g62
(dp3104
sg71
g3032
sg64
(lp3105
g57
(g78
g59
NtRp3106
(dp3107
g62
(dp3108
g82
g83
ssg71
g3102
sg64
(lp3109
S'remember'
p3110
asbag57
(g78
g59
NtRp3111
(dp3112
g62
(dp3113
g89
g90
ssg71
g3102
sg64
(lp3114
S':'
asbag57
(g78
g59
NtRp3115
(dp3116
g62
(dp3117
sg71
g3102
sg64
(lp3118
g57
(g58
g59
NtRp3119
(dp3120
g62
(dp3121
g70
I4
ssg71
g3115
sg64
(lp3122
g100
asbasbasbag57
(g73
g59
NtRp3123
(dp3124
g62
(dp3125
sg71
g3032
sg64
(lp3126
g57
(g78
g59
NtRp3127
(dp3128
g62
(dp3129
g82
g83
ssg71
g3123
sg64
(lp3130
S'user'
p3131
asbag57
(g78
g59
NtRp3132
(dp3133
g62
(dp3134
g89
g90
ssg71
g3123
sg64
(lp3135
S':'
asbag57
(g78
g59
NtRp3136
(dp3137
g62
(dp3138
sg71
g3123
sg64
(lp3139
g57
(g58
g59
NtRp3140
(dp3141
g62
(dp3142
g70
I4
ssg71
g3136
sg64
(lp3143
g57
(g66
g59
NtRp3144
(dp3145
g62
(dp3146
g70
I3
ssg71
Nsg64
(lp3147
g57
(g73
g59
NtRp3148
(dp3149
g62
(dp3150
sg71
g3144
sg64
(lp3151
g57
(g78
g59
NtRp3152
(dp3153
g62
(dp3154
g82
g83
ssg71
g3148
sg64
(lp3155
S'departamento'
p3156
asbag57
(g78
g59
NtRp3157
(dp3158
g62
(dp3159
g89
g90
ssg71
g3148
sg64
(lp3160
S':'
asbag57
(g78
g59
NtRp3161
(dp3162
g62
(dp3163
sg71
g3148
sg64
(lp3164
g57
(g58
g59
NtRp3165
(dp3166
g62
(dp3167
g70
I3
ssg71
g3161
sg64
(lp3168
S'7'
asbasbasbag57
(g73
g59
NtRp3169
(dp3170
g62
(dp3171
sg71
g3144
sg64
(lp3172
g57
(g78
g59
NtRp3173
(dp3174
g62
(dp3175
g82
g83
ssg71
g3169
sg64
(lp3176
S'email'
p3177
asbag57
(g78
g59
NtRp3178
(dp3179
g62
(dp3180
g89
g90
ssg71
g3169
sg64
(lp3181
S':'
asbag57
(g78
g59
NtRp3182
(dp3183
g62
(dp3184
sg71
g3169
sg64
(lp3185
g57
(g58
g59
NtRp3186
(dp3187
g62
(dp3188
g70
I3
ssg71
g3182
sg64
(lp3189
S'perdomor@ucv.ve'
p3190
asbasbasbag57
(g73
g59
NtRp3191
(dp3192
g62
(dp3193
sg71
g3144
sg64
(lp3194
g57
(g78
g59
NtRp3195
(dp3196
g62
(dp3197
g82
g83
ssg71
g3191
sg64
(lp3198
S'first_name'
p3199
asbag57
(g78
g59
NtRp3200
(dp3201
g62
(dp3202
g89
g90
ssg71
g3191
sg64
(lp3203
S':'
asbag57
(g78
g59
NtRp3204
(dp3205
g62
(dp3206
sg71
g3191
sg64
(lp3207
g57
(g58
g59
NtRp3208
(dp3209
g62
(dp3210
g70
I3
ssg71
g3204
sg64
(lp3211
S'Roberto'
p3212
asbasbasbag57
(g73
g59
NtRp3213
(dp3214
g62
(dp3215
sg71
g3144
sg64
(lp3216
g57
(g78
g59
NtRp3217
(dp3218
g62
(dp3219
g82
g83
ssg71
g3213
sg64
(lp3220
S'id'
p3221
asbag57
(g78
g59
NtRp3222
(dp3223
g62
(dp3224
g89
g90
ssg71
g3213
sg64
(lp3225
S':'
asbag57
(g78
g59
NtRp3226
(dp3227
g62
(dp3228
sg71
g3213
sg64
(lp3229
g57
(g58
g59
NtRp3230
(dp3231
g62
(dp3232
g70
I3
ssg71
g3226
sg64
(lp3233
S'1'
asbasbasbag57
(g73
g59
NtRp3234
(dp3235
g62
(dp3236
sg71
g3144
sg64
(lp3237
g57
(g78
g59
NtRp3238
(dp3239
g62
(dp3240
g82
g83
ssg71
g3234
sg64
(lp3241
S'last_name'
p3242
asbag57
(g78
g59
NtRp3243
(dp3244
g62
(dp3245
g89
g90
ssg71
g3234
sg64
(lp3246
S':'
asbag57
(g78
g59
NtRp3247
(dp3248
g62
(dp3249
sg71
g3234
sg64
(lp3250
g57
(g58
g59
NtRp3251
(dp3252
g62
(dp3253
g70
I3
ssg71
g3247
sg64
(lp3254
S'Perdomo'
p3255
asbasbasbag57
(g73
g59
NtRp3256
(dp3257
g62
(dp3258
sg71
g3144
sg64
(lp3259
g57
(g78
g59
NtRp3260
(dp3261
g62
(dp3262
g82
g83
ssg71
g3256
sg64
(lp3263
S'password'
p3264
asbag57
(g78
g59
NtRp3265
(dp3266
g62
(dp3267
g89
g90
ssg71
g3256
sg64
(lp3268
S':'
asbag57
(g78
g59
NtRp3269
(dp3270
g62
(dp3271
sg71
g3256
sg64
(lp3272
g57
(g58
g59
NtRp3273
(dp3274
g62
(dp3275
g70
I3
ssg71
g3269
sg64
(lp3276
S'pbkdf2(1000,20,sha512)$88c1e85c9dcdecbb$11118ea249dd8593828d16a3639aa7afce22ea70'
p3277
asbasbasbag57
(g73
g59
NtRp3278
(dp3279
g62
(dp3280
sg71
g3144
sg64
(lp3281
g57
(g78
g59
NtRp3282
(dp3283
g62
(dp3284
g82
g83
ssg71
g3278
sg64
(lp3285
S'registration_id'
p3286
asbag57
(g78
g59
NtRp3287
(dp3288
g62
(dp3289
g89
g90
ssg71
g3278
sg64
(lp3290
S':'
asbag57
(g78
g59
NtRp3291
(dp3292
g62
(dp3293
sg71
g3278
sg64
(lp3294
g57
(g58
g59
NtRp3295
(dp3296
g62
(dp3297
g70
I3
ssg71
g3291
sg64
(lp3298
S''
asbasbasbag57
(g73
g59
NtRp3299
(dp3300
g62
(dp3301
sg71
g3144
sg64
(lp3302
g57
(g78
g59
NtRp3303
(dp3304
g62
(dp3305
g82
g83
ssg71
g3299
sg64
(lp3306
S'registration_key'
p3307
asbag57
(g78
g59
NtRp3308
(dp3309
g62
(dp3310
g89
g90
ssg71
g3299
sg64
(lp3311
S':'
asbag57
(g78
g59
NtRp3312
(dp3313
g62
(dp3314
sg71
g3299
sg64
(lp3315
g57
(g58
g59
NtRp3316
(dp3317
g62
(dp3318
g70
I3
ssg71
g3312
sg64
(lp3319
S''
asbasbasbag57
(g73
g59
NtRp3320
(dp3321
g62
(dp3322
sg71
g3144
sg64
(lp3323
g57
(g78
g59
NtRp3324
(dp3325
g62
(dp3326
g82
g83
ssg71
g3320
sg64
(lp3327
S'reset_password_key'
p3328
asbag57
(g78
g59
NtRp3329
(dp3330
g62
(dp3331
g89
g90
ssg71
g3320
sg64
(lp3332
S':'
asbag57
(g78
g59
NtRp3333
(dp3334
g62
(dp3335
sg71
g3320
sg64
(lp3336
g57
(g58
g59
NtRp3337
(dp3338
g62
(dp3339
g70
I3
ssg71
g3333
sg64
(lp3340
S''
asbasbasbasbasbasbasbag57
(g73
g59
NtRp3341
(dp3342
g62
(dp3343
sg71
g3032
sg64
(lp3344
g57
(g78
g59
NtRp3345
(dp3346
g62
(dp3347
g82
g83
ssg71
g3341
sg64
(lp3348
S'user_groups'
p3349
asbag57
(g78
g59
NtRp3350
(dp3351
g62
(dp3352
g89
g90
ssg71
g3341
sg64
(lp3353
S':'
asbag57
(g78
g59
NtRp3354
(dp3355
g62
(dp3356
sg71
g3341
sg64
(lp3357
g57
(g58
g59
NtRp3358
(dp3359
g62
(dp3360
g70
I4
ssg71
g3354
sg64
(lp3361
g57
(g66
g59
NtRp3362
(dp3363
g62
(dp3364
g70
I3
ssg71
Nsg64
(lp3365
g57
(g73
g59
NtRp3366
(dp3367
g62
(dp3368
sg71
g3362
sg64
(lp3369
g57
(g78
g59
NtRp3370
(dp3371
g62
(dp3372
g82
g83
ssg71
g3366
sg64
(lp3373
S'1'
asbag57
(g78
g59
NtRp3374
(dp3375
g62
(dp3376
g89
g90
ssg71
g3366
sg64
(lp3377
S':'
asbag57
(g78
g59
NtRp3378
(dp3379
g62
(dp3380
sg71
g3366
sg64
(lp3381
g57
(g58
g59
NtRp3382
(dp3383
g62
(dp3384
g70
I3
ssg71
g3378
sg64
(lp3385
S'user_1'
p3386
asbasbasbag57
(g73
g59
NtRp3387
(dp3388
g62
(dp3389
sg71
g3362
sg64
(lp3390
g57
(g78
g59
NtRp3391
(dp3392
g62
(dp3393
g82
g83
ssg71
g3387
sg64
(lp3394
S'4'
asbag57
(g78
g59
NtRp3395
(dp3396
g62
(dp3397
g89
g90
ssg71
g3387
sg64
(lp3398
S':'
asbag57
(g78
g59
NtRp3399
(dp3400
g62
(dp3401
sg71
g3387
sg64
(lp3402
g57
(g58
g59
NtRp3403
(dp3404
g62
(dp3405
g70
I3
ssg71
g3399
sg64
(lp3406
S'administrador'
p3407
asbasbasbag57
(g73
g59
NtRp3408
(dp3409
g62
(dp3410
sg71
g3362
sg64
(lp3411
g57
(g78
g59
NtRp3412
(dp3413
g62
(dp3414
g82
g83
ssg71
g3408
sg64
(lp3415
S'7'
asbag57
(g78
g59
NtRp3416
(dp3417
g62
(dp3418
g89
g90
ssg71
g3408
sg64
(lp3419
S':'
asbag57
(g78
g59
NtRp3420
(dp3421
g62
(dp3422
sg71
g3408
sg64
(lp3423
g57
(g58
g59
NtRp3424
(dp3425
g62
(dp3426
g70
I3
ssg71
g3420
sg64
(lp3427
S'recepcionista'
p3428
asbasbasbasbasbasbasbasbasbasbasbag57
(g73
g59
NtRp3429
(dp3430
g62
(dp3431
sg71
g3007
sg64
(lp3432
g57
(g78
g59
NtRp3433
(dp3434
g62
(dp3435
g82
g83
ssg71
g3429
sg64
(lp3436
S'dependencia'
p3437
asbag57
(g78
g59
NtRp3438
(dp3439
g62
(dp3440
g89
g90
ssg71
g3429
sg64
(lp3441
S':'
asbag57
(g78
g59
NtRp3442
(dp3443
g62
(dp3444
sg71
g3429
sg64
(lp3445
g57
(g58
g59
NtRp3446
(dp3447
g62
(dp3448
g70
I5
ssg71
g3442
sg64
(lp3449
S'1'
asbasbasbag57
(g73
g59
NtRp3450
(dp3451
g62
(dp3452
sg71
g3007
sg64
(lp3453
g57
(g78
g59
NtRp3454
(dp3455
g62
(dp3456
g82
g83
ssg71
g3450
sg64
(lp3457
S'documento'
p3458
asbag57
(g78
g59
NtRp3459
(dp3460
g62
(dp3461
g89
g90
ssg71
g3450
sg64
(lp3462
S':'
asbag57
(g78
g59
NtRp3463
(dp3464
g62
(dp3465
sg71
g3450
sg64
(lp3466
g57
(g58
g59
NtRp3467
(dp3468
g62
(dp3469
g70
I5
ssg71
g3463
sg64
(lp3470
S'1'
asbasbasbag57
(g73
g59
NtRp3471
(dp3472
g62
(dp3473
sg71
g3007
sg64
(lp3474
g57
(g78
g59
NtRp3475
(dp3476
g62
(dp3477
g82
g83
ssg71
g3471
sg64
(lp3478
S'flash'
p3479
asbag57
(g78
g59
NtRp3480
(dp3481
g62
(dp3482
g89
g90
ssg71
g3471
sg64
(lp3483
S':'
asbag57
(g78
g59
NtRp3484
(dp3485
g62
(dp3486
sg71
g3471
sg64
(lp3487
g57
(g58
g59
NtRp3488
(dp3489
g62
(dp3490
g70
I5
ssg71
g3484
sg64
(lp3491
S'None'
p3492
asbasbasbasbasbsS'etype'
p3493
S"<type 'exceptions.TypeError'>"
p3494
sS'date'
p3495
S'Sun Dec 16 10:08:24 2012'
p3496
sS'response'
p3497
g57
(g58
g59
NtRp3498
(dp3499
g62
(dp3500
sg64
(lp3501
g57
(g66
g59
NtRp3502
(dp3503
g62
(dp3504
g70
I5
ssg71
Nsg64
(lp3505
g57
(g73
g59
NtRp3506
(dp3507
g62
(dp3508
sg71
g3502
sg64
(lp3509
g57
(g78
g59
NtRp3510
(dp3511
g62
(dp3512
g82
g83
ssg71
g3506
sg64
(lp3513
g155
asbag57
(g78
g59
NtRp3514
(dp3515
g62
(dp3516
g89
g90
ssg71
g3506
sg64
(lp3517
S':'
asbag57
(g78
g59
NtRp3518
(dp3519
g62
(dp3520
sg71
g3506
sg64
(lp3521
g57
(g58
g59
NtRp3522
(dp3523
g62
(dp3524
g70
I5
ssg71
g3518
sg64
(lp3525
S'<cStringIO.StringO object at 0xafd0980>'
p3526
asbasbasbag57
(g73
g59
NtRp3527
(dp3528
g62
(dp3529
sg71
g3502
sg64
(lp3530
g57
(g78
g59
NtRp3531
(dp3532
g62
(dp3533
g82
g83
ssg71
g3527
sg64
(lp3534
g243
asbag57
(g78
g59
NtRp3535
(dp3536
g62
(dp3537
g89
g90
ssg71
g3527
sg64
(lp3538
S':'
asbag57
(g78
g59
NtRp3539
(dp3540
g62
(dp3541
sg71
g3527
sg64
(lp3542
g57
(g58
g59
NtRp3543
(dp3544
g62
(dp3545
g70
I5
ssg71
g3539
sg64
(lp3546
g57
(g66
g59
NtRp3547
(dp3548
g62
(dp3549
g70
I4
ssg71
Nsg64
(lp3550
g57
(g73
g59
NtRp3551
(dp3552
g62
(dp3553
sg71
g3547
sg64
(lp3554
g57
(g78
g59
NtRp3555
(dp3556
g62
(dp3557
g82
g83
ssg71
g3551
sg64
(lp3558
S'session_id_sicoin'
p3559
asbag57
(g78
g59
NtRp3560
(dp3561
g62
(dp3562
g89
g90
ssg71
g3551
sg64
(lp3563
S':'
asbag57
(g78
g59
NtRp3564
(dp3565
g62
(dp3566
sg71
g3551
sg64
(lp3567
g57
(g58
g59
NtRp3568
(dp3569
g62
(dp3570
g70
I4
ssg71
g3564
sg64
(lp3571
g475
ag57
(g66
g59
NtRp3572
(dp3573
g62
(dp3574
g70
I3
ssg71
Nsg64
(lp3575
g57
(g73
g59
NtRp3576
(dp3577
g62
(dp3578
sg71
g3572
sg64
(lp3579
g57
(g78
g59
NtRp3580
(dp3581
g62
(dp3582
g82
g83
ssg71
g3576
sg64
(lp3583
g294
asbag57
(g78
g59
NtRp3584
(dp3585
g62
(dp3586
g89
g90
ssg71
g3576
sg64
(lp3587
S':'
asbag57
(g78
g59
NtRp3588
(dp3589
g62
(dp3590
sg71
g3576
sg64
(lp3591
g57
(g58
g59
NtRp3592
(dp3593
g62
(dp3594
g70
I3
ssg71
g3588
sg64
(lp3595
S''
asbasbasbag57
(g73
g59
NtRp3596
(dp3597
g62
(dp3598
sg71
g3572
sg64
(lp3599
g57
(g78
g59
NtRp3600
(dp3601
g62
(dp3602
g82
g83
ssg71
g3596
sg64
(lp3603
g315
asbag57
(g78
g59
NtRp3604
(dp3605
g62
(dp3606
g89
g90
ssg71
g3596
sg64
(lp3607
S':'
asbag57
(g78
g59
NtRp3608
(dp3609
g62
(dp3610
sg71
g3596
sg64
(lp3611
g57
(g58
g59
NtRp3612
(dp3613
g62
(dp3614
g70
I3
ssg71
g3608
sg64
(lp3615
S''
asbasbasbag57
(g73
g59
NtRp3616
(dp3617
g62
(dp3618
sg71
g3572
sg64
(lp3619
g57
(g78
g59
NtRp3620
(dp3621
g62
(dp3622
g82
g83
ssg71
g3616
sg64
(lp3623
g336
asbag57
(g78
g59
NtRp3624
(dp3625
g62
(dp3626
g89
g90
ssg71
g3616
sg64
(lp3627
S':'
asbag57
(g78
g59
NtRp3628
(dp3629
g62
(dp3630
sg71
g3616
sg64
(lp3631
g57
(g58
g59
NtRp3632
(dp3633
g62
(dp3634
g70
I3
ssg71
g3628
sg64
(lp3635
S''
asbasbasbag57
(g73
g59
NtRp3636
(dp3637
g62
(dp3638
sg71
g3572
sg64
(lp3639
g57
(g78
g59
NtRp3640
(dp3641
g62
(dp3642
g82
g83
ssg71
g3636
sg64
(lp3643
g357
asbag57
(g78
g59
NtRp3644
(dp3645
g62
(dp3646
g89
g90
ssg71
g3636
sg64
(lp3647
S':'
asbag57
(g78
g59
NtRp3648
(dp3649
g62
(dp3650
sg71
g3636
sg64
(lp3651
g57
(g58
g59
NtRp3652
(dp3653
g62
(dp3654
g70
I3
ssg71
g3648
sg64
(lp3655
S''
asbasbasbag57
(g73
g59
NtRp3656
(dp3657
g62
(dp3658
sg71
g3572
sg64
(lp3659
g57
(g78
g59
NtRp3660
(dp3661
g62
(dp3662
g82
g83
ssg71
g3656
sg64
(lp3663
g378
asbag57
(g78
g59
NtRp3664
(dp3665
g62
(dp3666
g89
g90
ssg71
g3656
sg64
(lp3667
S':'
asbag57
(g78
g59
NtRp3668
(dp3669
g62
(dp3670
sg71
g3656
sg64
(lp3671
g57
(g58
g59
NtRp3672
(dp3673
g62
(dp3674
g70
I3
ssg71
g3668
sg64
(lp3675
S''
asbasbasbag57
(g73
g59
NtRp3676
(dp3677
g62
(dp3678
sg71
g3572
sg64
(lp3679
g57
(g78
g59
NtRp3680
(dp3681
g62
(dp3682
g82
g83
ssg71
g3676
sg64
(lp3683
g399
asbag57
(g78
g59
NtRp3684
(dp3685
g62
(dp3686
g89
g90
ssg71
g3676
sg64
(lp3687
S':'
asbag57
(g78
g59
NtRp3688
(dp3689
g62
(dp3690
sg71
g3676
sg64
(lp3691
g57
(g58
g59
NtRp3692
(dp3693
g62
(dp3694
g70
I3
ssg71
g3688
sg64
(lp3695
S'/'
asbasbasbag57
(g73
g59
NtRp3696
(dp3697
g62
(dp3698
sg71
g3572
sg64
(lp3699
g57
(g78
g59
NtRp3700
(dp3701
g62
(dp3702
g82
g83
ssg71
g3696
sg64
(lp3703
g420
asbag57
(g78
g59
NtRp3704
(dp3705
g62
(dp3706
g89
g90
ssg71
g3696
sg64
(lp3707
S':'
asbag57
(g78
g59
NtRp3708
(dp3709
g62
(dp3710
sg71
g3696
sg64
(lp3711
g57
(g58
g59
NtRp3712
(dp3713
g62
(dp3714
g70
I3
ssg71
g3708
sg64
(lp3715
S''
asbasbasbag57
(g73
g59
NtRp3716
(dp3717
g62
(dp3718
sg71
g3572
sg64
(lp3719
g57
(g78
g59
NtRp3720
(dp3721
g62
(dp3722
g82
g83
ssg71
g3716
sg64
(lp3723
g441
asbag57
(g78
g59
NtRp3724
(dp3725
g62
(dp3726
g89
g90
ssg71
g3716
sg64
(lp3727
S':'
asbag57
(g78
g59
NtRp3728
(dp3729
g62
(dp3730
sg71
g3716
sg64
(lp3731
g57
(g58
g59
NtRp3732
(dp3733
g62
(dp3734
g70
I3
ssg71
g3728
sg64
(lp3735
S''
asbasbasbasbasbasbasbasbasbasbasbag57
(g73
g59
NtRp3736
(dp3737
g62
(dp3738
sg71
g3502
sg64
(lp3739
g57
(g78
g59
NtRp3740
(dp3741
g62
(dp3742
g82
g83
ssg71
g3736
sg64
(lp3743
S'delimiters'
p3744
asbag57
(g78
g59
NtRp3745
(dp3746
g62
(dp3747
g89
g90
ssg71
g3736
sg64
(lp3748
S':'
asbag57
(g78
g59
NtRp3749
(dp3750
g62
(dp3751
sg71
g3736
sg64
(lp3752
g57
(g58
g59
NtRp3753
(dp3754
g62
(dp3755
g70
I5
ssg71
g3749
sg64
(lp3756
g57
(g66
g59
NtRp3757
(dp3758
g62
(dp3759
g70
I4
ssg71
Nsg64
(lp3760
g57
(g73
g59
NtRp3761
(dp3762
g62
(dp3763
sg71
g3757
sg64
(lp3764
g57
(g78
g59
NtRp3765
(dp3766
g62
(dp3767
sg71
g3761
sg64
(lp3768
g57
(g58
g59
NtRp3769
(dp3770
g62
(dp3771
g70
I4
ssg71
g3765
sg64
(lp3772
S'{{'
p3773
asbasbasbag57
(g73
g59
NtRp3774
(dp3775
g62
(dp3776
sg71
g3757
sg64
(lp3777
g57
(g78
g59
NtRp3778
(dp3779
g62
(dp3780
sg71
g3774
sg64
(lp3781
g57
(g58
g59
NtRp3782
(dp3783
g62
(dp3784
g70
I4
ssg71
g3778
sg64
(lp3785
S'}}'
p3786
asbasbasbasbasbasbasbag57
(g73
g59
NtRp3787
(dp3788
g62
(dp3789
sg71
g3502
sg64
(lp3790
g57
(g78
g59
NtRp3791
(dp3792
g62
(dp3793
g82
g83
ssg71
g3787
sg64
(lp3794
S'files'
p3795
asbag57
(g78
g59
NtRp3796
(dp3797
g62
(dp3798
g89
g90
ssg71
g3787
sg64
(lp3799
S':'
asbag57
(g78
g59
NtRp3800
(dp3801
g62
(dp3802
sg71
g3787
sg64
(lp3803
g57
(g58
g59
NtRp3804
(dp3805
g62
(dp3806
g70
I5
ssg71
g3800
sg64
(lp3807
g57
(g66
g59
NtRp3808
(dp3809
g62
(dp3810
g70
I4
ssg71
Nsg64
(lp3811
sbasbasbasbag57
(g73
g59
NtRp3812
(dp3813
g62
(dp3814
sg71
g3502
sg64
(lp3815
g57
(g78
g59
NtRp3816
(dp3817
g62
(dp3818
g82
g83
ssg71
g3812
sg64
(lp3819
S'flash'
p3820
asbag57
(g78
g59
NtRp3821
(dp3822
g62
(dp3823
g89
g90
ssg71
g3812
sg64
(lp3824
S':'
asbag57
(g78
g59
NtRp3825
(dp3826
g62
(dp3827
sg71
g3812
sg64
(lp3828
g57
(g58
g59
NtRp3829
(dp3830
g62
(dp3831
g70
I5
ssg71
g3825
sg64
(lp3832
S''
asbasbasbag57
(g73
g59
NtRp3833
(dp3834
g62
(dp3835
sg71
g3502
sg64
(lp3836
g57
(g78
g59
NtRp3837
(dp3838
g62
(dp3839
g82
g83
ssg71
g3833
sg64
(lp3840
S'generic_patterns'
p3841
asbag57
(g78
g59
NtRp3842
(dp3843
g62
(dp3844
g89
g90
ssg71
g3833
sg64
(lp3845
S':'
asbag57
(g78
g59
NtRp3846
(dp3847
g62
(dp3848
sg71
g3833
sg64
(lp3849
g57
(g58
g59
NtRp3850
(dp3851
g62
(dp3852
g70
I5
ssg71
g3846
sg64
(lp3853
g57
(g66
g59
NtRp3854
(dp3855
g62
(dp3856
g70
I4
ssg71
Nsg64
(lp3857
g57
(g73
g59
NtRp3858
(dp3859
g62
(dp3860
sg71
g3854
sg64
(lp3861
g57
(g78
g59
NtRp3862
(dp3863
g62
(dp3864
sg71
g3858
sg64
(lp3865
g57
(g58
g59
NtRp3866
(dp3867
g62
(dp3868
g70
I4
ssg71
g3862
sg64
(lp3869
S'*'
asbasbasbasbasbasbasbag57
(g73
g59
NtRp3870
(dp3871
g62
(dp3872
sg71
g3502
sg64
(lp3873
g57
(g78
g59
NtRp3874
(dp3875
g62
(dp3876
g82
g83
ssg71
g3870
sg64
(lp3877
S'headers'
p3878
asbag57
(g78
g59
NtRp3879
(dp3880
g62
(dp3881
g89
g90
ssg71
g3870
sg64
(lp3882
S':'
asbag57
(g78
g59
NtRp3883
(dp3884
g62
(dp3885
sg71
g3870
sg64
(lp3886
g57
(g58
g59
NtRp3887
(dp3888
g62
(dp3889
g70
I5
ssg71
g3883
sg64
(lp3890
g57
(g66
g59
NtRp3891
(dp3892
g62
(dp3893
g70
I4
ssg71
Nsg64
(lp3894
g57
(g73
g59
NtRp3895
(dp3896
g62
(dp3897
sg71
g3891
sg64
(lp3898
g57
(g78
g59
NtRp3899
(dp3900
g62
(dp3901
g82
g83
ssg71
g3895
sg64
(lp3902
S'X-Powered-By'
p3903
asbag57
(g78
g59
NtRp3904
(dp3905
g62
(dp3906
g89
g90
ssg71
g3895
sg64
(lp3907
S':'
asbag57
(g78
g59
NtRp3908
(dp3909
g62
(dp3910
sg71
g3895
sg64
(lp3911
g57
(g58
g59
NtRp3912
(dp3913
g62
(dp3914
g70
I4
ssg71
g3908
sg64
(lp3915
S'web2py'
p3916
asbasbasbasbasbasbasbag57
(g73
g59
NtRp3917
(dp3918
g62
(dp3919
sg71
g3502
sg64
(lp3920
g57
(g78
g59
NtRp3921
(dp3922
g62
(dp3923
g82
g83
ssg71
g3917
sg64
(lp3924
S'menu'
p3925
asbag57
(g78
g59
NtRp3926
(dp3927
g62
(dp3928
g89
g90
ssg71
g3917
sg64
(lp3929
S':'
asbag57
(g78
g59
NtRp3930
(dp3931
g62
(dp3932
sg71
g3917
sg64
(lp3933
g57
(g58
g59
NtRp3934
(dp3935
g62
(dp3936
g70
I5
ssg71
g3930
sg64
(lp3937
g57
(g66
g59
NtRp3938
(dp3939
g62
(dp3940
g70
I4
ssg71
Nsg64
(lp3941
g57
(g73
g59
NtRp3942
(dp3943
g62
(dp3944
sg71
g3938
sg64
(lp3945
g57
(g78
g59
NtRp3946
(dp3947
g62
(dp3948
sg71
g3942
sg64
(lp3949
g57
(g58
g59
NtRp3950
(dp3951
g62
(dp3952
g70
I4
ssg71
g3946
sg64
(lp3953
g57
(g66
g59
NtRp3954
(dp3955
g62
(dp3956
g70
I3
ssg71
Nsg64
(lp3957
g57
(g73
g59
NtRp3958
(dp3959
g62
(dp3960
sg71
g3954
sg64
(lp3961
g57
(g78
g59
NtRp3962
(dp3963
g62
(dp3964
sg71
g3958
sg64
(lp3965
g57
(g58
g59
NtRp3966
(dp3967
g62
(dp3968
g70
I3
ssg71
g3962
sg64
(lp3969
cgluon.languages
lazyT_unpickle
p3970
(S's\x06\x00\x00\x00Inicio'
tRp3971
asbasbasbag57
(g73
g59
NtRp3972
(dp3973
g62
(dp3974
sg71
g3954
sg64
(lp3975
g57
(g78
g59
NtRp3976
(dp3977
g62
(dp3978
sg71
g3972
sg64
(lp3979
g57
(g58
g59
NtRp3980
(dp3981
g62
(dp3982
g70
I3
ssg71
g3976
sg64
(lp3983
g100
asbasbasbag57
(g73
g59
NtRp3984
(dp3985
g62
(dp3986
sg71
g3954
sg64
(lp3987
g57
(g78
g59
NtRp3988
(dp3989
g62
(dp3990
sg71
g3984
sg64
(lp3991
g57
(g58
g59
NtRp3992
(dp3993
g62
(dp3994
g70
I3
ssg71
g3988
sg64
(lp3995
S'/sicoin/default/index'
p3996
asbasbasbag57
(g73
g59
NtRp3997
(dp3998
g62
(dp3999
sg71
g3954
sg64
(lp4000
g57
(g78
g59
NtRp4001
(dp4002
g62
(dp4003
sg71
g3997
sg64
(lp4004
g57
(g58
g59
NtRp4005
(dp4006
g62
(dp4007
g70
I3
ssg71
g4001
sg64
(lp4008
g57
(g66
g59
NtRp4009
(dp4010
g62
(dp4011
g70
I2
ssg71
Nsg64
(lp4012
sbasbasbasbasbasbasbasbag57
(g73
g59
NtRp4013
(dp4014
g62
(dp4015
sg71
g3938
sg64
(lp4016
g57
(g78
g59
NtRp4017
(dp4018
g62
(dp4019
sg71
g4013
sg64
(lp4020
g57
(g58
g59
NtRp4021
(dp4022
g62
(dp4023
g70
I4
ssg71
g4017
sg64
(lp4024
g57
(g66
g59
NtRp4025
(dp4026
g62
(dp4027
g70
I3
ssg71
Nsg64
(lp4028
g57
(g73
g59
NtRp4029
(dp4030
g62
(dp4031
sg71
g4025
sg64
(lp4032
g57
(g78
g59
NtRp4033
(dp4034
g62
(dp4035
sg71
g4029
sg64
(lp4036
g57
(g58
g59
NtRp4037
(dp4038
g62
(dp4039
g70
I3
ssg71
g4033
sg64
(lp4040
S'Correspondencias'
p4041
asbasbasbag57
(g73
g59
NtRp4042
(dp4043
g62
(dp4044
sg71
g4025
sg64
(lp4045
g57
(g78
g59
NtRp4046
(dp4047
g62
(dp4048
sg71
g4042
sg64
(lp4049
g57
(g58
g59
NtRp4050
(dp4051
g62
(dp4052
g70
I3
ssg71
g4046
sg64
(lp4053
g100
asbasbasbag57
(g73
g59
NtRp4054
(dp4055
g62
(dp4056
sg71
g4025
sg64
(lp4057
g57
(g78
g59
NtRp4058
(dp4059
g62
(dp4060
sg71
g4054
sg64
(lp4061
g57
(g58
g59
NtRp4062
(dp4063
g62
(dp4064
g70
I3
ssg71
g4058
sg64
(lp4065
S'None'
p4066
asbasbasbag57
(g73
g59
NtRp4067
(dp4068
g62
(dp4069
sg71
g4025
sg64
(lp4070
g57
(g78
g59
NtRp4071
(dp4072
g62
(dp4073
sg71
g4067
sg64
(lp4074
g57
(g58
g59
NtRp4075
(dp4076
g62
(dp4077
g70
I3
ssg71
g4071
sg64
(lp4078
g57
(g66
g59
NtRp4079
(dp4080
g62
(dp4081
g70
I2
ssg71
Nsg64
(lp4082
g57
(g73
g59
NtRp4083
(dp4084
g62
(dp4085
sg71
g4079
sg64
(lp4086
g57
(g78
g59
NtRp4087
(dp4088
g62
(dp4089
sg71
g4083
sg64
(lp4090
g57
(g58
g59
NtRp4091
(dp4092
g62
(dp4093
g70
I2
ssg71
g4087
sg64
(lp4094
g57
(g66
g59
NtRp4095
(dp4096
g62
(dp4097
g70
I1
ssg71
Nsg64
(lp4098
g57
(g73
g59
NtRp4099
(dp4100
g62
(dp4101
sg71
g4095
sg64
(lp4102
g57
(g78
g59
NtRp4103
(dp4104
g62
(dp4105
sg71
g4099
sg64
(lp4106
g57
(g58
g59
NtRp4107
(dp4108
g62
(dp4109
g70
I1
ssg71
g4103
sg64
(lp4110
g4041
asbasbasbag57
(g73
g59
NtRp4111
(dp4112
g62
(dp4113
sg71
g4095
sg64
(lp4114
g57
(g78
g59
NtRp4115
(dp4116
g62
(dp4117
sg71
g4111
sg64
(lp4118
g57
(g58
g59
NtRp4119
(dp4120
g62
(dp4121
g70
I1
ssg71
g4115
sg64
(lp4122
I00
asbasbasbag57
(g73
g59
NtRp4123
(dp4124
g62
(dp4125
sg71
g4095
sg64
(lp4126
g57
(g78
g59
NtRp4127
(dp4128
g62
(dp4129
sg71
g4123
sg64
(lp4130
g57
(g58
g59
NtRp4131
(dp4132
g62
(dp4133
g70
I1
ssg71
g4127
sg64
(lp4134
S'/sicoin/correspondencia/listar_correspondencias'
p4135
asbasbasbasbasbasbasbag57
(g73
g59
NtRp4136
(dp4137
g62
(dp4138
sg71
g4079
sg64
(lp4139
g57
(g78
g59
NtRp4140
(dp4141
g62
(dp4142
sg71
g4136
sg64
(lp4143
g57
(g58
g59
NtRp4144
(dp4145
g62
(dp4146
g70
I2
ssg71
g4140
sg64
(lp4147
g57
(g66
g59
NtRp4148
(dp4149
g62
(dp4150
g70
I1
ssg71
Nsg64
(lp4151
g57
(g73
g59
NtRp4152
(dp4153
g62
(dp4154
sg71
g4148
sg64
(lp4155
g57
(g78
g59
NtRp4156
(dp4157
g62
(dp4158
sg71
g4152
sg64
(lp4159
g57
(g58
g59
NtRp4160
(dp4161
g62
(dp4162
g70
I1
ssg71
g4156
sg64
(lp4163
S'Correspondencias del Departamento'
p4164
asbasbasbag57
(g73
g59
NtRp4165
(dp4166
g62
(dp4167
sg71
g4148
sg64
(lp4168
g57
(g78
g59
NtRp4169
(dp4170
g62
(dp4171
sg71
g4165
sg64
(lp4172
g57
(g58
g59
NtRp4173
(dp4174
g62
(dp4175
g70
I1
ssg71
g4169
sg64
(lp4176
I00
asbasbasbag57
(g73
g59
NtRp4177
(dp4178
g62
(dp4179
sg71
g4148
sg64
(lp4180
g57
(g78
g59
NtRp4181
(dp4182
g62
(dp4183
sg71
g4177
sg64
(lp4184
g57
(g58
g59
NtRp4185
(dp4186
g62
(dp4187
g70
I1
ssg71
g4181
sg64
(lp4188
S'/sicoin/correspondencia/listar_correspondencias_departamento'
p4189
asbasbasbasbasbasbasbag57
(g73
g59
NtRp4190
(dp4191
g62
(dp4192
sg71
g4079
sg64
(lp4193
g57
(g78
g59
NtRp4194
(dp4195
g62
(dp4196
sg71
g4190
sg64
(lp4197
g57
(g58
g59
NtRp4198
(dp4199
g62
(dp4200
g70
I2
ssg71
g4194
sg64
(lp4201
g57
(g66
g59
NtRp4202
(dp4203
g62
(dp4204
g70
I1
ssg71
Nsg64
(lp4205
g57
(g73
g59
NtRp4206
(dp4207
g62
(dp4208
sg71
g4202
sg64
(lp4209
g57
(g78
g59
NtRp4210
(dp4211
g62
(dp4212
sg71
g4206
sg64
(lp4213
g57
(g58
g59
NtRp4214
(dp4215
g62
(dp4216
g70
I1
ssg71
g4210
sg64
(lp4217
S'Correspondencias a todo el Personal'
p4218
asbasbasbag57
(g73
g59
NtRp4219
(dp4220
g62
(dp4221
sg71
g4202
sg64
(lp4222
g57
(g78
g59
NtRp4223
(dp4224
g62
(dp4225
sg71
g4219
sg64
(lp4226
g57
(g58
g59
NtRp4227
(dp4228
g62
(dp4229
g70
I1
ssg71
g4223
sg64
(lp4230
I00
asbasbasbag57
(g73
g59
NtRp4231
(dp4232
g62
(dp4233
sg71
g4202
sg64
(lp4234
g57
(g78
g59
NtRp4235
(dp4236
g62
(dp4237
sg71
g4231
sg64
(lp4238
g57
(g58
g59
NtRp4239
(dp4240
g62
(dp4241
g70
I1
ssg71
g4235
sg64
(lp4242
S'/sicoin/correspondencia/correspondenciasDependencia'
p4243
asbasbasbasbasbasbasbasbasbasbasbasbasbasbasbag57
(g73
g59
NtRp4244
(dp4245
g62
(dp4246
sg71
g3938
sg64
(lp4247
g57
(g78
g59
NtRp4248
(dp4249
g62
(dp4250
sg71
g4244
sg64
(lp4251
g57
(g58
g59
NtRp4252
(dp4253
g62
(dp4254
g70
I4
ssg71
g4248
sg64
(lp4255
g57
(g66
g59
NtRp4256
(dp4257
g62
(dp4258
g70
I3
ssg71
Nsg64
(lp4259
g57
(g73
g59
NtRp4260
(dp4261
g62
(dp4262
sg71
g4256
sg64
(lp4263
g57
(g78
g59
NtRp4264
(dp4265
g62
(dp4266
sg71
g4260
sg64
(lp4267
g57
(g58
g59
NtRp4268
(dp4269
g62
(dp4270
g70
I3
ssg71
g4264
sg64
(lp4271
S'Configuraci\xc3\xb3n'
p4272
asbasbasbag57
(g73
g59
NtRp4273
(dp4274
g62
(dp4275
sg71
g4256
sg64
(lp4276
g57
(g78
g59
NtRp4277
(dp4278
g62
(dp4279
sg71
g4273
sg64
(lp4280
g57
(g58
g59
NtRp4281
(dp4282
g62
(dp4283
g70
I3
ssg71
g4277
sg64
(lp4284
g100
asbasbasbag57
(g73
g59
NtRp4285
(dp4286
g62
(dp4287
sg71
g4256
sg64
(lp4288
g57
(g78
g59
NtRp4289
(dp4290
g62
(dp4291
sg71
g4285
sg64
(lp4292
g57
(g58
g59
NtRp4293
(dp4294
g62
(dp4295
g70
I3
ssg71
g4289
sg64
(lp4296
S'None'
p4297
asbasbasbag57
(g73
g59
NtRp4298
(dp4299
g62
(dp4300
sg71
g4256
sg64
(lp4301
g57
(g78
g59
NtRp4302
(dp4303
g62
(dp4304
sg71
g4298
sg64
(lp4305
g57
(g58
g59
NtRp4306
(dp4307
g62
(dp4308
g70
I3
ssg71
g4302
sg64
(lp4309
g57
(g66
g59
NtRp4310
(dp4311
g62
(dp4312
g70
I2
ssg71
Nsg64
(lp4313
g57
(g73
g59
NtRp4314
(dp4315
g62
(dp4316
sg71
g4310
sg64
(lp4317
g57
(g78
g59
NtRp4318
(dp4319
g62
(dp4320
sg71
g4314
sg64
(lp4321
g57
(g58
g59
NtRp4322
(dp4323
g62
(dp4324
g70
I2
ssg71
g4318
sg64
(lp4325
g57
(g66
g59
NtRp4326
(dp4327
g62
(dp4328
g70
I1
ssg71
Nsg64
(lp4329
g57
(g73
g59
NtRp4330
(dp4331
g62
(dp4332
sg71
g4326
sg64
(lp4333
g57
(g78
g59
NtRp4334
(dp4335
g62
(dp4336
sg71
g4330
sg64
(lp4337
g57
(g58
g59
NtRp4338
(dp4339
g62
(dp4340
g70
I1
ssg71
g4334
sg64
(lp4341
S'Dependencias'
p4342
asbasbasbag57
(g73
g59
NtRp4343
(dp4344
g62
(dp4345
sg71
g4326
sg64
(lp4346
g57
(g78
g59
NtRp4347
(dp4348
g62
(dp4349
sg71
g4343
sg64
(lp4350
g57
(g58
g59
NtRp4351
(dp4352
g62
(dp4353
g70
I1
ssg71
g4347
sg64
(lp4354
I00
asbasbasbag57
(g73
g59
NtRp4355
(dp4356
g62
(dp4357
sg71
g4326
sg64
(lp4358
g57
(g78
g59
NtRp4359
(dp4360
g62
(dp4361
sg71
g4355
sg64
(lp4362
g57
(g58
g59
NtRp4363
(dp4364
g62
(dp4365
g70
I1
ssg71
g4359
sg64
(lp4366
S'/sicoin/configuracion/listar_dependencias'
p4367
asbasbasbasbasbasbasbag57
(g73
g59
NtRp4368
(dp4369
g62
(dp4370
sg71
g4310
sg64
(lp4371
g57
(g78
g59
NtRp4372
(dp4373
g62
(dp4374
sg71
g4368
sg64
(lp4375
g57
(g58
g59
NtRp4376
(dp4377
g62
(dp4378
g70
I2
ssg71
g4372
sg64
(lp4379
g57
(g66
g59
NtRp4380
(dp4381
g62
(dp4382
g70
I1
ssg71
Nsg64
(lp4383
g57
(g73
g59
NtRp4384
(dp4385
g62
(dp4386
sg71
g4380
sg64
(lp4387
g57
(g78
g59
NtRp4388
(dp4389
g62
(dp4390
sg71
g4384
sg64
(lp4391
g57
(g58
g59
NtRp4392
(dp4393
g62
(dp4394
g70
I1
ssg71
g4388
sg64
(lp4395
S'Departamentos'
p4396
asbasbasbag57
(g73
g59
NtRp4397
(dp4398
g62
(dp4399
sg71
g4380
sg64
(lp4400
g57
(g78
g59
NtRp4401
(dp4402
g62
(dp4403
sg71
g4397
sg64
(lp4404
g57
(g58
g59
NtRp4405
(dp4406
g62
(dp4407
g70
I1
ssg71
g4401
sg64
(lp4408
I00
asbasbasbag57
(g73
g59
NtRp4409
(dp4410
g62
(dp4411
sg71
g4380
sg64
(lp4412
g57
(g78
g59
NtRp4413
(dp4414
g62
(dp4415
sg71
g4409
sg64
(lp4416
g57
(g58
g59
NtRp4417
(dp4418
g62
(dp4419
g70
I1
ssg71
g4413
sg64
(lp4420
S'/sicoin/configuracion/listar_departamentos'
p4421
asbasbasbasbasbasbasbag57
(g73
g59
NtRp4422
(dp4423
g62
(dp4424
sg71
g4310
sg64
(lp4425
g57
(g78
g59
NtRp4426
(dp4427
g62
(dp4428
sg71
g4422
sg64
(lp4429
g57
(g58
g59
NtRp4430
(dp4431
g62
(dp4432
g70
I2
ssg71
g4426
sg64
(lp4433
g57
(g66
g59
NtRp4434
(dp4435
g62
(dp4436
g70
I1
ssg71
Nsg64
(lp4437
g57
(g73
g59
NtRp4438
(dp4439
g62
(dp4440
sg71
g4434
sg64
(lp4441
g57
(g78
g59
NtRp4442
(dp4443
g62
(dp4444
sg71
g4438
sg64
(lp4445
g57
(g58
g59
NtRp4446
(dp4447
g62
(dp4448
g70
I1
ssg71
g4442
sg64
(lp4449
S'Estatus'
p4450
asbasbasbag57
(g73
g59
NtRp4451
(dp4452
g62
(dp4453
sg71
g4434
sg64
(lp4454
g57
(g78
g59
NtRp4455
(dp4456
g62
(dp4457
sg71
g4451
sg64
(lp4458
g57
(g58
g59
NtRp4459
(dp4460
g62
(dp4461
g70
I1
ssg71
g4455
sg64
(lp4462
I00
asbasbasbag57
(g73
g59
NtRp4463
(dp4464
g62
(dp4465
sg71
g4434
sg64
(lp4466
g57
(g78
g59
NtRp4467
(dp4468
g62
(dp4469
sg71
g4463
sg64
(lp4470
g57
(g58
g59
NtRp4471
(dp4472
g62
(dp4473
g70
I1
ssg71
g4467
sg64
(lp4474
S'/sicoin/configuracion/listar_estatus'
p4475
asbasbasbasbasbasbasbag57
(g73
g59
NtRp4476
(dp4477
g62
(dp4478
sg71
g4310
sg64
(lp4479
g57
(g78
g59
NtRp4480
(dp4481
g62
(dp4482
sg71
g4476
sg64
(lp4483
g57
(g58
g59
NtRp4484
(dp4485
g62
(dp4486
g70
I2
ssg71
g4480
sg64
(lp4487
g57
(g66
g59
NtRp4488
(dp4489
g62
(dp4490
g70
I1
ssg71
Nsg64
(lp4491
g57
(g73
g59
NtRp4492
(dp4493
g62
(dp4494
sg71
g4488
sg64
(lp4495
g57
(g78
g59
NtRp4496
(dp4497
g62
(dp4498
sg71
g4492
sg64
(lp4499
g57
(g58
g59
NtRp4500
(dp4501
g62
(dp4502
g70
I1
ssg71
g4496
sg64
(lp4503
S'Tipo de Documentos'
p4504
asbasbasbag57
(g73
g59
NtRp4505
(dp4506
g62
(dp4507
sg71
g4488
sg64
(lp4508
g57
(g78
g59
NtRp4509
(dp4510
g62
(dp4511
sg71
g4505
sg64
(lp4512
g57
(g58
g59
NtRp4513
(dp4514
g62
(dp4515
g70
I1
ssg71
g4509
sg64
(lp4516
I00
asbasbasbag57
(g73
g59
NtRp4517
(dp4518
g62
(dp4519
sg71
g4488
sg64
(lp4520
g57
(g78
g59
NtRp4521
(dp4522
g62
(dp4523
sg71
g4517
sg64
(lp4524
g57
(g58
g59
NtRp4525
(dp4526
g62
(dp4527
g70
I1
ssg71
g4521
sg64
(lp4528
S'/sicoin/configuracion/listar_documentos'
p4529
asbasbasbasbasbasbasbag57
(g73
g59
NtRp4530
(dp4531
g62
(dp4532
sg71
g4310
sg64
(lp4533
g57
(g78
g59
NtRp4534
(dp4535
g62
(dp4536
sg71
g4530
sg64
(lp4537
g57
(g58
g59
NtRp4538
(dp4539
g62
(dp4540
g70
I2
ssg71
g4534
sg64
(lp4541
g57
(g66
g59
NtRp4542
(dp4543
g62
(dp4544
g70
I1
ssg71
Nsg64
(lp4545
g57
(g73
g59
NtRp4546
(dp4547
g62
(dp4548
sg71
g4542
sg64
(lp4549
g57
(g78
g59
NtRp4550
(dp4551
g62
(dp4552
sg71
g4546
sg64
(lp4553
g57
(g58
g59
NtRp4554
(dp4555
g62
(dp4556
g70
I1
ssg71
g4550
sg64
(lp4557
S'Asignaci\xc3\xb3n de Usuarios'
p4558
asbasbasbag57
(g73
g59
NtRp4559
(dp4560
g62
(dp4561
sg71
g4542
sg64
(lp4562
g57
(g78
g59
NtRp4563
(dp4564
g62
(dp4565
sg71
g4559
sg64
(lp4566
g57
(g58
g59
NtRp4567
(dp4568
g62
(dp4569
g70
I1
ssg71
g4563
sg64
(lp4570
I00
asbasbasbag57
(g73
g59
NtRp4571
(dp4572
g62
(dp4573
sg71
g4542
sg64
(lp4574
g57
(g78
g59
NtRp4575
(dp4576
g62
(dp4577
sg71
g4571
sg64
(lp4578
g57
(g58
g59
NtRp4579
(dp4580
g62
(dp4581
g70
I1
ssg71
g4575
sg64
(lp4582
S'/sicoin/configuracion/listar_usuarios'
p4583
asbasbasbasbasbasbasbasbasbasbasbasbasbasbasbasbasbasbasbag57
(g73
g59
NtRp4584
(dp4585
g62
(dp4586
sg71
g3502
sg64
(lp4587
g57
(g78
g59
NtRp4588
(dp4589
g62
(dp4590
g82
g83
ssg71
g4584
sg64
(lp4591
S'meta'
p4592
asbag57
(g78
g59
NtRp4593
(dp4594
g62
(dp4595
g89
g90
ssg71
g4584
sg64
(lp4596
S':'
asbag57
(g78
g59
NtRp4597
(dp4598
g62
(dp4599
sg71
g4584
sg64
(lp4600
g57
(g58
g59
NtRp4601
(dp4602
g62
(dp4603
g70
I5
ssg71
g4597
sg64
(lp4604
g57
(g66
g59
NtRp4605
(dp4606
g62
(dp4607
g70
I4
ssg71
Nsg64
(lp4608
g57
(g73
g59
NtRp4609
(dp4610
g62
(dp4611
sg71
g4605
sg64
(lp4612
g57
(g78
g59
NtRp4613
(dp4614
g62
(dp4615
g82
g83
ssg71
g4609
sg64
(lp4616
S'author'
p4617
asbag57
(g78
g59
NtRp4618
(dp4619
g62
(dp4620
g89
g90
ssg71
g4609
sg64
(lp4621
S':'
asbag57
(g78
g59
NtRp4622
(dp4623
g62
(dp4624
sg71
g4609
sg64
(lp4625
g57
(g58
g59
NtRp4626
(dp4627
g62
(dp4628
g70
I4
ssg71
g4622
sg64
(lp4629
S'TIC - FIPU <perdomor@ucv.ve>'
p4630
asbasbasbag57
(g73
g59
NtRp4631
(dp4632
g62
(dp4633
sg71
g4605
sg64
(lp4634
g57
(g78
g59
NtRp4635
(dp4636
g62
(dp4637
g82
g83
ssg71
g4631
sg64
(lp4638
S'description'
p4639
asbag57
(g78
g59
NtRp4640
(dp4641
g62
(dp4642
g89
g90
ssg71
g4631
sg64
(lp4643
S':'
asbag57
(g78
g59
NtRp4644
(dp4645
g62
(dp4646
sg71
g4631
sg64
(lp4647
g57
(g58
g59
NtRp4648
(dp4649
g62
(dp4650
g70
I4
ssg71
g4644
sg64
(lp4651
S''
asbasbasbag57
(g73
g59
NtRp4652
(dp4653
g62
(dp4654
sg71
g4605
sg64
(lp4655
g57
(g78
g59
NtRp4656
(dp4657
g62
(dp4658
g82
g83
ssg71
g4652
sg64
(lp4659
S'keywords'
p4660
asbag57
(g78
g59
NtRp4661
(dp4662
g62
(dp4663
g89
g90
ssg71
g4652
sg64
(lp4664
S':'
asbag57
(g78
g59
NtRp4665
(dp4666
g62
(dp4667
sg71
g4652
sg64
(lp4668
g57
(g58
g59
NtRp4669
(dp4670
g62
(dp4671
g70
I4
ssg71
g4665
sg64
(lp4672
S''
asbasbasbasbasbasbasbag57
(g73
g59
NtRp4673
(dp4674
g62
(dp4675
sg71
g3502
sg64
(lp4676
g57
(g78
g59
NtRp4677
(dp4678
g62
(dp4679
g82
g83
ssg71
g4673
sg64
(lp4680
S'models_to_run'
p4681
asbag57
(g78
g59
NtRp4682
(dp4683
g62
(dp4684
g89
g90
ssg71
g4673
sg64
(lp4685
S':'
asbag57
(g78
g59
NtRp4686
(dp4687
g62
(dp4688
sg71
g4673
sg64
(lp4689
g57
(g58
g59
NtRp4690
(dp4691
g62
(dp4692
g70
I5
ssg71
g4686
sg64
(lp4693
g57
(g66
g59
NtRp4694
(dp4695
g62
(dp4696
g70
I4
ssg71
Nsg64
(lp4697
g57
(g73
g59
NtRp4698
(dp4699
g62
(dp4700
sg71
g4694
sg64
(lp4701
g57
(g78
g59
NtRp4702
(dp4703
g62
(dp4704
sg71
g4698
sg64
(lp4705
g57
(g58
g59
NtRp4706
(dp4707
g62
(dp4708
g70
I4
ssg71
g4702
sg64
(lp4709
S'^\\w+\\.py$'
p4710
asbasbasbag57
(g73
g59
NtRp4711
(dp4712
g62
(dp4713
sg71
g4694
sg64
(lp4714
g57
(g78
g59
NtRp4715
(dp4716
g62
(dp4717
sg71
g4711
sg64
(lp4718
g57
(g58
g59
NtRp4719
(dp4720
g62
(dp4721
g70
I4
ssg71
g4715
sg64
(lp4722
S'^correspondencia/\\w+\\.py$'
p4723
asbasbasbag57
(g73
g59
NtRp4724
(dp4725
g62
(dp4726
sg71
g4694
sg64
(lp4727
g57
(g78
g59
NtRp4728
(dp4729
g62
(dp4730
sg71
g4724
sg64
(lp4731
g57
(g58
g59
NtRp4732
(dp4733
g62
(dp4734
g70
I4
ssg71
g4728
sg64
(lp4735
S'^correspondencia/agregarCorrespondenciaMultiple/\\w+\\.py$'
p4736
asbasbasbasbasbasbasbag57
(g73
g59
NtRp4737
(dp4738
g62
(dp4739
sg71
g3502
sg64
(lp4740
g57
(g78
g59
NtRp4741
(dp4742
g62
(dp4743
g82
g83
ssg71
g4737
sg64
(lp4744
S'postprocessing'
p4745
asbag57
(g78
g59
NtRp4746
(dp4747
g62
(dp4748
g89
g90
ssg71
g4737
sg64
(lp4749
S':'
asbag57
(g78
g59
NtRp4750
(dp4751
g62
(dp4752
sg71
g4737
sg64
(lp4753
g57
(g58
g59
NtRp4754
(dp4755
g62
(dp4756
g70
I5
ssg71
g4750
sg64
(lp4757
g57
(g66
g59
NtRp4758
(dp4759
g62
(dp4760
g70
I4
ssg71
Nsg64
(lp4761
sbasbasbasbag57
(g73
g59
NtRp4762
(dp4763
g62
(dp4764
sg71
g3502
sg64
(lp4765
g57
(g78
g59
NtRp4766
(dp4767
g62
(dp4768
g82
g83
ssg71
g4762
sg64
(lp4769
S'session_file'
p4770
asbag57
(g78
g59
NtRp4771
(dp4772
g62
(dp4773
g89
g90
ssg71
g4762
sg64
(lp4774
S':'
asbag57
(g78
g59
NtRp4775
(dp4776
g62
(dp4777
sg71
g4762
sg64
(lp4778
g57
(g58
g59
NtRp4779
(dp4780
g62
(dp4781
g70
I5
ssg71
g4775
sg64
(lp4782
S"<open file '/home/perdomor/web2py/applications/sicoin/sessions/190.169.221.43-18ae5cff-6588-4bc2-9b03-12ce6f7f60af', mode 'rb+' at 0xaeef9c0>"
p4783
asbasbasbag57
(g73
g59
NtRp4784
(dp4785
g62
(dp4786
sg71
g3502
sg64
(lp4787
g57
(g78
g59
NtRp4788
(dp4789
g62
(dp4790
g82
g83
ssg71
g4784
sg64
(lp4791
S'session_filename'
p4792
asbag57
(g78
g59
NtRp4793
(dp4794
g62
(dp4795
g89
g90
ssg71
g4784
sg64
(lp4796
S':'
asbag57
(g78
g59
NtRp4797
(dp4798
g62
(dp4799
sg71
g4784
sg64
(lp4800
g57
(g58
g59
NtRp4801
(dp4802
g62
(dp4803
g70
I5
ssg71
g4797
sg64
(lp4804
S'/home/perdomor/web2py/applications/sicoin/sessions/190.169.221.43-18ae5cff-6588-4bc2-9b03-12ce6f7f60af'
p4805
asbasbasbag57
(g73
g59
NtRp4806
(dp4807
g62
(dp4808
sg71
g3502
sg64
(lp4809
g57
(g78
g59
NtRp4810
(dp4811
g62
(dp4812
g82
g83
ssg71
g4806
sg64
(lp4813
S'session_id'
p4814
asbag57
(g78
g59
NtRp4815
(dp4816
g62
(dp4817
g89
g90
ssg71
g4806
sg64
(lp4818
S':'
asbag57
(g78
g59
NtRp4819
(dp4820
g62
(dp4821
sg71
g4806
sg64
(lp4822
g57
(g58
g59
NtRp4823
(dp4824
g62
(dp4825
g70
I5
ssg71
g4819
sg64
(lp4826
g475
asbasbasbag57
(g73
g59
NtRp4827
(dp4828
g62
(dp4829
sg71
g3502
sg64
(lp4830
g57
(g78
g59
NtRp4831
(dp4832
g62
(dp4833
g82
g83
ssg71
g4827
sg64
(lp4834
S'session_id_name'
p4835
asbag57
(g78
g59
NtRp4836
(dp4837
g62
(dp4838
g89
g90
ssg71
g4827
sg64
(lp4839
S':'
asbag57
(g78
g59
NtRp4840
(dp4841
g62
(dp4842
sg71
g4827
sg64
(lp4843
g57
(g58
g59
NtRp4844
(dp4845
g62
(dp4846
g70
I5
ssg71
g4840
sg64
(lp4847
g3559
asbasbasbag57
(g73
g59
NtRp4848
(dp4849
g62
(dp4850
sg71
g3502
sg64
(lp4851
g57
(g78
g59
NtRp4852
(dp4853
g62
(dp4854
g82
g83
ssg71
g4848
sg64
(lp4855
S'session_locked'
p4856
asbag57
(g78
g59
NtRp4857
(dp4858
g62
(dp4859
g89
g90
ssg71
g4848
sg64
(lp4860
S':'
asbag57
(g78
g59
NtRp4861
(dp4862
g62
(dp4863
sg71
g4848
sg64
(lp4864
g57
(g58
g59
NtRp4865
(dp4866
g62
(dp4867
g70
I5
ssg71
g4861
sg64
(lp4868
g1515
asbasbasbag57
(g73
g59
NtRp4869
(dp4870
g62
(dp4871
sg71
g3502
sg64
(lp4872
g57
(g78
g59
NtRp4873
(dp4874
g62
(dp4875
g82
g83
ssg71
g4869
sg64
(lp4876
S'session_new'
p4877
asbag57
(g78
g59
NtRp4878
(dp4879
g62
(dp4880
g89
g90
ssg71
g4869
sg64
(lp4881
S':'
asbag57
(g78
g59
NtRp4882
(dp4883
g62
(dp4884
sg71
g4869
sg64
(lp4885
g57
(g58
g59
NtRp4886
(dp4887
g62
(dp4888
g70
I5
ssg71
g4882
sg64
(lp4889
g100
asbasbasbag57
(g73
g59
NtRp4890
(dp4891
g62
(dp4892
sg71
g3502
sg64
(lp4893
g57
(g78
g59
NtRp4894
(dp4895
g62
(dp4896
g82
g83
ssg71
g4890
sg64
(lp4897
S'status'
p4898
asbag57
(g78
g59
NtRp4899
(dp4900
g62
(dp4901
g89
g90
ssg71
g4890
sg64
(lp4902
S':'
asbag57
(g78
g59
NtRp4903
(dp4904
g62
(dp4905
sg71
g4890
sg64
(lp4906
g57
(g58
g59
NtRp4907
(dp4908
g62
(dp4909
g70
I5
ssg71
g4903
sg64
(lp4910
S'200'
p4911
asbasbasbag57
(g73
g59
NtRp4912
(dp4913
g62
(dp4914
sg71
g3502
sg64
(lp4915
g57
(g78
g59
NtRp4916
(dp4917
g62
(dp4918
g82
g83
ssg71
g4912
sg64
(lp4919
S'subtitle'
p4920
asbag57
(g78
g59
NtRp4921
(dp4922
g62
(dp4923
g89
g90
ssg71
g4912
sg64
(lp4924
S':'
asbag57
(g78
g59
NtRp4925
(dp4926
g62
(dp4927
sg71
g4912
sg64
(lp4928
g57
(g58
g59
NtRp4929
(dp4930
g62
(dp4931
g70
I5
ssg71
g4925
sg64
(lp4932
S'Sistema Integrado de Correspondencia Interna'
p4933
asbasbasbag57
(g73
g59
NtRp4934
(dp4935
g62
(dp4936
sg71
g3502
sg64
(lp4937
g57
(g78
g59
NtRp4938
(dp4939
g62
(dp4940
g82
g83
ssg71
g4934
sg64
(lp4941
S'title'
p4942
asbag57
(g78
g59
NtRp4943
(dp4944
g62
(dp4945
g89
g90
ssg71
g4934
sg64
(lp4946
S':'
asbag57
(g78
g59
NtRp4947
(dp4948
g62
(dp4949
sg71
g4934
sg64
(lp4950
g57
(g58
g59
NtRp4951
(dp4952
g62
(dp4953
g70
I5
ssg71
g4947
sg64
(lp4954
S'SiCoIn'
p4955
asbasbasbag57
(g73
g59
NtRp4956
(dp4957
g62
(dp4958
sg71
g3502
sg64
(lp4959
g57
(g78
g59
NtRp4960
(dp4961
g62
(dp4962
g82
g83
ssg71
g4956
sg64
(lp4963
S'view'
p4964
asbag57
(g78
g59
NtRp4965
(dp4966
g62
(dp4967
g89
g90
ssg71
g4956
sg64
(lp4968
S':'
asbag57
(g78
g59
NtRp4969
(dp4970
g62
(dp4971
sg71
g4956
sg64
(lp4972
g57
(g58
g59
NtRp4973
(dp4974
g62
(dp4975
g70
I5
ssg71
g4969
sg64
(lp4976
S'correspondencia/agregarCorrespondenciaMultiple.html'
p4977
asbasbasbasbasbsS'locals'
p4978
(dp4979
S'text'
p4980
S'None'
p4981
sssS'traceback'
p4982
S'Traceback (most recent call last):\n  File "/home/perdomor/web2py/gluon/restricted.py", line 209, in restricted\n    exec ccode in environment\n  File "/home/perdomor/web2py/applications/sicoin/controllers/correspondencia.py", line 593, in <module>\n  File "/home/perdomor/web2py/gluon/globals.py", line 186, in <lambda>\n    self._caller = lambda f: f()\n  File "/home/perdomor/web2py/applications/sicoin/controllers/correspondencia.py", line 579, in agregarCorrespondenciaMultiple\n    [Field(None), Field(None)],\n  File "/home/perdomor/web2py/gluon/dal.py", line 8411, in __init__\n    self.name = fieldname = cleanup(fieldname)\n  File "/home/perdomor/web2py/gluon/dal.py", line 4778, in cleanup\n    if not REGEX_ALPHANUMERIC.match(text):\nTypeError: expected string or buffer\n'
p4983
s.