(dp1
S'output'
p2
S"<type 'exceptions.SyntaxError'> invalid syntax (ver_correspondencia.html, line 87)"
p3
sS'layer'
p4
S'/home/perdomor/web2py/applications/sicoin/views/correspondencia/ver_correspondencia.html'
p5
sS'code'
p6
S'response.write(\'<!DOCTYPE html>\\n<!-- paulirish.com/2008/conditional-stylesheets-vs-css-hacks-answer-neither/ -->\\n<!--[if lt IE 7]><html class="ie ie6 ie-lte9 ie-lte8 ie-lte7 no-js" lang="\', escape=False)\nresponse.write(T.accepted_language or \'en\')\nresponse.write(\'"> <![endif]-->\\n<!--[if IE 7]><html class="ie ie7 ie-lte9 ie-lte8 ie-lte7 no-js" lang="\', escape=False)\nresponse.write(T.accepted_language or \'en\')\nresponse.write(\'"> <![endif]-->\\n<!--[if IE 8]><html class="ie ie8 ie-lte9 ie-lte8 no-js" lang="\', escape=False)\nresponse.write(T.accepted_language or \'en\')\nresponse.write(\'"> <![endif]-->\\n<!--[if IE 9]><html class="ie9 ie-lte9 no-js" lang="\', escape=False)\nresponse.write(T.accepted_language or \'en\')\nresponse.write(\'"> <![endif]-->\\n<!--[if (gt IE 9)|!(IE)]><!--> <html class="no-js" lang="\', escape=False)\nresponse.write(T.accepted_language or \'en\')\nresponse.write(\'"> <!--<![endif]-->\\n<head>\\n  <meta charset="utf-8" />\\n  <!-- www.phpied.com/conditional-comments-block-downloads/ -->\\n  <!-- Always force latest IE rendering engine\\n       (even in intranet) & Chrome Frame\\n       Remove this if you use the .htaccess -->\\n  <!--[if IE]>\\n      <meta http-equiv="X-UA-Compatible" content="IE=edge\', escape=False)\nresponse.write(not request.is_local and \',chrome=1\' or \'\')\nresponse.write(\'">\\n      <![endif]-->\\n\\n  <title>\', escape=False)\nresponse.write(response.title or request.application)\nresponse.write(\'</title>\\n\\n  <!-- http://dev.w3.org/html5/markup/meta.name.html -->\\n  <meta name="application-name" content="\', escape=False)\nresponse.write(request.application)\nresponse.write(\'" />\\n\\n  <!-- Speaking of Google, don\\\'t forget to set your site up:\\n       http://google.com/webmasters -->\\n  <!-- meta name="google-site-verification" content="" / -->\\n\\n  <!--  Mobile Viewport Fix\\n        j.mp/mobileviewport & davidbcalhoun.com/2010/viewport-metatag\\n        device-width: Occupy full width of the screen in its current orientation\\n        initial-scale = 1.0 retains dimensions instead of zooming out if page height > device height\\n        user-scalable = yes allows the user to zoom in -->\\n  <meta name="viewport" content="width=device-width, initial-scale=1.0">\\n\\n  <link rel="shortcut icon" href="\', escape=False)\nresponse.write(URL(\'static\',\'images/favicon.ico\'))\nresponse.write(\'" type="image/x-icon">\\n  <link rel="apple-touch-icon" href="\', escape=False)\nresponse.write(URL(\'static\',\'images/favicon.png\'))\nresponse.write(\'">\\n\\n  <!-- All JavaScript at the bottom, except for Modernizr which enables\\n       HTML5 elements & feature detects -->\\n  <script src="\', escape=False)\nresponse.write(URL(\'static\',\'js/modernizr.custom.js\'))\nresponse.write(\'"></script>\\n\\n  <!-- include stylesheets -->\\n  \', escape=False)\nresponse.files.append(URL(\'static\',\'css/bootstrap.min.css\'))\nresponse.files.append(URL(\'static\',\'css/bootstrap-responsive.min.css\'))\nresponse.files.append(URL(\'static\',\'css/web2py.css\'))\nresponse.files.append(URL(\'static\',\'css/web2py_bootstrap.css\'))\nresponse.write(\'\\n\\n  \', escape=False)\nresponse.write(\'<script type="text/javascript"><!--\\n    // These variables are used by the web2py_ajax_init function in web2py_ajax.js (which is loaded below).\\n    var w2p_ajax_confirm_message = "\', escape=False)\nresponse.write(T(\'Are you sure you want to delete this object?\'))\nresponse.write(\'";\\n    var w2p_ajax_date_format = "\', escape=False)\nresponse.write(T(\'%Y-%m-%d\'))\nresponse.write(\'";\\n    var w2p_ajax_datetime_format = "\', escape=False)\nresponse.write(T(\'%Y-%m-%d %H:%M:%S\'))\nresponse.write(\'";\\n    //--></script>\\n\', escape=False)\nresponse.files.insert(0,URL(\'static\',\'js/jquery.js\'))\nresponse.files.insert(1,URL(\'static\',\'css/calendar.css\'))\nresponse.files.insert(2,URL(\'static\',\'js/calendar.js\'))\nresponse.files.insert(3,URL(\'static\',\'js/web2py.js\'))\nresponse.include_meta()\nresponse.include_files()\nresponse.write(\'\\n\', escape=False)\nresponse.write(\'\\n\\n  \', escape=False)\n# using sidebars need to know what sidebar you want to use\nleft_sidebar_enabled = globals().get(\'left_sidebar_enabled\',False)\nright_sidebar_enabled = globals().get(\'right_sidebar_enabled\',False)\nmiddle_columns = {0:\'span12\',1:\'span9\',2:\'span6\'}[\n(left_sidebar_enabled and 1 or 0)+(right_sidebar_enabled and 1 or 0)]\nresponse.write(\'\\n\\n  <!-- uncomment here to load jquery-ui\\n       <link rel="stylesheet" href="http://ajax.googleapis.com/ajax/libs/jqueryui/1.8.16/themes/base/jquery-ui.css" type="text/css" media="all" />\\n       <script src="http://ajax.googleapis.com/ajax/libs/jqueryui/1.8.16/jquery-ui.min.js" type="text/javascript"></script>\\n       uncomment to load jquery-ui //-->\\n  <noscript><link href="\', escape=False)\nresponse.write(URL(\'static\', \'css/web2py_bootstrap_nojs.css\'))\nresponse.write(\'" rel="stylesheet" type="text/css" /></noscript>\\n  \', escape=False)\nresponse.write(\'\\n</head>\\n\\n<body>\\n  <!-- Navbar ================================================== -->\\n  <div class="navbar navbar-fixed-top">\\n    <div class="flash">\', escape=False)\nresponse.write(response.flash or \'\')\nresponse.write(\'</div>\\n    <div class="navbar-inner">\\n\\t\', escape=False)\nresponse.write(IMG(_src=URL(\'static\', \'images/correspondencia-icon.png\'), _height="40", _width="40", _style="float:left; margin:5px 5px 0px 40px;"))\nresponse.write(\'\\n      <div class="container">\\n        <!-- the next tag is necessary for bootstrap menus, do not remove -->\\n        <a class="btn btn-navbar" data-toggle="collapse" data-target=".nav-collapse">\\n          <span class="icon-bar"></span>\\n          <span class="icon-bar"></span>\\n          <span class="icon-bar"></span>\\n        </a>\\n\\t\\t<a class="brand" href="#">&nbsp;&nbsp;SiCoIn DFIPU&nbsp;</a>\\n        \\t\\n        <ul id="navbar" class="nav pull-right">\', escape=False)\nresponse.write(\'auth\' in globals() and auth.navbar(mode="dropdown") or \'\')\nresponse.write(\'</ul>\\n        <div class="nav-collapse">\\n          \', escape=False)\nis_mobile=request.user_agent().is_mobile\nresponse.write(\'\\n          \', escape=False)\nif response.menu:\n    response.write(\'\\n          \', escape=False)\n    response.write(MENU(response.menu, _class=\'mobile-menu nav\' if is_mobile else \'nav\',mobile=is_mobile,li_class=\'dropdown\',ul_class=\'dropdown-menu\'))\n    response.write(\'\\n          \', escape=False)\n    pass\nresponse.write(\'\\n        </div><!--/.nav-collapse -->\\n      </div>\\n    </div>\\n  </div><!--/top navbar -->\\n\\n  <div class="container">\\n    <!-- Masthead ================================================== -->\\n    <header class="mastheader row" id="header">\\n        <div class="span12">\\n            <div class="page-header">\\n                    <center>\\n                    <table>\\n                    \\t<tr>\\n                    \\t\\t<td>\\n                                \', escape=False)\nresponse.write(IMG(_src=URL(\'static\', \'images/dfipu.png\'), _height="80", _width="80"))\nresponse.write(\'\\n                            </td>\\n                    \\t\\t<td style="vertical-align:middle">\\n                                <h1>\', escape=False)\nresponse.write(response.title or request.application)\nresponse.write(\'</h1>\\n                            </td>\\n                            <td style="vertical-align:bottom">\\n                                <small><p>\', escape=False)\nresponse.write(response.subtitle or \'\')\nresponse.write(\' <br />Direcci&oacute;n de Formaci&oacute;n Integral y Proyecci&oacute;n Universitaria</p></small>\\n                            </td>\\n                            <td>\\n                                \', escape=False)\nresponse.write(IMG(_src=URL(\'static\', \'images/tic-dfipu.png\'), _height="130", _width="120"))\nresponse.write(\'\\n                            </td>\\n                        </tr>\\n                    </table>\\n                </center>\\n            </div>\\n        </div>\\n    </header>\\n\\n    <section id="main" class="main row">\\n        \', escape=False)\nif left_sidebar_enabled:\n    response.write(\'\\n        <div class="span3 left-sidebar">\\n            \', escape=False)\n    response.write(\'\\n            <h3>Left Sidebar</h3>\\n            <p></p>\\n            \', escape=False)\n    response.write(\'\\n        </div>\\n        \', escape=False)\n    pass\nresponse.write(\'\\n\\n        <div class="\', escape=False)\nresponse.write(middle_columns)\nresponse.write(\'">\\n            \', escape=False)\nresponse.write(\'\\n            \', escape=False)\nresponse.write(\'\\n<script src="\', escape=False)\nresponse.write(URL(\'static\',\'js/jqprint.js\'))\nresponse.write(\'"></script>\\n<div class="form_header row_buttons  "><a class="w2p_trap button btn" href="javascript:history.go(-1)"><span class="icon leftarrow icon-arrow-left"></span><span class="buttontext button" title="Regresar">Regresar</span></a><a class="w2p_trap button btn" onclick="javascript:$(\\\'#reporte\\\').jqprint();"><span class="icon print icon-print"></span><span class="buttontext button" title="Imprimir">Imprimir</span></a>\\n\\n    \', escape=False)\nif request.args(0)!="archivo" or request.args(0)!="activo"::\n    response.write(\'\\n\\t<a class="w2p_trap button btn" href="/sicoin/correspondencia/editar_correspondencia/\', escape=False)\n    response.write(id)\n    response.write(\'"><span class="icon pen icon-pencil"></span><span \\tclass="buttontext button" title="Editar">Editar</span></a></div>\\n\', escape=False)\n    pass\nresponse.write(\'\\n<div id="reporte">\\n\', escape=False)\nresponse.write(form)\nresponse.write(\'\\n</div>\\n<script>\\nstrfecha = $("#correspondencia_fecha_correspondencia__label").parent().next().html();\\ndateParts = strfecha.split("-");\\nfecha = new Date(dateParts[2], (dateParts[1] - 1), dateParts[0]);\\nvar diasemana = "";\\ndia = fecha.getDay();\\nswitch(fecha.getDay()){\\n    case 0: diasemana = "Domingo";\\n            break\\n    case 1: diasemana = "Lunes";\\n            break\\n    case 2: diasemana = "Martes";\\n            break\\n    case 3: diasemana = "Miercoles";\\n            break\\n    case 4: diasemana = "Jueves";\\n            break\\n    case 5: diasemana = "Viernes";\\n            break\\n    default: diasemana = "Sabado";\\n            break\\n}\\n$("#correspondencia_fecha_correspondencia__label").parent().next().html(diasemana + ", " + strfecha);\\n</script>\\n\', escape=False)\nresponse.write(\'\\n            \', escape=False)\nresponse.write(\'\\n        </div>\\n\\n        \', escape=False)\nif right_sidebar_enabled:\n    response.write(\'\\n        <div class="span3">\\n            \', escape=False)\n    response.write(\'\\n            <h3>Right Sidebar</h3>\\n            <p></p>\\n            \', escape=False)\n    response.write(\'\\n        </div>\\n        \', escape=False)\n    pass\nresponse.write(\'\\n    </section><!--/main-->\\n\\n    <!-- Footer ================================================== -->\\n    <div class="row">\\n        <footer class=" span12" id="footer">\\n            \', escape=False)\nresponse.write(IMG(_src=URL(\'static\', \'images/ucv.png\'), _height="65", _width="65", _style="float:left;"))\nresponse.write(\'\\n            <div class="">              \\n                \', escape=False)\nresponse.write(\' <!-- this is default footer -->\\n                <div class="copyright pull-left">&nbsp;&nbsp;Desarrollado por el Departamento de Tecnolog&iacute;a de Informaci&oacute;n y Comunicaciones<br />\\n                    &nbsp;&nbsp;Direcci&oacute;n de Formaci&oacute;n Integral y Proyecci&oacute;n Universitaria<br />\\n                    &nbsp;&nbsp;Universidad Central de Venezuela - \', escape=False)\nresponse.write(request.now.year)\nresponse.write(\'</div>\\n                <div id="poweredBy" class="pull-right">\\n\\n                </div>\\n                \', escape=False)\nresponse.write(\'\\n            </div>\\n        </footer>\\n    </div>\\n\\n  </div> <!-- /container -->\\n\\n  <!-- The javascript =============================================\\n       (Placed at the end of the document so the pages load faster) -->\\n  <script>\\n    // this code improves bootstrap menus and adds dropdown support\\n    jQuery(function(){\\n      jQuery(\\\'.nav>li>a\\\').each(function(){\\n        if(jQuery(this).parent().find(\\\'ul\\\').length)\\n          jQuery(this).attr({\\\'class\\\':\\\'dropdown-toggle\\\',\\\'data-toggle\\\':\\\'dropdown\\\'}).append(\\\'<b class="caret"></b>\\\');\\n      });\\n      jQuery(\\\'.nav li li\\\').each(function(){\\n        if(jQuery(this).find(\\\'ul\\\').length)\\n          jQuery(this).children(\\\'a\\\').contents().before(\\\'<i class="chevron-right"></i>\\\');\\n      });\\n      if(jQuery(document).width()>=980) {\\n        jQuery(\\\'ul.nav li.dropdown\\\').hover(function() {\\n          jQuery(this).find(\\\'.dropdown-menu\\\').stop(true, true).delay(200).fadeIn();\\n        }, function() {\\n          jQuery(this).find(\\\'.dropdown-menu\\\').stop(true, true).delay(200).fadeOut();\\n        });\\n      }\\n      jQuery(\\\'ul.nav li.dropdown a\\\').click(function(){window.location=jQuery(this).attr(\\\'href\\\');});\\n      // make all buttons bootstrap buttons\\n      jQuery(\\\'button, form input[type="submit"], form input[type="button"]\\\').addClass(\\\'btn\\\').css({\\\'margin-right\\\':\\\'2px\\\',\\\'margin-bottom\\\':\\\'2px\\\'});\\n    });\\n  </script>\\n  <script src="\', escape=False)\nresponse.write(URL(\'static\',\'js/bootstrap.min.js\'))\nresponse.write(\'"></script>\\n  <!--[if lt IE 7 ]>\\n      <script src="\', escape=False)\nresponse.write(URL(\'static\',\'js/dd_belatedpng.js\'))\nresponse.write(\'"></script>\\n      <script> DD_belatedPNG.fix(\\\'img, .png_bg\\\'); //fix any <img> or .png_bg background-images </script>\\n      <![endif]-->\\n  \\n</body>\\n</html>\\n\', escape=False)'
p7
sS'snapshot'
p8
(dp9
S'exception'
p10
(dp11
S'__getslice__'
p12
S"<method-wrapper '__getslice__' of exceptions.SyntaxError object>"
p13
sS'text'
p14
S'\'if request.args(0)!="archivo" or request.args(0)!="activo"::\\n\''
p15
sS'__str__'
p16
S"<method-wrapper '__str__' of exceptions.SyntaxError object>"
p17
sS'__reduce__'
p18
S'<built-in method __reduce__ of exceptions.SyntaxError object>'
p19
sS'__dict__'
p20
S'{}'
p21
sS'__sizeof__'
p22
S'<built-in method __sizeof__ of exceptions.SyntaxError object>'
p23
sS'__init__'
p24
S"<method-wrapper '__init__' of exceptions.SyntaxError object>"
p25
sS'__setattr__'
p26
S"<method-wrapper '__setattr__' of exceptions.SyntaxError object>"
p27
sS'__reduce_ex__'
p28
S'<built-in method __reduce_ex__ of exceptions.SyntaxError object>'
p29
sS'__new__'
p30
S'<built-in method __new__ of type object>'
p31
sS'__format__'
p32
S'<built-in method __format__ of exceptions.SyntaxError object>'
p33
sS'__class__'
p34
S"<type 'exceptions.SyntaxError'>"
p35
sS'filename'
p36
S"'/home/perdomor/web2py/applications/sicoin/views/correspondencia/ver_correspondencia.html'"
p37
sS'lineno'
p38
S'87'
p39
sS'msg'
p40
S"'invalid syntax'"
p41
sS'__doc__'
p42
S"'Invalid syntax.'"
p43
sS'__getitem__'
p44
S"<method-wrapper '__getitem__' of exceptions.SyntaxError object>"
p45
sS'__setstate__'
p46
S'<built-in method __setstate__ of exceptions.SyntaxError object>'
p47
sS'__getattribute__'
p48
S"<method-wrapper '__getattribute__' of exceptions.SyntaxError object>"
p49
sS'print_file_and_line'
p50
S'None'
p51
sS'args'
p52
S'(\'invalid syntax\', (\'/home/perdomor/web2py/applications/sicoin/views/correspondencia/ver_correspondencia.html\', 87, 60, \'if request.args(0)!="archivo" or request.args(0)!="activo"::\\n\'))'
p53
sS'__subclasshook__'
p54
S'<built-in method __subclasshook__ of type object>'
p55
sS'offset'
p56
S'60'
p57
sS'__unicode__'
p58
S'<built-in method __unicode__ of exceptions.SyntaxError object>'
p59
sS'__delattr__'
p60
S"<method-wrapper '__delattr__' of exceptions.SyntaxError object>"
p61
sS'__repr__'
p62
S"<method-wrapper '__repr__' of exceptions.SyntaxError object>"
p63
sS'__hash__'
p64
S"<method-wrapper '__hash__' of exceptions.SyntaxError object>"
p65
ssS'evalue'
p66
S'invalid syntax (ver_correspondencia.html, line 87)'
p67
sS'request'
p68
ccopy_reg
_reconstructor
p69
(cgluon.html
BEAUTIFY
p70
c__builtin__
object
p71
NtRp72
(dp73
S'attributes'
p74
(dp75
sS'components'
p76
(lp77
g69
(cgluon.html
TABLE
p78
g71
NtRp79
(dp80
g74
(dp81
S'level'
p82
I5
ssS'parent'
p83
Nsg76
(lp84
g69
(cgluon.html
TR
p85
g71
NtRp86
(dp87
g74
(dp88
sg83
g79
sg76
(lp89
g69
(cgluon.html
TD
p90
g71
NtRp91
(dp92
g74
(dp93
S'_style'
p94
S'font-weight:bold;vertical-align:top'
p95
ssg83
g86
sg76
(lp96
S'ajax'
p97
asbag69
(g90
g71
NtRp98
(dp99
g74
(dp100
S'_valign'
p101
S'top'
p102
ssg83
g86
sg76
(lp103
S':'
asbag69
(g90
g71
NtRp104
(dp105
g74
(dp106
sg83
g86
sg76
(lp107
g69
(g70
g71
NtRp108
(dp109
g74
(dp110
g82
I5
ssg83
g104
sg76
(lp111
S'False'
p112
asbasbasbag69
(g85
g71
NtRp113
(dp114
g74
(dp115
sg83
g79
sg76
(lp116
g69
(g90
g71
NtRp117
(dp118
g74
(dp119
g94
g95
ssg83
g113
sg76
(lp120
S'application'
p121
asbag69
(g90
g71
NtRp122
(dp123
g74
(dp124
g101
g102
ssg83
g113
sg76
(lp125
S':'
asbag69
(g90
g71
NtRp126
(dp127
g74
(dp128
sg83
g113
sg76
(lp129
g69
(g70
g71
NtRp130
(dp131
g74
(dp132
g82
I5
ssg83
g126
sg76
(lp133
S'sicoin'
p134
asbasbasbag69
(g85
g71
NtRp135
(dp136
g74
(dp137
sg83
g79
sg76
(lp138
g69
(g90
g71
NtRp139
(dp140
g74
(dp141
g94
g95
ssg83
g135
sg76
(lp142
g52
asbag69
(g90
g71
NtRp143
(dp144
g74
(dp145
g101
g102
ssg83
g135
sg76
(lp146
S':'
asbag69
(g90
g71
NtRp147
(dp148
g74
(dp149
sg83
g135
sg76
(lp150
g69
(g70
g71
NtRp151
(dp152
g74
(dp153
g82
I5
ssg83
g147
sg76
(lp154
g69
(g78
g71
NtRp155
(dp156
g74
(dp157
g82
I4
ssg83
Nsg76
(lp158
g69
(g85
g71
NtRp159
(dp160
g74
(dp161
sg83
g155
sg76
(lp162
g69
(g90
g71
NtRp163
(dp164
g74
(dp165
sg83
g159
sg76
(lp166
g69
(g70
g71
NtRp167
(dp168
g74
(dp169
g82
I4
ssg83
g163
sg76
(lp170
S'archivo'
p171
asbasbasbag69
(g85
g71
NtRp172
(dp173
g74
(dp174
sg83
g155
sg76
(lp175
g69
(g90
g71
NtRp176
(dp177
g74
(dp178
sg83
g172
sg76
(lp179
g69
(g70
g71
NtRp180
(dp181
g74
(dp182
g82
I4
ssg83
g176
sg76
(lp183
S'51'
p184
asbasbasbasbasbasbasbag69
(g85
g71
NtRp185
(dp186
g74
(dp187
sg83
g79
sg76
(lp188
g69
(g90
g71
NtRp189
(dp190
g74
(dp191
g94
g95
ssg83
g185
sg76
(lp192
S'body'
p193
asbag69
(g90
g71
NtRp194
(dp195
g74
(dp196
g101
g102
ssg83
g185
sg76
(lp197
S':'
asbag69
(g90
g71
NtRp198
(dp199
g74
(dp200
sg83
g185
sg76
(lp201
g69
(g70
g71
NtRp202
(dp203
g74
(dp204
g82
I5
ssg83
g198
sg76
(lp205
S'<cStringIO.StringO object at 0xa3b6680>'
p206
asbasbasbag69
(g85
g71
NtRp207
(dp208
g74
(dp209
sg83
g79
sg76
(lp210
g69
(g90
g71
NtRp211
(dp212
g74
(dp213
g94
g95
ssg83
g207
sg76
(lp214
S'cid'
p215
asbag69
(g90
g71
NtRp216
(dp217
g74
(dp218
g101
g102
ssg83
g207
sg76
(lp219
S':'
asbag69
(g90
g71
NtRp220
(dp221
g74
(dp222
sg83
g207
sg76
(lp223
g69
(g70
g71
NtRp224
(dp225
g74
(dp226
g82
I5
ssg83
g220
sg76
(lp227
S'None'
p228
asbasbasbag69
(g85
g71
NtRp229
(dp230
g74
(dp231
sg83
g79
sg76
(lp232
g69
(g90
g71
NtRp233
(dp234
g74
(dp235
g94
g95
ssg83
g229
sg76
(lp236
S'client'
p237
asbag69
(g90
g71
NtRp238
(dp239
g74
(dp240
g101
g102
ssg83
g229
sg76
(lp241
S':'
asbag69
(g90
g71
NtRp242
(dp243
g74
(dp244
sg83
g229
sg76
(lp245
g69
(g70
g71
NtRp246
(dp247
g74
(dp248
g82
I5
ssg83
g242
sg76
(lp249
S'190.169.221.43'
p250
asbasbasbag69
(g85
g71
NtRp251
(dp252
g74
(dp253
sg83
g79
sg76
(lp254
g69
(g90
g71
NtRp255
(dp256
g74
(dp257
g94
g95
ssg83
g251
sg76
(lp258
S'controller'
p259
asbag69
(g90
g71
NtRp260
(dp261
g74
(dp262
g101
g102
ssg83
g251
sg76
(lp263
S':'
asbag69
(g90
g71
NtRp264
(dp265
g74
(dp266
sg83
g251
sg76
(lp267
g69
(g70
g71
NtRp268
(dp269
g74
(dp270
g82
I5
ssg83
g264
sg76
(lp271
S'correspondencia'
p272
asbasbasbag69
(g85
g71
NtRp273
(dp274
g74
(dp275
sg83
g79
sg76
(lp276
g69
(g90
g71
NtRp277
(dp278
g74
(dp279
g94
g95
ssg83
g273
sg76
(lp280
S'cookies'
p281
asbag69
(g90
g71
NtRp282
(dp283
g74
(dp284
g101
g102
ssg83
g273
sg76
(lp285
S':'
asbag69
(g90
g71
NtRp286
(dp287
g74
(dp288
sg83
g273
sg76
(lp289
g69
(g70
g71
NtRp290
(dp291
g74
(dp292
g82
I5
ssg83
g286
sg76
(lp293
g69
(g78
g71
NtRp294
(dp295
g74
(dp296
g82
I4
ssg83
Nsg76
(lp297
g69
(g85
g71
NtRp298
(dp299
g74
(dp300
sg83
g294
sg76
(lp301
g69
(g90
g71
NtRp302
(dp303
g74
(dp304
g94
g95
ssg83
g298
sg76
(lp305
S'session_id_admin'
p306
asbag69
(g90
g71
NtRp307
(dp308
g74
(dp309
g101
g102
ssg83
g298
sg76
(lp310
S':'
asbag69
(g90
g71
NtRp311
(dp312
g74
(dp313
sg83
g298
sg76
(lp314
g69
(g70
g71
NtRp315
(dp316
g74
(dp317
g82
I4
ssg83
g311
sg76
(lp318
S'190.169.221.43-c7bdc5fc-d522-4b89-80fc-3924caea157a'
p319
ag69
(g78
g71
NtRp320
(dp321
g74
(dp322
g82
I3
ssg83
Nsg76
(lp323
g69
(g85
g71
NtRp324
(dp325
g74
(dp326
sg83
g320
sg76
(lp327
g69
(g90
g71
NtRp328
(dp329
g74
(dp330
g94
g95
ssg83
g324
sg76
(lp331
S'comment'
p332
asbag69
(g90
g71
NtRp333
(dp334
g74
(dp335
g101
g102
ssg83
g324
sg76
(lp336
S':'
asbag69
(g90
g71
NtRp337
(dp338
g74
(dp339
sg83
g324
sg76
(lp340
g69
(g70
g71
NtRp341
(dp342
g74
(dp343
g82
I3
ssg83
g337
sg76
(lp344
S''
asbasbasbag69
(g85
g71
NtRp345
(dp346
g74
(dp347
sg83
g320
sg76
(lp348
g69
(g90
g71
NtRp349
(dp350
g74
(dp351
g94
g95
ssg83
g345
sg76
(lp352
S'domain'
p353
asbag69
(g90
g71
NtRp354
(dp355
g74
(dp356
g101
g102
ssg83
g345
sg76
(lp357
S':'
asbag69
(g90
g71
NtRp358
(dp359
g74
(dp360
sg83
g345
sg76
(lp361
g69
(g70
g71
NtRp362
(dp363
g74
(dp364
g82
I3
ssg83
g358
sg76
(lp365
S''
asbasbasbag69
(g85
g71
NtRp366
(dp367
g74
(dp368
sg83
g320
sg76
(lp369
g69
(g90
g71
NtRp370
(dp371
g74
(dp372
g94
g95
ssg83
g366
sg76
(lp373
S'expires'
p374
asbag69
(g90
g71
NtRp375
(dp376
g74
(dp377
g101
g102
ssg83
g366
sg76
(lp378
S':'
asbag69
(g90
g71
NtRp379
(dp380
g74
(dp381
sg83
g366
sg76
(lp382
g69
(g70
g71
NtRp383
(dp384
g74
(dp385
g82
I3
ssg83
g379
sg76
(lp386
S''
asbasbasbag69
(g85
g71
NtRp387
(dp388
g74
(dp389
sg83
g320
sg76
(lp390
g69
(g90
g71
NtRp391
(dp392
g74
(dp393
g94
g95
ssg83
g387
sg76
(lp394
S'httponly'
p395
asbag69
(g90
g71
NtRp396
(dp397
g74
(dp398
g101
g102
ssg83
g387
sg76
(lp399
S':'
asbag69
(g90
g71
NtRp400
(dp401
g74
(dp402
sg83
g387
sg76
(lp403
g69
(g70
g71
NtRp404
(dp405
g74
(dp406
g82
I3
ssg83
g400
sg76
(lp407
S''
asbasbasbag69
(g85
g71
NtRp408
(dp409
g74
(dp410
sg83
g320
sg76
(lp411
g69
(g90
g71
NtRp412
(dp413
g74
(dp414
g94
g95
ssg83
g408
sg76
(lp415
S'max-age'
p416
asbag69
(g90
g71
NtRp417
(dp418
g74
(dp419
g101
g102
ssg83
g408
sg76
(lp420
S':'
asbag69
(g90
g71
NtRp421
(dp422
g74
(dp423
sg83
g408
sg76
(lp424
g69
(g70
g71
NtRp425
(dp426
g74
(dp427
g82
I3
ssg83
g421
sg76
(lp428
S''
asbasbasbag69
(g85
g71
NtRp429
(dp430
g74
(dp431
sg83
g320
sg76
(lp432
g69
(g90
g71
NtRp433
(dp434
g74
(dp435
g94
g95
ssg83
g429
sg76
(lp436
S'path'
p437
asbag69
(g90
g71
NtRp438
(dp439
g74
(dp440
g101
g102
ssg83
g429
sg76
(lp441
S':'
asbag69
(g90
g71
NtRp442
(dp443
g74
(dp444
sg83
g429
sg76
(lp445
g69
(g70
g71
NtRp446
(dp447
g74
(dp448
g82
I3
ssg83
g442
sg76
(lp449
S''
asbasbasbag69
(g85
g71
NtRp450
(dp451
g74
(dp452
sg83
g320
sg76
(lp453
g69
(g90
g71
NtRp454
(dp455
g74
(dp456
g94
g95
ssg83
g450
sg76
(lp457
S'secure'
p458
asbag69
(g90
g71
NtRp459
(dp460
g74
(dp461
g101
g102
ssg83
g450
sg76
(lp462
S':'
asbag69
(g90
g71
NtRp463
(dp464
g74
(dp465
sg83
g450
sg76
(lp466
g69
(g70
g71
NtRp467
(dp468
g74
(dp469
g82
I3
ssg83
g463
sg76
(lp470
S''
asbasbasbag69
(g85
g71
NtRp471
(dp472
g74
(dp473
sg83
g320
sg76
(lp474
g69
(g90
g71
NtRp475
(dp476
g74
(dp477
g94
g95
ssg83
g471
sg76
(lp478
S'version'
p479
asbag69
(g90
g71
NtRp480
(dp481
g74
(dp482
g101
g102
ssg83
g471
sg76
(lp483
S':'
asbag69
(g90
g71
NtRp484
(dp485
g74
(dp486
sg83
g471
sg76
(lp487
g69
(g70
g71
NtRp488
(dp489
g74
(dp490
g82
I3
ssg83
g484
sg76
(lp491
S''
asbasbasbasbasbasbasbag69
(g85
g71
NtRp492
(dp493
g74
(dp494
sg83
g294
sg76
(lp495
g69
(g90
g71
NtRp496
(dp497
g74
(dp498
g94
g95
ssg83
g492
sg76
(lp499
S'session_id_sicoin'
p500
asbag69
(g90
g71
NtRp501
(dp502
g74
(dp503
g101
g102
ssg83
g492
sg76
(lp504
S':'
asbag69
(g90
g71
NtRp505
(dp506
g74
(dp507
sg83
g492
sg76
(lp508
g69
(g70
g71
NtRp509
(dp510
g74
(dp511
g82
I4
ssg83
g505
sg76
(lp512
S'190.169.221.43-b1695f86-f508-4b25-9acb-a1c48e451001'
p513
ag69
(g78
g71
NtRp514
(dp515
g74
(dp516
g82
I3
ssg83
Nsg76
(lp517
g69
(g85
g71
NtRp518
(dp519
g74
(dp520
sg83
g514
sg76
(lp521
g69
(g90
g71
NtRp522
(dp523
g74
(dp524
g94
g95
ssg83
g518
sg76
(lp525
g332
asbag69
(g90
g71
NtRp526
(dp527
g74
(dp528
g101
g102
ssg83
g518
sg76
(lp529
S':'
asbag69
(g90
g71
NtRp530
(dp531
g74
(dp532
sg83
g518
sg76
(lp533
g69
(g70
g71
NtRp534
(dp535
g74
(dp536
g82
I3
ssg83
g530
sg76
(lp537
S''
asbasbasbag69
(g85
g71
NtRp538
(dp539
g74
(dp540
sg83
g514
sg76
(lp541
g69
(g90
g71
NtRp542
(dp543
g74
(dp544
g94
g95
ssg83
g538
sg76
(lp545
g353
asbag69
(g90
g71
NtRp546
(dp547
g74
(dp548
g101
g102
ssg83
g538
sg76
(lp549
S':'
asbag69
(g90
g71
NtRp550
(dp551
g74
(dp552
sg83
g538
sg76
(lp553
g69
(g70
g71
NtRp554
(dp555
g74
(dp556
g82
I3
ssg83
g550
sg76
(lp557
S''
asbasbasbag69
(g85
g71
NtRp558
(dp559
g74
(dp560
sg83
g514
sg76
(lp561
g69
(g90
g71
NtRp562
(dp563
g74
(dp564
g94
g95
ssg83
g558
sg76
(lp565
g374
asbag69
(g90
g71
NtRp566
(dp567
g74
(dp568
g101
g102
ssg83
g558
sg76
(lp569
S':'
asbag69
(g90
g71
NtRp570
(dp571
g74
(dp572
sg83
g558
sg76
(lp573
g69
(g70
g71
NtRp574
(dp575
g74
(dp576
g82
I3
ssg83
g570
sg76
(lp577
S''
asbasbasbag69
(g85
g71
NtRp578
(dp579
g74
(dp580
sg83
g514
sg76
(lp581
g69
(g90
g71
NtRp582
(dp583
g74
(dp584
g94
g95
ssg83
g578
sg76
(lp585
g395
asbag69
(g90
g71
NtRp586
(dp587
g74
(dp588
g101
g102
ssg83
g578
sg76
(lp589
S':'
asbag69
(g90
g71
NtRp590
(dp591
g74
(dp592
sg83
g578
sg76
(lp593
g69
(g70
g71
NtRp594
(dp595
g74
(dp596
g82
I3
ssg83
g590
sg76
(lp597
S''
asbasbasbag69
(g85
g71
NtRp598
(dp599
g74
(dp600
sg83
g514
sg76
(lp601
g69
(g90
g71
NtRp602
(dp603
g74
(dp604
g94
g95
ssg83
g598
sg76
(lp605
g416
asbag69
(g90
g71
NtRp606
(dp607
g74
(dp608
g101
g102
ssg83
g598
sg76
(lp609
S':'
asbag69
(g90
g71
NtRp610
(dp611
g74
(dp612
sg83
g598
sg76
(lp613
g69
(g70
g71
NtRp614
(dp615
g74
(dp616
g82
I3
ssg83
g610
sg76
(lp617
S''
asbasbasbag69
(g85
g71
NtRp618
(dp619
g74
(dp620
sg83
g514
sg76
(lp621
g69
(g90
g71
NtRp622
(dp623
g74
(dp624
g94
g95
ssg83
g618
sg76
(lp625
g437
asbag69
(g90
g71
NtRp626
(dp627
g74
(dp628
g101
g102
ssg83
g618
sg76
(lp629
S':'
asbag69
(g90
g71
NtRp630
(dp631
g74
(dp632
sg83
g618
sg76
(lp633
g69
(g70
g71
NtRp634
(dp635
g74
(dp636
g82
I3
ssg83
g630
sg76
(lp637
S''
asbasbasbag69
(g85
g71
NtRp638
(dp639
g74
(dp640
sg83
g514
sg76
(lp641
g69
(g90
g71
NtRp642
(dp643
g74
(dp644
g94
g95
ssg83
g638
sg76
(lp645
g458
asbag69
(g90
g71
NtRp646
(dp647
g74
(dp648
g101
g102
ssg83
g638
sg76
(lp649
S':'
asbag69
(g90
g71
NtRp650
(dp651
g74
(dp652
sg83
g638
sg76
(lp653
g69
(g70
g71
NtRp654
(dp655
g74
(dp656
g82
I3
ssg83
g650
sg76
(lp657
S''
asbasbasbag69
(g85
g71
NtRp658
(dp659
g74
(dp660
sg83
g514
sg76
(lp661
g69
(g90
g71
NtRp662
(dp663
g74
(dp664
g94
g95
ssg83
g658
sg76
(lp665
g479
asbag69
(g90
g71
NtRp666
(dp667
g74
(dp668
g101
g102
ssg83
g658
sg76
(lp669
S':'
asbag69
(g90
g71
NtRp670
(dp671
g74
(dp672
sg83
g658
sg76
(lp673
g69
(g70
g71
NtRp674
(dp675
g74
(dp676
g82
I3
ssg83
g670
sg76
(lp677
S''
asbasbasbasbasbasbasbag69
(g85
g71
NtRp678
(dp679
g74
(dp680
sg83
g294
sg76
(lp681
g69
(g90
g71
NtRp682
(dp683
g74
(dp684
g94
g95
ssg83
g678
sg76
(lp685
S'session_id_welcome'
p686
asbag69
(g90
g71
NtRp687
(dp688
g74
(dp689
g101
g102
ssg83
g678
sg76
(lp690
S':'
asbag69
(g90
g71
NtRp691
(dp692
g74
(dp693
sg83
g678
sg76
(lp694
g69
(g70
g71
NtRp695
(dp696
g74
(dp697
g82
I4
ssg83
g691
sg76
(lp698
S'190.169.221.43-fcca4519-6fde-41ff-ba9a-374d7faa7c3a'
p699
ag69
(g78
g71
NtRp700
(dp701
g74
(dp702
g82
I3
ssg83
Nsg76
(lp703
g69
(g85
g71
NtRp704
(dp705
g74
(dp706
sg83
g700
sg76
(lp707
g69
(g90
g71
NtRp708
(dp709
g74
(dp710
g94
g95
ssg83
g704
sg76
(lp711
g332
asbag69
(g90
g71
NtRp712
(dp713
g74
(dp714
g101
g102
ssg83
g704
sg76
(lp715
S':'
asbag69
(g90
g71
NtRp716
(dp717
g74
(dp718
sg83
g704
sg76
(lp719
g69
(g70
g71
NtRp720
(dp721
g74
(dp722
g82
I3
ssg83
g716
sg76
(lp723
S''
asbasbasbag69
(g85
g71
NtRp724
(dp725
g74
(dp726
sg83
g700
sg76
(lp727
g69
(g90
g71
NtRp728
(dp729
g74
(dp730
g94
g95
ssg83
g724
sg76
(lp731
g353
asbag69
(g90
g71
NtRp732
(dp733
g74
(dp734
g101
g102
ssg83
g724
sg76
(lp735
S':'
asbag69
(g90
g71
NtRp736
(dp737
g74
(dp738
sg83
g724
sg76
(lp739
g69
(g70
g71
NtRp740
(dp741
g74
(dp742
g82
I3
ssg83
g736
sg76
(lp743
S''
asbasbasbag69
(g85
g71
NtRp744
(dp745
g74
(dp746
sg83
g700
sg76
(lp747
g69
(g90
g71
NtRp748
(dp749
g74
(dp750
g94
g95
ssg83
g744
sg76
(lp751
g374
asbag69
(g90
g71
NtRp752
(dp753
g74
(dp754
g101
g102
ssg83
g744
sg76
(lp755
S':'
asbag69
(g90
g71
NtRp756
(dp757
g74
(dp758
sg83
g744
sg76
(lp759
g69
(g70
g71
NtRp760
(dp761
g74
(dp762
g82
I3
ssg83
g756
sg76
(lp763
S''
asbasbasbag69
(g85
g71
NtRp764
(dp765
g74
(dp766
sg83
g700
sg76
(lp767
g69
(g90
g71
NtRp768
(dp769
g74
(dp770
g94
g95
ssg83
g764
sg76
(lp771
g395
asbag69
(g90
g71
NtRp772
(dp773
g74
(dp774
g101
g102
ssg83
g764
sg76
(lp775
S':'
asbag69
(g90
g71
NtRp776
(dp777
g74
(dp778
sg83
g764
sg76
(lp779
g69
(g70
g71
NtRp780
(dp781
g74
(dp782
g82
I3
ssg83
g776
sg76
(lp783
S''
asbasbasbag69
(g85
g71
NtRp784
(dp785
g74
(dp786
sg83
g700
sg76
(lp787
g69
(g90
g71
NtRp788
(dp789
g74
(dp790
g94
g95
ssg83
g784
sg76
(lp791
g416
asbag69
(g90
g71
NtRp792
(dp793
g74
(dp794
g101
g102
ssg83
g784
sg76
(lp795
S':'
asbag69
(g90
g71
NtRp796
(dp797
g74
(dp798
sg83
g784
sg76
(lp799
g69
(g70
g71
NtRp800
(dp801
g74
(dp802
g82
I3
ssg83
g796
sg76
(lp803
S''
asbasbasbag69
(g85
g71
NtRp804
(dp805
g74
(dp806
sg83
g700
sg76
(lp807
g69
(g90
g71
NtRp808
(dp809
g74
(dp810
g94
g95
ssg83
g804
sg76
(lp811
g437
asbag69
(g90
g71
NtRp812
(dp813
g74
(dp814
g101
g102
ssg83
g804
sg76
(lp815
S':'
asbag69
(g90
g71
NtRp816
(dp817
g74
(dp818
sg83
g804
sg76
(lp819
g69
(g70
g71
NtRp820
(dp821
g74
(dp822
g82
I3
ssg83
g816
sg76
(lp823
S''
asbasbasbag69
(g85
g71
NtRp824
(dp825
g74
(dp826
sg83
g700
sg76
(lp827
g69
(g90
g71
NtRp828
(dp829
g74
(dp830
g94
g95
ssg83
g824
sg76
(lp831
g458
asbag69
(g90
g71
NtRp832
(dp833
g74
(dp834
g101
g102
ssg83
g824
sg76
(lp835
S':'
asbag69
(g90
g71
NtRp836
(dp837
g74
(dp838
sg83
g824
sg76
(lp839
g69
(g70
g71
NtRp840
(dp841
g74
(dp842
g82
I3
ssg83
g836
sg76
(lp843
S''
asbasbasbag69
(g85
g71
NtRp844
(dp845
g74
(dp846
sg83
g700
sg76
(lp847
g69
(g90
g71
NtRp848
(dp849
g74
(dp850
g94
g95
ssg83
g844
sg76
(lp851
g479
asbag69
(g90
g71
NtRp852
(dp853
g74
(dp854
g101
g102
ssg83
g844
sg76
(lp855
S':'
asbag69
(g90
g71
NtRp856
(dp857
g74
(dp858
sg83
g844
sg76
(lp859
g69
(g70
g71
NtRp860
(dp861
g74
(dp862
g82
I3
ssg83
g856
sg76
(lp863
S''
asbasbasbasbasbasbasbasbasbasbasbag69
(g85
g71
NtRp864
(dp865
g74
(dp866
sg83
g79
sg76
(lp867
g69
(g90
g71
NtRp868
(dp869
g74
(dp870
g94
g95
ssg83
g864
sg76
(lp871
S'env'
p872
asbag69
(g90
g71
NtRp873
(dp874
g74
(dp875
g101
g102
ssg83
g864
sg76
(lp876
S':'
asbag69
(g90
g71
NtRp877
(dp878
g74
(dp879
sg83
g864
sg76
(lp880
g69
(g70
g71
NtRp881
(dp882
g74
(dp883
g82
I5
ssg83
g877
sg76
(lp884
g69
(g78
g71
NtRp885
(dp886
g74
(dp887
g82
I4
ssg83
Nsg76
(lp888
g69
(g85
g71
NtRp889
(dp890
g74
(dp891
sg83
g885
sg76
(lp892
g69
(g90
g71
NtRp893
(dp894
g74
(dp895
g94
g95
ssg83
g889
sg76
(lp896
S'app_folders'
p897
asbag69
(g90
g71
NtRp898
(dp899
g74
(dp900
g101
g102
ssg83
g889
sg76
(lp901
S':'
asbag69
(g90
g71
NtRp902
(dp903
g74
(dp904
sg83
g889
sg76
(lp905
g69
(g70
g71
NtRp906
(dp907
g74
(dp908
g82
I4
ssg83
g902
sg76
(lp909
S"set(['/home/perdomor/web2py/applications/welcome/', '/home/perdomor/web2py/applications/sicoin/', '/home/perdomor/web2py/applications/admin/'])"
p910
asbasbasbag69
(g85
g71
NtRp911
(dp912
g74
(dp913
sg83
g885
sg76
(lp914
g69
(g90
g71
NtRp915
(dp916
g74
(dp917
g94
g95
ssg83
g911
sg76
(lp918
S'applications_parent'
p919
asbag69
(g90
g71
NtRp920
(dp921
g74
(dp922
g101
g102
ssg83
g911
sg76
(lp923
S':'
asbag69
(g90
g71
NtRp924
(dp925
g74
(dp926
sg83
g911
sg76
(lp927
g69
(g70
g71
NtRp928
(dp929
g74
(dp930
g82
I4
ssg83
g924
sg76
(lp931
S'/home/perdomor/web2py'
p932
asbasbasbag69
(g85
g71
NtRp933
(dp934
g74
(dp935
sg83
g885
sg76
(lp936
g69
(g90
g71
NtRp937
(dp938
g74
(dp939
g94
g95
ssg83
g933
sg76
(lp940
S'cmd_args'
p941
asbag69
(g90
g71
NtRp942
(dp943
g74
(dp944
g101
g102
ssg83
g933
sg76
(lp945
S':'
asbag69
(g90
g71
NtRp946
(dp947
g74
(dp948
sg83
g933
sg76
(lp949
g69
(g70
g71
NtRp950
(dp951
g74
(dp952
g82
I4
ssg83
g946
sg76
(lp953
g69
(g78
g71
NtRp954
(dp955
g74
(dp956
g82
I3
ssg83
Nsg76
(lp957
sbasbasbasbag69
(g85
g71
NtRp958
(dp959
g74
(dp960
sg83
g885
sg76
(lp961
g69
(g90
g71
NtRp962
(dp963
g74
(dp964
g94
g95
ssg83
g958
sg76
(lp965
S'cmd_options'
p966
asbag69
(g90
g71
NtRp967
(dp968
g74
(dp969
g101
g102
ssg83
g958
sg76
(lp970
S':'
asbag69
(g90
g71
NtRp971
(dp972
g74
(dp973
sg83
g958
sg76
(lp974
g69
(g70
g71
NtRp975
(dp976
g74
(dp977
g82
I4
ssg83
g971
sg76
(lp978
S"<Values at 0x98859ac: {'verbose': False, 'ip': '190.169.221.43', 'with_scheduler': False, 'ips': ['127.0.1.1'], 'shutdown_timeout': 5, 'taskbar': False, 'port': 8080, 'maxthreads': None, 'softcron': False, 'server_name': 'perdomor', 'bpython': False, 'nogui': False, 'nocron': False, 'extcron': False, 'run_system_tests': False, 'test': None, 'folder': '/home/perdomor/web2py', 'config': '', 'import_models': False, 'winservice': '', 'shell': None, 'run': '', 'log_filename': 'httpserver.log', 'debuglevel': 30, 'args': [''], 'socket_timeout': 5, 'ssl_ca_certificate': None, 'scheduler': None, 'profiler_filename': None, 'ssl_private_key': '', 'scheduler_groups': None, 'password': '12345', 'request_queue_size': 5, 'ssl_certificate': '', 'cronjob': False, 'numthreads': None, 'quiet': False, 'interfaces': None, 'minthreads': None, 'timeout': 10, 'plain': False, 'nobanner': False, 'pid_filename': 'httpserver.pid'}>"
p979
asbasbasbag69
(g85
g71
NtRp980
(dp981
g74
(dp982
sg83
g885
sg76
(lp983
g69
(g90
g71
NtRp984
(dp985
g74
(dp986
g94
g95
ssg83
g980
sg76
(lp987
S'db_sessions'
p988
asbag69
(g90
g71
NtRp989
(dp990
g74
(dp991
g101
g102
ssg83
g980
sg76
(lp992
S':'
asbag69
(g90
g71
NtRp993
(dp994
g74
(dp995
sg83
g980
sg76
(lp996
g69
(g70
g71
NtRp997
(dp998
g74
(dp999
g82
I4
ssg83
g993
sg76
(lp1000
S'set([])'
p1001
asbasbasbag69
(g85
g71
NtRp1002
(dp1003
g74
(dp1004
sg83
g885
sg76
(lp1005
g69
(g90
g71
NtRp1006
(dp1007
g74
(dp1008
g94
g95
ssg83
g1002
sg76
(lp1009
S'debugging'
p1010
asbag69
(g90
g71
NtRp1011
(dp1012
g74
(dp1013
g101
g102
ssg83
g1002
sg76
(lp1014
S':'
asbag69
(g90
g71
NtRp1015
(dp1016
g74
(dp1017
sg83
g1002
sg76
(lp1018
g69
(g70
g71
NtRp1019
(dp1020
g74
(dp1021
g82
I4
ssg83
g1015
sg76
(lp1022
g112
asbasbasbag69
(g85
g71
NtRp1023
(dp1024
g74
(dp1025
sg83
g885
sg76
(lp1026
g69
(g90
g71
NtRp1027
(dp1028
g74
(dp1029
g94
g95
ssg83
g1023
sg76
(lp1030
S'gluon_parent'
p1031
asbag69
(g90
g71
NtRp1032
(dp1033
g74
(dp1034
g101
g102
ssg83
g1023
sg76
(lp1035
S':'
asbag69
(g90
g71
NtRp1036
(dp1037
g74
(dp1038
sg83
g1023
sg76
(lp1039
g69
(g70
g71
NtRp1040
(dp1041
g74
(dp1042
g82
I4
ssg83
g1036
sg76
(lp1043
S'/home/perdomor/web2py'
p1044
asbasbasbag69
(g85
g71
NtRp1045
(dp1046
g74
(dp1047
sg83
g885
sg76
(lp1048
g69
(g90
g71
NtRp1049
(dp1050
g74
(dp1051
g94
g95
ssg83
g1045
sg76
(lp1052
S'http_accept'
p1053
asbag69
(g90
g71
NtRp1054
(dp1055
g74
(dp1056
g101
g102
ssg83
g1045
sg76
(lp1057
S':'
asbag69
(g90
g71
NtRp1058
(dp1059
g74
(dp1060
sg83
g1045
sg76
(lp1061
g69
(g70
g71
NtRp1062
(dp1063
g74
(dp1064
g82
I4
ssg83
g1058
sg76
(lp1065
S'text/html,application/xhtml+xml,application/xml;q=0.9,*/*;q=0.8'
p1066
asbasbasbag69
(g85
g71
NtRp1067
(dp1068
g74
(dp1069
sg83
g885
sg76
(lp1070
g69
(g90
g71
NtRp1071
(dp1072
g74
(dp1073
g94
g95
ssg83
g1067
sg76
(lp1074
S'http_accept_encoding'
p1075
asbag69
(g90
g71
NtRp1076
(dp1077
g74
(dp1078
g101
g102
ssg83
g1067
sg76
(lp1079
S':'
asbag69
(g90
g71
NtRp1080
(dp1081
g74
(dp1082
sg83
g1067
sg76
(lp1083
g69
(g70
g71
NtRp1084
(dp1085
g74
(dp1086
g82
I4
ssg83
g1080
sg76
(lp1087
S'gzip, deflate'
p1088
asbasbasbag69
(g85
g71
NtRp1089
(dp1090
g74
(dp1091
sg83
g885
sg76
(lp1092
g69
(g90
g71
NtRp1093
(dp1094
g74
(dp1095
g94
g95
ssg83
g1089
sg76
(lp1096
S'http_accept_language'
p1097
asbag69
(g90
g71
NtRp1098
(dp1099
g74
(dp1100
g101
g102
ssg83
g1089
sg76
(lp1101
S':'
asbag69
(g90
g71
NtRp1102
(dp1103
g74
(dp1104
sg83
g1089
sg76
(lp1105
g69
(g70
g71
NtRp1106
(dp1107
g74
(dp1108
g82
I4
ssg83
g1102
sg76
(lp1109
S'es-es,es;q=0.8,en-us;q=0.5,en;q=0.3'
p1110
asbasbasbag69
(g85
g71
NtRp1111
(dp1112
g74
(dp1113
sg83
g885
sg76
(lp1114
g69
(g90
g71
NtRp1115
(dp1116
g74
(dp1117
g94
g95
ssg83
g1111
sg76
(lp1118
S'http_connection'
p1119
asbag69
(g90
g71
NtRp1120
(dp1121
g74
(dp1122
g101
g102
ssg83
g1111
sg76
(lp1123
S':'
asbag69
(g90
g71
NtRp1124
(dp1125
g74
(dp1126
sg83
g1111
sg76
(lp1127
g69
(g70
g71
NtRp1128
(dp1129
g74
(dp1130
g82
I4
ssg83
g1124
sg76
(lp1131
S'keep-alive'
p1132
asbasbasbag69
(g85
g71
NtRp1133
(dp1134
g74
(dp1135
sg83
g885
sg76
(lp1136
g69
(g90
g71
NtRp1137
(dp1138
g74
(dp1139
g94
g95
ssg83
g1133
sg76
(lp1140
S'http_cookie'
p1141
asbag69
(g90
g71
NtRp1142
(dp1143
g74
(dp1144
g101
g102
ssg83
g1133
sg76
(lp1145
S':'
asbag69
(g90
g71
NtRp1146
(dp1147
g74
(dp1148
sg83
g1133
sg76
(lp1149
g69
(g70
g71
NtRp1150
(dp1151
g74
(dp1152
g82
I4
ssg83
g1146
sg76
(lp1153
S'session_id_welcome=190.169.221.43-fcca4519-6fde-41ff-ba9a-374d7faa7c3a; session_id_sicoin=190.169.221.43-b1695f86-f508-4b25-9acb-a1c48e451001; session_id_admin=190.169.221.43-c7bdc5fc-d522-4b89-80fc-3924caea157a'
p1154
asbasbasbag69
(g85
g71
NtRp1155
(dp1156
g74
(dp1157
sg83
g885
sg76
(lp1158
g69
(g90
g71
NtRp1159
(dp1160
g74
(dp1161
g94
g95
ssg83
g1155
sg76
(lp1162
S'http_host'
p1163
asbag69
(g90
g71
NtRp1164
(dp1165
g74
(dp1166
g101
g102
ssg83
g1155
sg76
(lp1167
S':'
asbag69
(g90
g71
NtRp1168
(dp1169
g74
(dp1170
sg83
g1155
sg76
(lp1171
g69
(g70
g71
NtRp1172
(dp1173
g74
(dp1174
g82
I4
ssg83
g1168
sg76
(lp1175
S'190.169.221.43:8080'
p1176
asbasbasbag69
(g85
g71
NtRp1177
(dp1178
g74
(dp1179
sg83
g885
sg76
(lp1180
g69
(g90
g71
NtRp1181
(dp1182
g74
(dp1183
g94
g95
ssg83
g1177
sg76
(lp1184
S'http_referer'
p1185
asbag69
(g90
g71
NtRp1186
(dp1187
g74
(dp1188
g101
g102
ssg83
g1177
sg76
(lp1189
S':'
asbag69
(g90
g71
NtRp1190
(dp1191
g74
(dp1192
sg83
g1177
sg76
(lp1193
g69
(g70
g71
NtRp1194
(dp1195
g74
(dp1196
g82
I4
ssg83
g1190
sg76
(lp1197
S'http://190.169.221.43:8080/sicoin/correspondencia/ver_historico/27'
p1198
asbasbasbag69
(g85
g71
NtRp1199
(dp1200
g74
(dp1201
sg83
g885
sg76
(lp1202
g69
(g90
g71
NtRp1203
(dp1204
g74
(dp1205
g94
g95
ssg83
g1199
sg76
(lp1206
S'http_user_agent'
p1207
asbag69
(g90
g71
NtRp1208
(dp1209
g74
(dp1210
g101
g102
ssg83
g1199
sg76
(lp1211
S':'
asbag69
(g90
g71
NtRp1212
(dp1213
g74
(dp1214
sg83
g1199
sg76
(lp1215
g69
(g70
g71
NtRp1216
(dp1217
g74
(dp1218
g82
I4
ssg83
g1212
sg76
(lp1219
S'Mozilla/5.0 (X11; Ubuntu; Linux i686; rv:10.0.2) Gecko/20100101 Firefox/10.0.2'
p1220
asbasbasbag69
(g85
g71
NtRp1221
(dp1222
g74
(dp1223
sg83
g885
sg76
(lp1224
g69
(g90
g71
NtRp1225
(dp1226
g74
(dp1227
g94
g95
ssg83
g1221
sg76
(lp1228
S'is_jython'
p1229
asbag69
(g90
g71
NtRp1230
(dp1231
g74
(dp1232
g101
g102
ssg83
g1221
sg76
(lp1233
S':'
asbag69
(g90
g71
NtRp1234
(dp1235
g74
(dp1236
sg83
g1221
sg76
(lp1237
g69
(g70
g71
NtRp1238
(dp1239
g74
(dp1240
g82
I4
ssg83
g1234
sg76
(lp1241
g112
asbasbasbag69
(g85
g71
NtRp1242
(dp1243
g74
(dp1244
sg83
g885
sg76
(lp1245
g69
(g90
g71
NtRp1246
(dp1247
g74
(dp1248
g94
g95
ssg83
g1242
sg76
(lp1249
S'is_pypy'
p1250
asbag69
(g90
g71
NtRp1251
(dp1252
g74
(dp1253
g101
g102
ssg83
g1242
sg76
(lp1254
S':'
asbag69
(g90
g71
NtRp1255
(dp1256
g74
(dp1257
sg83
g1242
sg76
(lp1258
g69
(g70
g71
NtRp1259
(dp1260
g74
(dp1261
g82
I4
ssg83
g1255
sg76
(lp1262
g112
asbasbasbag69
(g85
g71
NtRp1263
(dp1264
g74
(dp1265
sg83
g885
sg76
(lp1266
g69
(g90
g71
NtRp1267
(dp1268
g74
(dp1269
g94
g95
ssg83
g1263
sg76
(lp1270
S'path_info'
p1271
asbag69
(g90
g71
NtRp1272
(dp1273
g74
(dp1274
g101
g102
ssg83
g1263
sg76
(lp1275
S':'
asbag69
(g90
g71
NtRp1276
(dp1277
g74
(dp1278
sg83
g1263
sg76
(lp1279
g69
(g70
g71
NtRp1280
(dp1281
g74
(dp1282
g82
I4
ssg83
g1276
sg76
(lp1283
S'/sicoin/correspondencia/ver_correspondencia/archivo/51'
p1284
asbasbasbag69
(g85
g71
NtRp1285
(dp1286
g74
(dp1287
sg83
g885
sg76
(lp1288
g69
(g90
g71
NtRp1289
(dp1290
g74
(dp1291
g94
g95
ssg83
g1285
sg76
(lp1292
S'query_string'
p1293
asbag69
(g90
g71
NtRp1294
(dp1295
g74
(dp1296
g101
g102
ssg83
g1285
sg76
(lp1297
S':'
asbag69
(g90
g71
NtRp1298
(dp1299
g74
(dp1300
sg83
g1285
sg76
(lp1301
g69
(g70
g71
NtRp1302
(dp1303
g74
(dp1304
g82
I4
ssg83
g1298
sg76
(lp1305
S''
asbasbasbag69
(g85
g71
NtRp1306
(dp1307
g74
(dp1308
sg83
g885
sg76
(lp1309
g69
(g90
g71
NtRp1310
(dp1311
g74
(dp1312
g94
g95
ssg83
g1306
sg76
(lp1313
S'remote_addr'
p1314
asbag69
(g90
g71
NtRp1315
(dp1316
g74
(dp1317
g101
g102
ssg83
g1306
sg76
(lp1318
S':'
asbag69
(g90
g71
NtRp1319
(dp1320
g74
(dp1321
sg83
g1306
sg76
(lp1322
g69
(g70
g71
NtRp1323
(dp1324
g74
(dp1325
g82
I4
ssg83
g1319
sg76
(lp1326
g250
asbasbasbag69
(g85
g71
NtRp1327
(dp1328
g74
(dp1329
sg83
g885
sg76
(lp1330
g69
(g90
g71
NtRp1331
(dp1332
g74
(dp1333
g94
g95
ssg83
g1327
sg76
(lp1334
S'remote_port'
p1335
asbag69
(g90
g71
NtRp1336
(dp1337
g74
(dp1338
g101
g102
ssg83
g1327
sg76
(lp1339
S':'
asbag69
(g90
g71
NtRp1340
(dp1341
g74
(dp1342
sg83
g1327
sg76
(lp1343
g69
(g70
g71
NtRp1344
(dp1345
g74
(dp1346
g82
I4
ssg83
g1340
sg76
(lp1347
S'53379'
p1348
asbasbasbag69
(g85
g71
NtRp1349
(dp1350
g74
(dp1351
sg83
g885
sg76
(lp1352
g69
(g90
g71
NtRp1353
(dp1354
g74
(dp1355
g94
g95
ssg83
g1349
sg76
(lp1356
S'request_method'
p1357
asbag69
(g90
g71
NtRp1358
(dp1359
g74
(dp1360
g101
g102
ssg83
g1349
sg76
(lp1361
S':'
asbag69
(g90
g71
NtRp1362
(dp1363
g74
(dp1364
sg83
g1349
sg76
(lp1365
g69
(g70
g71
NtRp1366
(dp1367
g74
(dp1368
g82
I4
ssg83
g1362
sg76
(lp1369
S'GET'
p1370
asbasbasbag69
(g85
g71
NtRp1371
(dp1372
g74
(dp1373
sg83
g885
sg76
(lp1374
g69
(g90
g71
NtRp1375
(dp1376
g74
(dp1377
g94
g95
ssg83
g1371
sg76
(lp1378
S'request_uri'
p1379
asbag69
(g90
g71
NtRp1380
(dp1381
g74
(dp1382
g101
g102
ssg83
g1371
sg76
(lp1383
S':'
asbag69
(g90
g71
NtRp1384
(dp1385
g74
(dp1386
sg83
g1371
sg76
(lp1387
g69
(g70
g71
NtRp1388
(dp1389
g74
(dp1390
g82
I4
ssg83
g1384
sg76
(lp1391
g1284
asbasbasbag69
(g85
g71
NtRp1392
(dp1393
g74
(dp1394
sg83
g885
sg76
(lp1395
g69
(g90
g71
NtRp1396
(dp1397
g74
(dp1398
g94
g95
ssg83
g1392
sg76
(lp1399
S'script_name'
p1400
asbag69
(g90
g71
NtRp1401
(dp1402
g74
(dp1403
g101
g102
ssg83
g1392
sg76
(lp1404
S':'
asbag69
(g90
g71
NtRp1405
(dp1406
g74
(dp1407
sg83
g1392
sg76
(lp1408
g69
(g70
g71
NtRp1409
(dp1410
g74
(dp1411
g82
I4
ssg83
g1405
sg76
(lp1412
S''
asbasbasbag69
(g85
g71
NtRp1413
(dp1414
g74
(dp1415
sg83
g885
sg76
(lp1416
g69
(g90
g71
NtRp1417
(dp1418
g74
(dp1419
g94
g95
ssg83
g1413
sg76
(lp1420
S'server_name'
p1421
asbag69
(g90
g71
NtRp1422
(dp1423
g74
(dp1424
g101
g102
ssg83
g1413
sg76
(lp1425
S':'
asbag69
(g90
g71
NtRp1426
(dp1427
g74
(dp1428
sg83
g1413
sg76
(lp1429
g69
(g70
g71
NtRp1430
(dp1431
g74
(dp1432
g82
I4
ssg83
g1426
sg76
(lp1433
S'perdomor'
p1434
asbasbasbag69
(g85
g71
NtRp1435
(dp1436
g74
(dp1437
sg83
g885
sg76
(lp1438
g69
(g90
g71
NtRp1439
(dp1440
g74
(dp1441
g94
g95
ssg83
g1435
sg76
(lp1442
S'server_port'
p1443
asbag69
(g90
g71
NtRp1444
(dp1445
g74
(dp1446
g101
g102
ssg83
g1435
sg76
(lp1447
S':'
asbag69
(g90
g71
NtRp1448
(dp1449
g74
(dp1450
sg83
g1435
sg76
(lp1451
g69
(g70
g71
NtRp1452
(dp1453
g74
(dp1454
g82
I4
ssg83
g1448
sg76
(lp1455
S'8080'
p1456
asbasbasbag69
(g85
g71
NtRp1457
(dp1458
g74
(dp1459
sg83
g885
sg76
(lp1460
g69
(g90
g71
NtRp1461
(dp1462
g74
(dp1463
g94
g95
ssg83
g1457
sg76
(lp1464
S'server_protocol'
p1465
asbag69
(g90
g71
NtRp1466
(dp1467
g74
(dp1468
g101
g102
ssg83
g1457
sg76
(lp1469
S':'
asbag69
(g90
g71
NtRp1470
(dp1471
g74
(dp1472
sg83
g1457
sg76
(lp1473
g69
(g70
g71
NtRp1474
(dp1475
g74
(dp1476
g82
I4
ssg83
g1470
sg76
(lp1477
S'HTTP/1.1'
p1478
asbasbasbag69
(g85
g71
NtRp1479
(dp1480
g74
(dp1481
sg83
g885
sg76
(lp1482
g69
(g90
g71
NtRp1483
(dp1484
g74
(dp1485
g94
g95
ssg83
g1479
sg76
(lp1486
S'server_software'
p1487
asbag69
(g90
g71
NtRp1488
(dp1489
g74
(dp1490
g101
g102
ssg83
g1479
sg76
(lp1491
S':'
asbag69
(g90
g71
NtRp1492
(dp1493
g74
(dp1494
sg83
g1479
sg76
(lp1495
g69
(g70
g71
NtRp1496
(dp1497
g74
(dp1498
g82
I4
ssg83
g1492
sg76
(lp1499
S'Rocket 1.2.4'
p1500
asbasbasbag69
(g85
g71
NtRp1501
(dp1502
g74
(dp1503
sg83
g885
sg76
(lp1504
g69
(g90
g71
NtRp1505
(dp1506
g74
(dp1507
g94
g95
ssg83
g1501
sg76
(lp1508
S'web2py_crontype'
p1509
asbag69
(g90
g71
NtRp1510
(dp1511
g74
(dp1512
g101
g102
ssg83
g1501
sg76
(lp1513
S':'
asbag69
(g90
g71
NtRp1514
(dp1515
g74
(dp1516
sg83
g1501
sg76
(lp1517
g69
(g70
g71
NtRp1518
(dp1519
g74
(dp1520
g82
I4
ssg83
g1514
sg76
(lp1521
S'hard'
p1522
asbasbasbag69
(g85
g71
NtRp1523
(dp1524
g74
(dp1525
sg83
g885
sg76
(lp1526
g69
(g90
g71
NtRp1527
(dp1528
g74
(dp1529
g94
g95
ssg83
g1523
sg76
(lp1530
S'web2py_path'
p1531
asbag69
(g90
g71
NtRp1532
(dp1533
g74
(dp1534
g101
g102
ssg83
g1523
sg76
(lp1535
S':'
asbag69
(g90
g71
NtRp1536
(dp1537
g74
(dp1538
sg83
g1523
sg76
(lp1539
g69
(g70
g71
NtRp1540
(dp1541
g74
(dp1542
g82
I4
ssg83
g1536
sg76
(lp1543
g932
asbasbasbag69
(g85
g71
NtRp1544
(dp1545
g74
(dp1546
sg83
g885
sg76
(lp1547
g69
(g90
g71
NtRp1548
(dp1549
g74
(dp1550
g94
g95
ssg83
g1544
sg76
(lp1551
S'web2py_version'
p1552
asbag69
(g90
g71
NtRp1553
(dp1554
g74
(dp1555
g101
g102
ssg83
g1544
sg76
(lp1556
S':'
asbag69
(g90
g71
NtRp1557
(dp1558
g74
(dp1559
sg83
g1544
sg76
(lp1560
g69
(g70
g71
NtRp1561
(dp1562
g74
(dp1563
g82
I4
ssg83
g1557
sg76
(lp1564
g69
(g78
g71
NtRp1565
(dp1566
g74
(dp1567
g82
I3
ssg83
Nsg76
(lp1568
g69
(g85
g71
NtRp1569
(dp1570
g74
(dp1571
sg83
g1565
sg76
(lp1572
g69
(g90
g71
NtRp1573
(dp1574
g74
(dp1575
sg83
g1569
sg76
(lp1576
g69
(g70
g71
NtRp1577
(dp1578
g74
(dp1579
g82
I3
ssg83
g1573
sg76
(lp1580
S'2'
asbasbasbag69
(g85
g71
NtRp1581
(dp1582
g74
(dp1583
sg83
g1565
sg76
(lp1584
g69
(g90
g71
NtRp1585
(dp1586
g74
(dp1587
sg83
g1581
sg76
(lp1588
g69
(g70
g71
NtRp1589
(dp1590
g74
(dp1591
g82
I3
ssg83
g1585
sg76
(lp1592
S'0'
asbasbasbag69
(g85
g71
NtRp1593
(dp1594
g74
(dp1595
sg83
g1565
sg76
(lp1596
g69
(g90
g71
NtRp1597
(dp1598
g74
(dp1599
sg83
g1593
sg76
(lp1600
g69
(g70
g71
NtRp1601
(dp1602
g74
(dp1603
g82
I3
ssg83
g1597
sg76
(lp1604
S'9'
asbasbasbag69
(g85
g71
NtRp1605
(dp1606
g74
(dp1607
sg83
g1565
sg76
(lp1608
g69
(g90
g71
NtRp1609
(dp1610
g74
(dp1611
sg83
g1605
sg76
(lp1612
g69
(g70
g71
NtRp1613
(dp1614
g74
(dp1615
g82
I3
ssg83
g1609
sg76
(lp1616
S'datetime.datetime(2012, 9, 13, 23, 51, 30)'
p1617
asbasbasbag69
(g85
g71
NtRp1618
(dp1619
g74
(dp1620
sg83
g1565
sg76
(lp1621
g69
(g90
g71
NtRp1622
(dp1623
g74
(dp1624
sg83
g1618
sg76
(lp1625
g69
(g70
g71
NtRp1626
(dp1627
g74
(dp1628
g82
I3
ssg83
g1622
sg76
(lp1629
S'stable'
p1630
asbasbasbasbasbasbasbag69
(g85
g71
NtRp1631
(dp1632
g74
(dp1633
sg83
g885
sg76
(lp1634
g69
(g90
g71
NtRp1635
(dp1636
g74
(dp1637
g94
g95
ssg83
g1631
sg76
(lp1638
S'wsgi_errors'
p1639
asbag69
(g90
g71
NtRp1640
(dp1641
g74
(dp1642
g101
g102
ssg83
g1631
sg76
(lp1643
S':'
asbag69
(g90
g71
NtRp1644
(dp1645
g74
(dp1646
sg83
g1631
sg76
(lp1647
g69
(g70
g71
NtRp1648
(dp1649
g74
(dp1650
g82
I4
ssg83
g1644
sg76
(lp1651
S"<open file '<stderr>', mode 'w' at 0xb76ce0d0>"
p1652
asbasbasbag69
(g85
g71
NtRp1653
(dp1654
g74
(dp1655
sg83
g885
sg76
(lp1656
g69
(g90
g71
NtRp1657
(dp1658
g74
(dp1659
g94
g95
ssg83
g1653
sg76
(lp1660
S'wsgi_file_wrapper'
p1661
asbag69
(g90
g71
NtRp1662
(dp1663
g74
(dp1664
g101
g102
ssg83
g1653
sg76
(lp1665
S':'
asbag69
(g90
g71
NtRp1666
(dp1667
g74
(dp1668
sg83
g1653
sg76
(lp1669
g69
(g70
g71
NtRp1670
(dp1671
g74
(dp1672
g82
I4
ssg83
g1666
sg76
(lp1673
S'<class wsgiref.util.FileWrapper at 0x983886c>'
p1674
asbasbasbag69
(g85
g71
NtRp1675
(dp1676
g74
(dp1677
sg83
g885
sg76
(lp1678
g69
(g90
g71
NtRp1679
(dp1680
g74
(dp1681
g94
g95
ssg83
g1675
sg76
(lp1682
S'wsgi_input'
p1683
asbag69
(g90
g71
NtRp1684
(dp1685
g74
(dp1686
g101
g102
ssg83
g1675
sg76
(lp1687
S':'
asbag69
(g90
g71
NtRp1688
(dp1689
g74
(dp1690
sg83
g1675
sg76
(lp1691
g69
(g70
g71
NtRp1692
(dp1693
g74
(dp1694
g82
I4
ssg83
g1688
sg76
(lp1695
S'<socket._fileobject object at 0xa8ec76c>'
p1696
asbasbasbag69
(g85
g71
NtRp1697
(dp1698
g74
(dp1699
sg83
g885
sg76
(lp1700
g69
(g90
g71
NtRp1701
(dp1702
g74
(dp1703
g94
g95
ssg83
g1697
sg76
(lp1704
S'wsgi_multiprocess'
p1705
asbag69
(g90
g71
NtRp1706
(dp1707
g74
(dp1708
g101
g102
ssg83
g1697
sg76
(lp1709
S':'
asbag69
(g90
g71
NtRp1710
(dp1711
g74
(dp1712
sg83
g1697
sg76
(lp1713
g69
(g70
g71
NtRp1714
(dp1715
g74
(dp1716
g82
I4
ssg83
g1710
sg76
(lp1717
g112
asbasbasbag69
(g85
g71
NtRp1718
(dp1719
g74
(dp1720
sg83
g885
sg76
(lp1721
g69
(g90
g71
NtRp1722
(dp1723
g74
(dp1724
g94
g95
ssg83
g1718
sg76
(lp1725
S'wsgi_multithread'
p1726
asbag69
(g90
g71
NtRp1727
(dp1728
g74
(dp1729
g101
g102
ssg83
g1718
sg76
(lp1730
S':'
asbag69
(g90
g71
NtRp1731
(dp1732
g74
(dp1733
sg83
g1718
sg76
(lp1734
g69
(g70
g71
NtRp1735
(dp1736
g74
(dp1737
g82
I4
ssg83
g1731
sg76
(lp1738
S'True'
p1739
asbasbasbag69
(g85
g71
NtRp1740
(dp1741
g74
(dp1742
sg83
g885
sg76
(lp1743
g69
(g90
g71
NtRp1744
(dp1745
g74
(dp1746
g94
g95
ssg83
g1740
sg76
(lp1747
S'wsgi_run_once'
p1748
asbag69
(g90
g71
NtRp1749
(dp1750
g74
(dp1751
g101
g102
ssg83
g1740
sg76
(lp1752
S':'
asbag69
(g90
g71
NtRp1753
(dp1754
g74
(dp1755
sg83
g1740
sg76
(lp1756
g69
(g70
g71
NtRp1757
(dp1758
g74
(dp1759
g82
I4
ssg83
g1753
sg76
(lp1760
g112
asbasbasbag69
(g85
g71
NtRp1761
(dp1762
g74
(dp1763
sg83
g885
sg76
(lp1764
g69
(g90
g71
NtRp1765
(dp1766
g74
(dp1767
g94
g95
ssg83
g1761
sg76
(lp1768
S'wsgi_url_scheme'
p1769
asbag69
(g90
g71
NtRp1770
(dp1771
g74
(dp1772
g101
g102
ssg83
g1761
sg76
(lp1773
S':'
asbag69
(g90
g71
NtRp1774
(dp1775
g74
(dp1776
sg83
g1761
sg76
(lp1777
g69
(g70
g71
NtRp1778
(dp1779
g74
(dp1780
g82
I4
ssg83
g1774
sg76
(lp1781
S'http'
p1782
asbasbasbag69
(g85
g71
NtRp1783
(dp1784
g74
(dp1785
sg83
g885
sg76
(lp1786
g69
(g90
g71
NtRp1787
(dp1788
g74
(dp1789
g94
g95
ssg83
g1783
sg76
(lp1790
S'wsgi_version'
p1791
asbag69
(g90
g71
NtRp1792
(dp1793
g74
(dp1794
g101
g102
ssg83
g1783
sg76
(lp1795
S':'
asbag69
(g90
g71
NtRp1796
(dp1797
g74
(dp1798
sg83
g1783
sg76
(lp1799
g69
(g70
g71
NtRp1800
(dp1801
g74
(dp1802
g82
I4
ssg83
g1796
sg76
(lp1803
g69
(g78
g71
NtRp1804
(dp1805
g74
(dp1806
g82
I3
ssg83
Nsg76
(lp1807
g69
(g85
g71
NtRp1808
(dp1809
g74
(dp1810
sg83
g1804
sg76
(lp1811
g69
(g90
g71
NtRp1812
(dp1813
g74
(dp1814
sg83
g1808
sg76
(lp1815
g69
(g70
g71
NtRp1816
(dp1817
g74
(dp1818
g82
I3
ssg83
g1812
sg76
(lp1819
S'1'
asbasbasbag69
(g85
g71
NtRp1820
(dp1821
g74
(dp1822
sg83
g1804
sg76
(lp1823
g69
(g90
g71
NtRp1824
(dp1825
g74
(dp1826
sg83
g1820
sg76
(lp1827
g69
(g70
g71
NtRp1828
(dp1829
g74
(dp1830
g82
I3
ssg83
g1824
sg76
(lp1831
S'0'
asbasbasbasbasbasbasbasbasbasbasbag69
(g85
g71
NtRp1832
(dp1833
g74
(dp1834
sg83
g79
sg76
(lp1835
g69
(g90
g71
NtRp1836
(dp1837
g74
(dp1838
g94
g95
ssg83
g1832
sg76
(lp1839
S'extension'
p1840
asbag69
(g90
g71
NtRp1841
(dp1842
g74
(dp1843
g101
g102
ssg83
g1832
sg76
(lp1844
S':'
asbag69
(g90
g71
NtRp1845
(dp1846
g74
(dp1847
sg83
g1832
sg76
(lp1848
g69
(g70
g71
NtRp1849
(dp1850
g74
(dp1851
g82
I5
ssg83
g1845
sg76
(lp1852
S'html'
p1853
asbasbasbag69
(g85
g71
NtRp1854
(dp1855
g74
(dp1856
sg83
g79
sg76
(lp1857
g69
(g90
g71
NtRp1858
(dp1859
g74
(dp1860
g94
g95
ssg83
g1854
sg76
(lp1861
S'folder'
p1862
asbag69
(g90
g71
NtRp1863
(dp1864
g74
(dp1865
g101
g102
ssg83
g1854
sg76
(lp1866
S':'
asbag69
(g90
g71
NtRp1867
(dp1868
g74
(dp1869
sg83
g1854
sg76
(lp1870
g69
(g70
g71
NtRp1871
(dp1872
g74
(dp1873
g82
I5
ssg83
g1867
sg76
(lp1874
S'/home/perdomor/web2py/applications/sicoin/'
p1875
asbasbasbag69
(g85
g71
NtRp1876
(dp1877
g74
(dp1878
sg83
g79
sg76
(lp1879
g69
(g90
g71
NtRp1880
(dp1881
g74
(dp1882
g94
g95
ssg83
g1876
sg76
(lp1883
S'function'
p1884
asbag69
(g90
g71
NtRp1885
(dp1886
g74
(dp1887
g101
g102
ssg83
g1876
sg76
(lp1888
S':'
asbag69
(g90
g71
NtRp1889
(dp1890
g74
(dp1891
sg83
g1876
sg76
(lp1892
g69
(g70
g71
NtRp1893
(dp1894
g74
(dp1895
g82
I5
ssg83
g1889
sg76
(lp1896
S'ver_correspondencia'
p1897
asbasbasbag69
(g85
g71
NtRp1898
(dp1899
g74
(dp1900
sg83
g79
sg76
(lp1901
g69
(g90
g71
NtRp1902
(dp1903
g74
(dp1904
g94
g95
ssg83
g1898
sg76
(lp1905
S'get_vars'
p1906
asbag69
(g90
g71
NtRp1907
(dp1908
g74
(dp1909
g101
g102
ssg83
g1898
sg76
(lp1910
S':'
asbag69
(g90
g71
NtRp1911
(dp1912
g74
(dp1913
sg83
g1898
sg76
(lp1914
g69
(g70
g71
NtRp1915
(dp1916
g74
(dp1917
g82
I5
ssg83
g1911
sg76
(lp1918
g69
(g78
g71
NtRp1919
(dp1920
g74
(dp1921
g82
I4
ssg83
Nsg76
(lp1922
sbasbasbasbag69
(g85
g71
NtRp1923
(dp1924
g74
(dp1925
sg83
g79
sg76
(lp1926
g69
(g90
g71
NtRp1927
(dp1928
g74
(dp1929
g94
g95
ssg83
g1923
sg76
(lp1930
S'global_settings'
p1931
asbag69
(g90
g71
NtRp1932
(dp1933
g74
(dp1934
g101
g102
ssg83
g1923
sg76
(lp1935
S':'
asbag69
(g90
g71
NtRp1936
(dp1937
g74
(dp1938
sg83
g1923
sg76
(lp1939
g69
(g70
g71
NtRp1940
(dp1941
g74
(dp1942
g82
I5
ssg83
g1936
sg76
(lp1943
g69
(g78
g71
NtRp1944
(dp1945
g74
(dp1946
g82
I4
ssg83
Nsg76
(lp1947
g69
(g85
g71
NtRp1948
(dp1949
g74
(dp1950
sg83
g1944
sg76
(lp1951
g69
(g90
g71
NtRp1952
(dp1953
g74
(dp1954
g94
g95
ssg83
g1948
sg76
(lp1955
g897
asbag69
(g90
g71
NtRp1956
(dp1957
g74
(dp1958
g101
g102
ssg83
g1948
sg76
(lp1959
S':'
asbag69
(g90
g71
NtRp1960
(dp1961
g74
(dp1962
sg83
g1948
sg76
(lp1963
g69
(g70
g71
NtRp1964
(dp1965
g74
(dp1966
g82
I4
ssg83
g1960
sg76
(lp1967
S"set(['/home/perdomor/web2py/applications/welcome/', '/home/perdomor/web2py/applications/sicoin/', '/home/perdomor/web2py/applications/admin/'])"
p1968
asbasbasbag69
(g85
g71
NtRp1969
(dp1970
g74
(dp1971
sg83
g1944
sg76
(lp1972
g69
(g90
g71
NtRp1973
(dp1974
g74
(dp1975
g94
g95
ssg83
g1969
sg76
(lp1976
g919
asbag69
(g90
g71
NtRp1977
(dp1978
g74
(dp1979
g101
g102
ssg83
g1969
sg76
(lp1980
S':'
asbag69
(g90
g71
NtRp1981
(dp1982
g74
(dp1983
sg83
g1969
sg76
(lp1984
g69
(g70
g71
NtRp1985
(dp1986
g74
(dp1987
g82
I4
ssg83
g1981
sg76
(lp1988
g932
asbasbasbag69
(g85
g71
NtRp1989
(dp1990
g74
(dp1991
sg83
g1944
sg76
(lp1992
g69
(g90
g71
NtRp1993
(dp1994
g74
(dp1995
g94
g95
ssg83
g1989
sg76
(lp1996
g941
asbag69
(g90
g71
NtRp1997
(dp1998
g74
(dp1999
g101
g102
ssg83
g1989
sg76
(lp2000
S':'
asbag69
(g90
g71
NtRp2001
(dp2002
g74
(dp2003
sg83
g1989
sg76
(lp2004
g69
(g70
g71
NtRp2005
(dp2006
g74
(dp2007
g82
I4
ssg83
g2001
sg76
(lp2008
g69
(g78
g71
NtRp2009
(dp2010
g74
(dp2011
g82
I3
ssg83
Nsg76
(lp2012
sbasbasbasbag69
(g85
g71
NtRp2013
(dp2014
g74
(dp2015
sg83
g1944
sg76
(lp2016
g69
(g90
g71
NtRp2017
(dp2018
g74
(dp2019
g94
g95
ssg83
g2013
sg76
(lp2020
g966
asbag69
(g90
g71
NtRp2021
(dp2022
g74
(dp2023
g101
g102
ssg83
g2013
sg76
(lp2024
S':'
asbag69
(g90
g71
NtRp2025
(dp2026
g74
(dp2027
sg83
g2013
sg76
(lp2028
g69
(g70
g71
NtRp2029
(dp2030
g74
(dp2031
g82
I4
ssg83
g2025
sg76
(lp2032
S"<Values at 0x98859ac: {'verbose': False, 'ip': '190.169.221.43', 'with_scheduler': False, 'ips': ['127.0.1.1'], 'shutdown_timeout': 5, 'taskbar': False, 'port': 8080, 'maxthreads': None, 'softcron': False, 'server_name': 'perdomor', 'bpython': False, 'nogui': False, 'nocron': False, 'extcron': False, 'run_system_tests': False, 'test': None, 'folder': '/home/perdomor/web2py', 'config': '', 'import_models': False, 'winservice': '', 'shell': None, 'run': '', 'log_filename': 'httpserver.log', 'debuglevel': 30, 'args': [''], 'socket_timeout': 5, 'ssl_ca_certificate': None, 'scheduler': None, 'profiler_filename': None, 'ssl_private_key': '', 'scheduler_groups': None, 'password': '12345', 'request_queue_size': 5, 'ssl_certificate': '', 'cronjob': False, 'numthreads': None, 'quiet': False, 'interfaces': None, 'minthreads': None, 'timeout': 10, 'plain': False, 'nobanner': False, 'pid_filename': 'httpserver.pid'}>"
p2033
asbasbasbag69
(g85
g71
NtRp2034
(dp2035
g74
(dp2036
sg83
g1944
sg76
(lp2037
g69
(g90
g71
NtRp2038
(dp2039
g74
(dp2040
g94
g95
ssg83
g2034
sg76
(lp2041
g988
asbag69
(g90
g71
NtRp2042
(dp2043
g74
(dp2044
g101
g102
ssg83
g2034
sg76
(lp2045
S':'
asbag69
(g90
g71
NtRp2046
(dp2047
g74
(dp2048
sg83
g2034
sg76
(lp2049
g69
(g70
g71
NtRp2050
(dp2051
g74
(dp2052
g82
I4
ssg83
g2046
sg76
(lp2053
S'set([])'
p2054
asbasbasbag69
(g85
g71
NtRp2055
(dp2056
g74
(dp2057
sg83
g1944
sg76
(lp2058
g69
(g90
g71
NtRp2059
(dp2060
g74
(dp2061
g94
g95
ssg83
g2055
sg76
(lp2062
g1010
asbag69
(g90
g71
NtRp2063
(dp2064
g74
(dp2065
g101
g102
ssg83
g2055
sg76
(lp2066
S':'
asbag69
(g90
g71
NtRp2067
(dp2068
g74
(dp2069
sg83
g2055
sg76
(lp2070
g69
(g70
g71
NtRp2071
(dp2072
g74
(dp2073
g82
I4
ssg83
g2067
sg76
(lp2074
g112
asbasbasbag69
(g85
g71
NtRp2075
(dp2076
g74
(dp2077
sg83
g1944
sg76
(lp2078
g69
(g90
g71
NtRp2079
(dp2080
g74
(dp2081
g94
g95
ssg83
g2075
sg76
(lp2082
g1031
asbag69
(g90
g71
NtRp2083
(dp2084
g74
(dp2085
g101
g102
ssg83
g2075
sg76
(lp2086
S':'
asbag69
(g90
g71
NtRp2087
(dp2088
g74
(dp2089
sg83
g2075
sg76
(lp2090
g69
(g70
g71
NtRp2091
(dp2092
g74
(dp2093
g82
I4
ssg83
g2087
sg76
(lp2094
g1044
asbasbasbag69
(g85
g71
NtRp2095
(dp2096
g74
(dp2097
sg83
g1944
sg76
(lp2098
g69
(g90
g71
NtRp2099
(dp2100
g74
(dp2101
g94
g95
ssg83
g2095
sg76
(lp2102
g1229
asbag69
(g90
g71
NtRp2103
(dp2104
g74
(dp2105
g101
g102
ssg83
g2095
sg76
(lp2106
S':'
asbag69
(g90
g71
NtRp2107
(dp2108
g74
(dp2109
sg83
g2095
sg76
(lp2110
g69
(g70
g71
NtRp2111
(dp2112
g74
(dp2113
g82
I4
ssg83
g2107
sg76
(lp2114
g112
asbasbasbag69
(g85
g71
NtRp2115
(dp2116
g74
(dp2117
sg83
g1944
sg76
(lp2118
g69
(g90
g71
NtRp2119
(dp2120
g74
(dp2121
g94
g95
ssg83
g2115
sg76
(lp2122
g1250
asbag69
(g90
g71
NtRp2123
(dp2124
g74
(dp2125
g101
g102
ssg83
g2115
sg76
(lp2126
S':'
asbag69
(g90
g71
NtRp2127
(dp2128
g74
(dp2129
sg83
g2115
sg76
(lp2130
g69
(g70
g71
NtRp2131
(dp2132
g74
(dp2133
g82
I4
ssg83
g2127
sg76
(lp2134
g112
asbasbasbag69
(g85
g71
NtRp2135
(dp2136
g74
(dp2137
sg83
g1944
sg76
(lp2138
g69
(g90
g71
NtRp2139
(dp2140
g74
(dp2141
g94
g95
ssg83
g2135
sg76
(lp2142
g1509
asbag69
(g90
g71
NtRp2143
(dp2144
g74
(dp2145
g101
g102
ssg83
g2135
sg76
(lp2146
S':'
asbag69
(g90
g71
NtRp2147
(dp2148
g74
(dp2149
sg83
g2135
sg76
(lp2150
g69
(g70
g71
NtRp2151
(dp2152
g74
(dp2153
g82
I4
ssg83
g2147
sg76
(lp2154
g1522
asbasbasbag69
(g85
g71
NtRp2155
(dp2156
g74
(dp2157
sg83
g1944
sg76
(lp2158
g69
(g90
g71
NtRp2159
(dp2160
g74
(dp2161
g94
g95
ssg83
g2155
sg76
(lp2162
g1552
asbag69
(g90
g71
NtRp2163
(dp2164
g74
(dp2165
g101
g102
ssg83
g2155
sg76
(lp2166
S':'
asbag69
(g90
g71
NtRp2167
(dp2168
g74
(dp2169
sg83
g2155
sg76
(lp2170
g69
(g70
g71
NtRp2171
(dp2172
g74
(dp2173
g82
I4
ssg83
g2167
sg76
(lp2174
g69
(g78
g71
NtRp2175
(dp2176
g74
(dp2177
g82
I3
ssg83
Nsg76
(lp2178
g69
(g85
g71
NtRp2179
(dp2180
g74
(dp2181
sg83
g2175
sg76
(lp2182
g69
(g90
g71
NtRp2183
(dp2184
g74
(dp2185
sg83
g2179
sg76
(lp2186
g69
(g70
g71
NtRp2187
(dp2188
g74
(dp2189
g82
I3
ssg83
g2183
sg76
(lp2190
S'2'
asbasbasbag69
(g85
g71
NtRp2191
(dp2192
g74
(dp2193
sg83
g2175
sg76
(lp2194
g69
(g90
g71
NtRp2195
(dp2196
g74
(dp2197
sg83
g2191
sg76
(lp2198
g69
(g70
g71
NtRp2199
(dp2200
g74
(dp2201
g82
I3
ssg83
g2195
sg76
(lp2202
S'0'
asbasbasbag69
(g85
g71
NtRp2203
(dp2204
g74
(dp2205
sg83
g2175
sg76
(lp2206
g69
(g90
g71
NtRp2207
(dp2208
g74
(dp2209
sg83
g2203
sg76
(lp2210
g69
(g70
g71
NtRp2211
(dp2212
g74
(dp2213
g82
I3
ssg83
g2207
sg76
(lp2214
S'9'
asbasbasbag69
(g85
g71
NtRp2215
(dp2216
g74
(dp2217
sg83
g2175
sg76
(lp2218
g69
(g90
g71
NtRp2219
(dp2220
g74
(dp2221
sg83
g2215
sg76
(lp2222
g69
(g70
g71
NtRp2223
(dp2224
g74
(dp2225
g82
I3
ssg83
g2219
sg76
(lp2226
S'datetime.datetime(2012, 9, 13, 23, 51, 30)'
p2227
asbasbasbag69
(g85
g71
NtRp2228
(dp2229
g74
(dp2230
sg83
g2175
sg76
(lp2231
g69
(g90
g71
NtRp2232
(dp2233
g74
(dp2234
sg83
g2228
sg76
(lp2235
g69
(g70
g71
NtRp2236
(dp2237
g74
(dp2238
g82
I3
ssg83
g2232
sg76
(lp2239
g1630
asbasbasbasbasbasbasbasbasbasbasbag69
(g85
g71
NtRp2240
(dp2241
g74
(dp2242
sg83
g79
sg76
(lp2243
g69
(g90
g71
NtRp2244
(dp2245
g74
(dp2246
g94
g95
ssg83
g2240
sg76
(lp2247
S'is_https'
p2248
asbag69
(g90
g71
NtRp2249
(dp2250
g74
(dp2251
g101
g102
ssg83
g2240
sg76
(lp2252
S':'
asbag69
(g90
g71
NtRp2253
(dp2254
g74
(dp2255
sg83
g2240
sg76
(lp2256
g69
(g70
g71
NtRp2257
(dp2258
g74
(dp2259
g82
I5
ssg83
g2253
sg76
(lp2260
g112
asbasbasbag69
(g85
g71
NtRp2261
(dp2262
g74
(dp2263
sg83
g79
sg76
(lp2264
g69
(g90
g71
NtRp2265
(dp2266
g74
(dp2267
g94
g95
ssg83
g2261
sg76
(lp2268
S'is_local'
p2269
asbag69
(g90
g71
NtRp2270
(dp2271
g74
(dp2272
g101
g102
ssg83
g2261
sg76
(lp2273
S':'
asbag69
(g90
g71
NtRp2274
(dp2275
g74
(dp2276
sg83
g2261
sg76
(lp2277
g69
(g70
g71
NtRp2278
(dp2279
g74
(dp2280
g82
I5
ssg83
g2274
sg76
(lp2281
g1739
asbasbasbag69
(g85
g71
NtRp2282
(dp2283
g74
(dp2284
sg83
g79
sg76
(lp2285
g69
(g90
g71
NtRp2286
(dp2287
g74
(dp2288
g94
g95
ssg83
g2282
sg76
(lp2289
S'is_restful'
p2290
asbag69
(g90
g71
NtRp2291
(dp2292
g74
(dp2293
g101
g102
ssg83
g2282
sg76
(lp2294
S':'
asbag69
(g90
g71
NtRp2295
(dp2296
g74
(dp2297
sg83
g2282
sg76
(lp2298
g69
(g70
g71
NtRp2299
(dp2300
g74
(dp2301
g82
I5
ssg83
g2295
sg76
(lp2302
g112
asbasbasbag69
(g85
g71
NtRp2303
(dp2304
g74
(dp2305
sg83
g79
sg76
(lp2306
g69
(g90
g71
NtRp2307
(dp2308
g74
(dp2309
g94
g95
ssg83
g2303
sg76
(lp2310
S'now'
p2311
asbag69
(g90
g71
NtRp2312
(dp2313
g74
(dp2314
g101
g102
ssg83
g2303
sg76
(lp2315
S':'
asbag69
(g90
g71
NtRp2316
(dp2317
g74
(dp2318
sg83
g2303
sg76
(lp2319
g69
(g70
g71
NtRp2320
(dp2321
g74
(dp2322
g82
I5
ssg83
g2316
sg76
(lp2323
S'datetime.datetime(2012, 12, 3, 11, 36, 46, 972353)'
p2324
asbasbasbag69
(g85
g71
NtRp2325
(dp2326
g74
(dp2327
sg83
g79
sg76
(lp2328
g69
(g90
g71
NtRp2329
(dp2330
g74
(dp2331
g94
g95
ssg83
g2325
sg76
(lp2332
S'post_vars'
p2333
asbag69
(g90
g71
NtRp2334
(dp2335
g74
(dp2336
g101
g102
ssg83
g2325
sg76
(lp2337
S':'
asbag69
(g90
g71
NtRp2338
(dp2339
g74
(dp2340
sg83
g2325
sg76
(lp2341
g69
(g70
g71
NtRp2342
(dp2343
g74
(dp2344
g82
I5
ssg83
g2338
sg76
(lp2345
g69
(g78
g71
NtRp2346
(dp2347
g74
(dp2348
g82
I4
ssg83
Nsg76
(lp2349
sbasbasbasbag69
(g85
g71
NtRp2350
(dp2351
g74
(dp2352
sg83
g79
sg76
(lp2353
g69
(g90
g71
NtRp2354
(dp2355
g74
(dp2356
g94
g95
ssg83
g2350
sg76
(lp2357
S'raw_args'
p2358
asbag69
(g90
g71
NtRp2359
(dp2360
g74
(dp2361
g101
g102
ssg83
g2350
sg76
(lp2362
S':'
asbag69
(g90
g71
NtRp2363
(dp2364
g74
(dp2365
sg83
g2350
sg76
(lp2366
g69
(g70
g71
NtRp2367
(dp2368
g74
(dp2369
g82
I5
ssg83
g2363
sg76
(lp2370
S'archivo/51'
p2371
asbasbasbag69
(g85
g71
NtRp2372
(dp2373
g74
(dp2374
sg83
g79
sg76
(lp2375
g69
(g90
g71
NtRp2376
(dp2377
g74
(dp2378
g94
g95
ssg83
g2372
sg76
(lp2379
S'raw_extension'
p2380
asbag69
(g90
g71
NtRp2381
(dp2382
g74
(dp2383
g101
g102
ssg83
g2372
sg76
(lp2384
S':'
asbag69
(g90
g71
NtRp2385
(dp2386
g74
(dp2387
sg83
g2372
sg76
(lp2388
g69
(g70
g71
NtRp2389
(dp2390
g74
(dp2391
g82
I5
ssg83
g2385
sg76
(lp2392
S'None'
p2393
asbasbasbag69
(g85
g71
NtRp2394
(dp2395
g74
(dp2396
sg83
g79
sg76
(lp2397
g69
(g90
g71
NtRp2398
(dp2399
g74
(dp2400
g94
g95
ssg83
g2394
sg76
(lp2401
S'url'
p2402
asbag69
(g90
g71
NtRp2403
(dp2404
g74
(dp2405
g101
g102
ssg83
g2394
sg76
(lp2406
S':'
asbag69
(g90
g71
NtRp2407
(dp2408
g74
(dp2409
sg83
g2394
sg76
(lp2410
g69
(g70
g71
NtRp2411
(dp2412
g74
(dp2413
g82
I5
ssg83
g2407
sg76
(lp2414
g1284
asbasbasbag69
(g85
g71
NtRp2415
(dp2416
g74
(dp2417
sg83
g79
sg76
(lp2418
g69
(g90
g71
NtRp2419
(dp2420
g74
(dp2421
g94
g95
ssg83
g2415
sg76
(lp2422
S'utcnow'
p2423
asbag69
(g90
g71
NtRp2424
(dp2425
g74
(dp2426
g101
g102
ssg83
g2415
sg76
(lp2427
S':'
asbag69
(g90
g71
NtRp2428
(dp2429
g74
(dp2430
sg83
g2415
sg76
(lp2431
g69
(g70
g71
NtRp2432
(dp2433
g74
(dp2434
g82
I5
ssg83
g2428
sg76
(lp2435
S'datetime.datetime(2012, 12, 3, 16, 6, 46, 972390)'
p2436
asbasbasbag69
(g85
g71
NtRp2437
(dp2438
g74
(dp2439
sg83
g79
sg76
(lp2440
g69
(g90
g71
NtRp2441
(dp2442
g74
(dp2443
g94
g95
ssg83
g2437
sg76
(lp2444
S'uuid'
p2445
asbag69
(g90
g71
NtRp2446
(dp2447
g74
(dp2448
g101
g102
ssg83
g2437
sg76
(lp2449
S':'
asbag69
(g90
g71
NtRp2450
(dp2451
g74
(dp2452
sg83
g2437
sg76
(lp2453
g69
(g70
g71
NtRp2454
(dp2455
g74
(dp2456
g82
I5
ssg83
g2450
sg76
(lp2457
S'sicoin/190.169.221.43.2012-12-03.11-36-46.2920b39c-4b34-42a8-94b6-9320c716acbc'
p2458
asbasbasbag69
(g85
g71
NtRp2459
(dp2460
g74
(dp2461
sg83
g79
sg76
(lp2462
g69
(g90
g71
NtRp2463
(dp2464
g74
(dp2465
g94
g95
ssg83
g2459
sg76
(lp2466
S'vars'
p2467
asbag69
(g90
g71
NtRp2468
(dp2469
g74
(dp2470
g101
g102
ssg83
g2459
sg76
(lp2471
S':'
asbag69
(g90
g71
NtRp2472
(dp2473
g74
(dp2474
sg83
g2459
sg76
(lp2475
g69
(g70
g71
NtRp2476
(dp2477
g74
(dp2478
g82
I5
ssg83
g2472
sg76
(lp2479
g69
(g78
g71
NtRp2480
(dp2481
g74
(dp2482
g82
I4
ssg83
Nsg76
(lp2483
sbasbasbasbag69
(g85
g71
NtRp2484
(dp2485
g74
(dp2486
sg83
g79
sg76
(lp2487
g69
(g90
g71
NtRp2488
(dp2489
g74
(dp2490
g94
g95
ssg83
g2484
sg76
(lp2491
S'wsgi'
p2492
asbag69
(g90
g71
NtRp2493
(dp2494
g74
(dp2495
g101
g102
ssg83
g2484
sg76
(lp2496
S':'
asbag69
(g90
g71
NtRp2497
(dp2498
g74
(dp2499
sg83
g2484
sg76
(lp2500
g69
(g70
g71
NtRp2501
(dp2502
g74
(dp2503
g82
I5
ssg83
g2497
sg76
(lp2504
g69
(g78
g71
NtRp2505
(dp2506
g74
(dp2507
g82
I4
ssg83
Nsg76
(lp2508
g69
(g85
g71
NtRp2509
(dp2510
g74
(dp2511
sg83
g2505
sg76
(lp2512
g69
(g90
g71
NtRp2513
(dp2514
g74
(dp2515
g94
g95
ssg83
g2509
sg76
(lp2516
S'environ'
p2517
asbag69
(g90
g71
NtRp2518
(dp2519
g74
(dp2520
g101
g102
ssg83
g2509
sg76
(lp2521
S':'
asbag69
(g90
g71
NtRp2522
(dp2523
g74
(dp2524
sg83
g2509
sg76
(lp2525
g69
(g70
g71
NtRp2526
(dp2527
g74
(dp2528
g82
I4
ssg83
g2522
sg76
(lp2529
g69
(g78
g71
NtRp2530
(dp2531
g74
(dp2532
g82
I3
ssg83
Nsg76
(lp2533
g69
(g85
g71
NtRp2534
(dp2535
g74
(dp2536
sg83
g2530
sg76
(lp2537
g69
(g90
g71
NtRp2538
(dp2539
g74
(dp2540
g94
g95
ssg83
g2534
sg76
(lp2541
S'HTTP_ACCEPT'
p2542
asbag69
(g90
g71
NtRp2543
(dp2544
g74
(dp2545
g101
g102
ssg83
g2534
sg76
(lp2546
S':'
asbag69
(g90
g71
NtRp2547
(dp2548
g74
(dp2549
sg83
g2534
sg76
(lp2550
g69
(g70
g71
NtRp2551
(dp2552
g74
(dp2553
g82
I3
ssg83
g2547
sg76
(lp2554
g1066
asbasbasbag69
(g85
g71
NtRp2555
(dp2556
g74
(dp2557
sg83
g2530
sg76
(lp2558
g69
(g90
g71
NtRp2559
(dp2560
g74
(dp2561
g94
g95
ssg83
g2555
sg76
(lp2562
S'HTTP_ACCEPT_ENCODING'
p2563
asbag69
(g90
g71
NtRp2564
(dp2565
g74
(dp2566
g101
g102
ssg83
g2555
sg76
(lp2567
S':'
asbag69
(g90
g71
NtRp2568
(dp2569
g74
(dp2570
sg83
g2555
sg76
(lp2571
g69
(g70
g71
NtRp2572
(dp2573
g74
(dp2574
g82
I3
ssg83
g2568
sg76
(lp2575
g1088
asbasbasbag69
(g85
g71
NtRp2576
(dp2577
g74
(dp2578
sg83
g2530
sg76
(lp2579
g69
(g90
g71
NtRp2580
(dp2581
g74
(dp2582
g94
g95
ssg83
g2576
sg76
(lp2583
S'HTTP_ACCEPT_LANGUAGE'
p2584
asbag69
(g90
g71
NtRp2585
(dp2586
g74
(dp2587
g101
g102
ssg83
g2576
sg76
(lp2588
S':'
asbag69
(g90
g71
NtRp2589
(dp2590
g74
(dp2591
sg83
g2576
sg76
(lp2592
g69
(g70
g71
NtRp2593
(dp2594
g74
(dp2595
g82
I3
ssg83
g2589
sg76
(lp2596
g1110
asbasbasbag69
(g85
g71
NtRp2597
(dp2598
g74
(dp2599
sg83
g2530
sg76
(lp2600
g69
(g90
g71
NtRp2601
(dp2602
g74
(dp2603
g94
g95
ssg83
g2597
sg76
(lp2604
S'HTTP_CONNECTION'
p2605
asbag69
(g90
g71
NtRp2606
(dp2607
g74
(dp2608
g101
g102
ssg83
g2597
sg76
(lp2609
S':'
asbag69
(g90
g71
NtRp2610
(dp2611
g74
(dp2612
sg83
g2597
sg76
(lp2613
g69
(g70
g71
NtRp2614
(dp2615
g74
(dp2616
g82
I3
ssg83
g2610
sg76
(lp2617
g1132
asbasbasbag69
(g85
g71
NtRp2618
(dp2619
g74
(dp2620
sg83
g2530
sg76
(lp2621
g69
(g90
g71
NtRp2622
(dp2623
g74
(dp2624
g94
g95
ssg83
g2618
sg76
(lp2625
S'HTTP_COOKIE'
p2626
asbag69
(g90
g71
NtRp2627
(dp2628
g74
(dp2629
g101
g102
ssg83
g2618
sg76
(lp2630
S':'
asbag69
(g90
g71
NtRp2631
(dp2632
g74
(dp2633
sg83
g2618
sg76
(lp2634
g69
(g70
g71
NtRp2635
(dp2636
g74
(dp2637
g82
I3
ssg83
g2631
sg76
(lp2638
g1154
asbasbasbag69
(g85
g71
NtRp2639
(dp2640
g74
(dp2641
sg83
g2530
sg76
(lp2642
g69
(g90
g71
NtRp2643
(dp2644
g74
(dp2645
g94
g95
ssg83
g2639
sg76
(lp2646
S'HTTP_HOST'
p2647
asbag69
(g90
g71
NtRp2648
(dp2649
g74
(dp2650
g101
g102
ssg83
g2639
sg76
(lp2651
S':'
asbag69
(g90
g71
NtRp2652
(dp2653
g74
(dp2654
sg83
g2639
sg76
(lp2655
g69
(g70
g71
NtRp2656
(dp2657
g74
(dp2658
g82
I3
ssg83
g2652
sg76
(lp2659
g1176
asbasbasbag69
(g85
g71
NtRp2660
(dp2661
g74
(dp2662
sg83
g2530
sg76
(lp2663
g69
(g90
g71
NtRp2664
(dp2665
g74
(dp2666
g94
g95
ssg83
g2660
sg76
(lp2667
S'HTTP_REFERER'
p2668
asbag69
(g90
g71
NtRp2669
(dp2670
g74
(dp2671
g101
g102
ssg83
g2660
sg76
(lp2672
S':'
asbag69
(g90
g71
NtRp2673
(dp2674
g74
(dp2675
sg83
g2660
sg76
(lp2676
g69
(g70
g71
NtRp2677
(dp2678
g74
(dp2679
g82
I3
ssg83
g2673
sg76
(lp2680
g1198
asbasbasbag69
(g85
g71
NtRp2681
(dp2682
g74
(dp2683
sg83
g2530
sg76
(lp2684
g69
(g90
g71
NtRp2685
(dp2686
g74
(dp2687
g94
g95
ssg83
g2681
sg76
(lp2688
S'HTTP_USER_AGENT'
p2689
asbag69
(g90
g71
NtRp2690
(dp2691
g74
(dp2692
g101
g102
ssg83
g2681
sg76
(lp2693
S':'
asbag69
(g90
g71
NtRp2694
(dp2695
g74
(dp2696
sg83
g2681
sg76
(lp2697
g69
(g70
g71
NtRp2698
(dp2699
g74
(dp2700
g82
I3
ssg83
g2694
sg76
(lp2701
g1220
asbasbasbag69
(g85
g71
NtRp2702
(dp2703
g74
(dp2704
sg83
g2530
sg76
(lp2705
g69
(g90
g71
NtRp2706
(dp2707
g74
(dp2708
g94
g95
ssg83
g2702
sg76
(lp2709
S'PATH_INFO'
p2710
asbag69
(g90
g71
NtRp2711
(dp2712
g74
(dp2713
g101
g102
ssg83
g2702
sg76
(lp2714
S':'
asbag69
(g90
g71
NtRp2715
(dp2716
g74
(dp2717
sg83
g2702
sg76
(lp2718
g69
(g70
g71
NtRp2719
(dp2720
g74
(dp2721
g82
I3
ssg83
g2715
sg76
(lp2722
g1284
asbasbasbag69
(g85
g71
NtRp2723
(dp2724
g74
(dp2725
sg83
g2530
sg76
(lp2726
g69
(g90
g71
NtRp2727
(dp2728
g74
(dp2729
g94
g95
ssg83
g2723
sg76
(lp2730
S'QUERY_STRING'
p2731
asbag69
(g90
g71
NtRp2732
(dp2733
g74
(dp2734
g101
g102
ssg83
g2723
sg76
(lp2735
S':'
asbag69
(g90
g71
NtRp2736
(dp2737
g74
(dp2738
sg83
g2723
sg76
(lp2739
g69
(g70
g71
NtRp2740
(dp2741
g74
(dp2742
g82
I3
ssg83
g2736
sg76
(lp2743
S''
asbasbasbag69
(g85
g71
NtRp2744
(dp2745
g74
(dp2746
sg83
g2530
sg76
(lp2747
g69
(g90
g71
NtRp2748
(dp2749
g74
(dp2750
g94
g95
ssg83
g2744
sg76
(lp2751
S'REMOTE_ADDR'
p2752
asbag69
(g90
g71
NtRp2753
(dp2754
g74
(dp2755
g101
g102
ssg83
g2744
sg76
(lp2756
S':'
asbag69
(g90
g71
NtRp2757
(dp2758
g74
(dp2759
sg83
g2744
sg76
(lp2760
g69
(g70
g71
NtRp2761
(dp2762
g74
(dp2763
g82
I3
ssg83
g2757
sg76
(lp2764
g250
asbasbasbag69
(g85
g71
NtRp2765
(dp2766
g74
(dp2767
sg83
g2530
sg76
(lp2768
g69
(g90
g71
NtRp2769
(dp2770
g74
(dp2771
g94
g95
ssg83
g2765
sg76
(lp2772
S'REMOTE_PORT'
p2773
asbag69
(g90
g71
NtRp2774
(dp2775
g74
(dp2776
g101
g102
ssg83
g2765
sg76
(lp2777
S':'
asbag69
(g90
g71
NtRp2778
(dp2779
g74
(dp2780
sg83
g2765
sg76
(lp2781
g69
(g70
g71
NtRp2782
(dp2783
g74
(dp2784
g82
I3
ssg83
g2778
sg76
(lp2785
g1348
asbasbasbag69
(g85
g71
NtRp2786
(dp2787
g74
(dp2788
sg83
g2530
sg76
(lp2789
g69
(g90
g71
NtRp2790
(dp2791
g74
(dp2792
g94
g95
ssg83
g2786
sg76
(lp2793
S'REQUEST_METHOD'
p2794
asbag69
(g90
g71
NtRp2795
(dp2796
g74
(dp2797
g101
g102
ssg83
g2786
sg76
(lp2798
S':'
asbag69
(g90
g71
NtRp2799
(dp2800
g74
(dp2801
sg83
g2786
sg76
(lp2802
g69
(g70
g71
NtRp2803
(dp2804
g74
(dp2805
g82
I3
ssg83
g2799
sg76
(lp2806
g1370
asbasbasbag69
(g85
g71
NtRp2807
(dp2808
g74
(dp2809
sg83
g2530
sg76
(lp2810
g69
(g90
g71
NtRp2811
(dp2812
g74
(dp2813
g94
g95
ssg83
g2807
sg76
(lp2814
S'REQUEST_URI'
p2815
asbag69
(g90
g71
NtRp2816
(dp2817
g74
(dp2818
g101
g102
ssg83
g2807
sg76
(lp2819
S':'
asbag69
(g90
g71
NtRp2820
(dp2821
g74
(dp2822
sg83
g2807
sg76
(lp2823
g69
(g70
g71
NtRp2824
(dp2825
g74
(dp2826
g82
I3
ssg83
g2820
sg76
(lp2827
g1284
asbasbasbag69
(g85
g71
NtRp2828
(dp2829
g74
(dp2830
sg83
g2530
sg76
(lp2831
g69
(g90
g71
NtRp2832
(dp2833
g74
(dp2834
g94
g95
ssg83
g2828
sg76
(lp2835
S'SCRIPT_NAME'
p2836
asbag69
(g90
g71
NtRp2837
(dp2838
g74
(dp2839
g101
g102
ssg83
g2828
sg76
(lp2840
S':'
asbag69
(g90
g71
NtRp2841
(dp2842
g74
(dp2843
sg83
g2828
sg76
(lp2844
g69
(g70
g71
NtRp2845
(dp2846
g74
(dp2847
g82
I3
ssg83
g2841
sg76
(lp2848
S''
asbasbasbag69
(g85
g71
NtRp2849
(dp2850
g74
(dp2851
sg83
g2530
sg76
(lp2852
g69
(g90
g71
NtRp2853
(dp2854
g74
(dp2855
g94
g95
ssg83
g2849
sg76
(lp2856
S'SERVER_NAME'
p2857
asbag69
(g90
g71
NtRp2858
(dp2859
g74
(dp2860
g101
g102
ssg83
g2849
sg76
(lp2861
S':'
asbag69
(g90
g71
NtRp2862
(dp2863
g74
(dp2864
sg83
g2849
sg76
(lp2865
g69
(g70
g71
NtRp2866
(dp2867
g74
(dp2868
g82
I3
ssg83
g2862
sg76
(lp2869
g1434
asbasbasbag69
(g85
g71
NtRp2870
(dp2871
g74
(dp2872
sg83
g2530
sg76
(lp2873
g69
(g90
g71
NtRp2874
(dp2875
g74
(dp2876
g94
g95
ssg83
g2870
sg76
(lp2877
S'SERVER_PORT'
p2878
asbag69
(g90
g71
NtRp2879
(dp2880
g74
(dp2881
g101
g102
ssg83
g2870
sg76
(lp2882
S':'
asbag69
(g90
g71
NtRp2883
(dp2884
g74
(dp2885
sg83
g2870
sg76
(lp2886
g69
(g70
g71
NtRp2887
(dp2888
g74
(dp2889
g82
I3
ssg83
g2883
sg76
(lp2890
g1456
asbasbasbag69
(g85
g71
NtRp2891
(dp2892
g74
(dp2893
sg83
g2530
sg76
(lp2894
g69
(g90
g71
NtRp2895
(dp2896
g74
(dp2897
g94
g95
ssg83
g2891
sg76
(lp2898
S'SERVER_PROTOCOL'
p2899
asbag69
(g90
g71
NtRp2900
(dp2901
g74
(dp2902
g101
g102
ssg83
g2891
sg76
(lp2903
S':'
asbag69
(g90
g71
NtRp2904
(dp2905
g74
(dp2906
sg83
g2891
sg76
(lp2907
g69
(g70
g71
NtRp2908
(dp2909
g74
(dp2910
g82
I3
ssg83
g2904
sg76
(lp2911
g1478
asbasbasbag69
(g85
g71
NtRp2912
(dp2913
g74
(dp2914
sg83
g2530
sg76
(lp2915
g69
(g90
g71
NtRp2916
(dp2917
g74
(dp2918
g94
g95
ssg83
g2912
sg76
(lp2919
S'SERVER_SOFTWARE'
p2920
asbag69
(g90
g71
NtRp2921
(dp2922
g74
(dp2923
g101
g102
ssg83
g2912
sg76
(lp2924
S':'
asbag69
(g90
g71
NtRp2925
(dp2926
g74
(dp2927
sg83
g2912
sg76
(lp2928
g69
(g70
g71
NtRp2929
(dp2930
g74
(dp2931
g82
I3
ssg83
g2925
sg76
(lp2932
g1500
asbasbasbag69
(g85
g71
NtRp2933
(dp2934
g74
(dp2935
sg83
g2530
sg76
(lp2936
g69
(g90
g71
NtRp2937
(dp2938
g74
(dp2939
g94
g95
ssg83
g2933
sg76
(lp2940
S'wsgi.errors'
p2941
asbag69
(g90
g71
NtRp2942
(dp2943
g74
(dp2944
g101
g102
ssg83
g2933
sg76
(lp2945
S':'
asbag69
(g90
g71
NtRp2946
(dp2947
g74
(dp2948
sg83
g2933
sg76
(lp2949
g69
(g70
g71
NtRp2950
(dp2951
g74
(dp2952
g82
I3
ssg83
g2946
sg76
(lp2953
S"<open file '<stderr>', mode 'w' at 0xb76ce0d0>"
p2954
asbasbasbag69
(g85
g71
NtRp2955
(dp2956
g74
(dp2957
sg83
g2530
sg76
(lp2958
g69
(g90
g71
NtRp2959
(dp2960
g74
(dp2961
g94
g95
ssg83
g2955
sg76
(lp2962
S'wsgi.file_wrapper'
p2963
asbag69
(g90
g71
NtRp2964
(dp2965
g74
(dp2966
g101
g102
ssg83
g2955
sg76
(lp2967
S':'
asbag69
(g90
g71
NtRp2968
(dp2969
g74
(dp2970
sg83
g2955
sg76
(lp2971
g69
(g70
g71
NtRp2972
(dp2973
g74
(dp2974
g82
I3
ssg83
g2968
sg76
(lp2975
S'<class wsgiref.util.FileWrapper at 0x983886c>'
p2976
asbasbasbag69
(g85
g71
NtRp2977
(dp2978
g74
(dp2979
sg83
g2530
sg76
(lp2980
g69
(g90
g71
NtRp2981
(dp2982
g74
(dp2983
g94
g95
ssg83
g2977
sg76
(lp2984
S'wsgi.input'
p2985
asbag69
(g90
g71
NtRp2986
(dp2987
g74
(dp2988
g101
g102
ssg83
g2977
sg76
(lp2989
S':'
asbag69
(g90
g71
NtRp2990
(dp2991
g74
(dp2992
sg83
g2977
sg76
(lp2993
g69
(g70
g71
NtRp2994
(dp2995
g74
(dp2996
g82
I3
ssg83
g2990
sg76
(lp2997
S'<cStringIO.StringO object at 0xa3b6680>'
p2998
asbasbasbag69
(g85
g71
NtRp2999
(dp3000
g74
(dp3001
sg83
g2530
sg76
(lp3002
g69
(g90
g71
NtRp3003
(dp3004
g74
(dp3005
g94
g95
ssg83
g2999
sg76
(lp3006
S'wsgi.multiprocess'
p3007
asbag69
(g90
g71
NtRp3008
(dp3009
g74
(dp3010
g101
g102
ssg83
g2999
sg76
(lp3011
S':'
asbag69
(g90
g71
NtRp3012
(dp3013
g74
(dp3014
sg83
g2999
sg76
(lp3015
g69
(g70
g71
NtRp3016
(dp3017
g74
(dp3018
g82
I3
ssg83
g3012
sg76
(lp3019
g112
asbasbasbag69
(g85
g71
NtRp3020
(dp3021
g74
(dp3022
sg83
g2530
sg76
(lp3023
g69
(g90
g71
NtRp3024
(dp3025
g74
(dp3026
g94
g95
ssg83
g3020
sg76
(lp3027
S'wsgi.multithread'
p3028
asbag69
(g90
g71
NtRp3029
(dp3030
g74
(dp3031
g101
g102
ssg83
g3020
sg76
(lp3032
S':'
asbag69
(g90
g71
NtRp3033
(dp3034
g74
(dp3035
sg83
g3020
sg76
(lp3036
g69
(g70
g71
NtRp3037
(dp3038
g74
(dp3039
g82
I3
ssg83
g3033
sg76
(lp3040
g1739
asbasbasbag69
(g85
g71
NtRp3041
(dp3042
g74
(dp3043
sg83
g2530
sg76
(lp3044
g69
(g90
g71
NtRp3045
(dp3046
g74
(dp3047
g94
g95
ssg83
g3041
sg76
(lp3048
S'wsgi.run_once'
p3049
asbag69
(g90
g71
NtRp3050
(dp3051
g74
(dp3052
g101
g102
ssg83
g3041
sg76
(lp3053
S':'
asbag69
(g90
g71
NtRp3054
(dp3055
g74
(dp3056
sg83
g3041
sg76
(lp3057
g69
(g70
g71
NtRp3058
(dp3059
g74
(dp3060
g82
I3
ssg83
g3054
sg76
(lp3061
g112
asbasbasbag69
(g85
g71
NtRp3062
(dp3063
g74
(dp3064
sg83
g2530
sg76
(lp3065
g69
(g90
g71
NtRp3066
(dp3067
g74
(dp3068
g94
g95
ssg83
g3062
sg76
(lp3069
S'wsgi.url_scheme'
p3070
asbag69
(g90
g71
NtRp3071
(dp3072
g74
(dp3073
g101
g102
ssg83
g3062
sg76
(lp3074
S':'
asbag69
(g90
g71
NtRp3075
(dp3076
g74
(dp3077
sg83
g3062
sg76
(lp3078
g69
(g70
g71
NtRp3079
(dp3080
g74
(dp3081
g82
I3
ssg83
g3075
sg76
(lp3082
g1782
asbasbasbag69
(g85
g71
NtRp3083
(dp3084
g74
(dp3085
sg83
g2530
sg76
(lp3086
g69
(g90
g71
NtRp3087
(dp3088
g74
(dp3089
g94
g95
ssg83
g3083
sg76
(lp3090
S'wsgi.version'
p3091
asbag69
(g90
g71
NtRp3092
(dp3093
g74
(dp3094
g101
g102
ssg83
g3083
sg76
(lp3095
S':'
asbag69
(g90
g71
NtRp3096
(dp3097
g74
(dp3098
sg83
g3083
sg76
(lp3099
g69
(g70
g71
NtRp3100
(dp3101
g74
(dp3102
g82
I3
ssg83
g3096
sg76
(lp3103
S'1'
asbasbasbasbasbasbasbasbasbasbasbasbasbsS'frames'
p3104
(lp3105
(dp3106
S'file'
p3107
S'/home/perdomor/web2py/gluon/restricted.py'
p3108
sS'dump'
p3109
(dp3110
S'code'
p3111
S'r"response.write(\'<!DOCTYPE html>\\n<!-- paulirish....endif]-->\\n  \\n</body>\\n</html>\\n\', escape=False)"'
p3112
sS'layer'
p3113
S"'/home/perdomor/web2py/applications/sicoin/views/correspondencia/ver_correspondencia.html'"
p3114
sS'global compile2'
p3115
S'<function compile2>'
p3116
sS'ccode'
p3117
S'undefined'
p3118
ssS'lnum'
p3119
I208
sS'lines'
p3120
(dp3121
I203
S"    environment['__name__'] = '__restricted__'"
p3122
sI204
S'    try:'
p3123
sI205
S'        if type(code) == types.CodeType:'
p3124
sI206
S'            ccode = code'
p3125
sI207
S'        else:'
p3126
sI208
S'            ccode = compile2(code,layer)'
p3127
sI209
S'        exec ccode in environment'
p3128
sI210
S'    except HTTP:'
p3129
sI211
S'        raise'
p3130
sI212
S'    except RestrictedError:'
p3131
ssS'call'
p3132
S'(code=r"response.write(\'<!DOCTYPE html>\\n<!-- paulirish....endif]-->\\n  \\n</body>\\n</html>\\n\', escape=False)", environment={\'A\': <class \'gluon.html.A\'>, \'Auth\': <class \'gluon.tools.Auth\'>, \'B\': <class \'gluon.html.B\'>, \'BEAUTIFY\': <class \'gluon.html.BEAUTIFY\'>, \'BODY\': <class \'gluon.html.BODY\'>, \'BR\': <class \'gluon.html.BR\'>, \'BUTTON\': <class \'gluon.html.BUTTON\'>, \'CAT\': <class \'gluon.html.CAT\'>, \'CENTER\': <class \'gluon.html.CENTER\'>, \'CLEANUP\': <class \'gluon.validators.CLEANUP\'>, ...}, layer=\'/home/perdomor/web2py/applications/sicoin/views/correspondencia/ver_correspondencia.html\')'
p3133
sS'func'
p3134
S'restricted'
p3135
sa(dp3136
g3107
S'/home/perdomor/web2py/gluon/restricted.py'
p3137
sg3109
(dp3138
S'builtincompile'
p3139
S'<built-in function compile>'
p3140
sS'code'
p3141
S'r"response.write(\'<!DOCTYPE html>\\n<!-- paulirish....endif]-->\\n  \\n</body>\\n</html>\\n\', escape=False)"'
p3142
sS'code.rstrip'
p3143
S'<built-in method rstrip of str object>'
p3144
sS').replace'
p3145
g3118
sS'layer'
p3146
S"'/home/perdomor/web2py/applications/sicoin/views/correspondencia/ver_correspondencia.html'"
p3147
ssg3119
I193
sg3120
(dp3148
I192
S'    """'
p3149
sI193
S"    return compile(code.rstrip().replace('\\r\\n','\\n')+'\\n', layer, 'exec')"
p3150
sI194
S''
sI195
S"def restricted(code, environment=None, layer='Unknown'):"
p3151
sI196
S'    """'
p3152
sI197
S'    runs code in environment and returns the output. if an exception occurs'
p3153
sI188
S''
sI189
S'def compile2(code,layer):'
p3154
sI190
S'    """'
p3155
sI191
S"    The +'\\n' is necessary else compile fails when code ends in a comment."
p3156
ssg3132
S'(code=r"response.write(\'<!DOCTYPE html>\\n<!-- paulirish....endif]-->\\n  \\n</body>\\n</html>\\n\', escape=False)", layer=\'/home/perdomor/web2py/applications/sicoin/views/correspondencia/ver_correspondencia.html\')'
p3157
sg3134
S'compile2'
p3158
sasS'pyver'
p3159
S'Python 2.7.2+: /usr/bin/python'
p3160
sS'session'
p3161
g69
(g70
g71
NtRp3162
(dp3163
g74
(dp3164
sg76
(lp3165
g69
(g78
g71
NtRp3166
(dp3167
g74
(dp3168
g82
I5
ssg83
Nsg76
(lp3169
g69
(g85
g71
NtRp3170
(dp3171
g74
(dp3172
sg83
g3166
sg76
(lp3173
g69
(g90
g71
NtRp3174
(dp3175
g74
(dp3176
g94
g95
ssg83
g3170
sg76
(lp3177
S'auth'
p3178
asbag69
(g90
g71
NtRp3179
(dp3180
g74
(dp3181
g101
g102
ssg83
g3170
sg76
(lp3182
S':'
asbag69
(g90
g71
NtRp3183
(dp3184
g74
(dp3185
sg83
g3170
sg76
(lp3186
g69
(g70
g71
NtRp3187
(dp3188
g74
(dp3189
g82
I5
ssg83
g3183
sg76
(lp3190
g69
(g78
g71
NtRp3191
(dp3192
g74
(dp3193
g82
I4
ssg83
Nsg76
(lp3194
g69
(g85
g71
NtRp3195
(dp3196
g74
(dp3197
sg83
g3191
sg76
(lp3198
g69
(g90
g71
NtRp3199
(dp3200
g74
(dp3201
g94
g95
ssg83
g3195
sg76
(lp3202
S'expiration'
p3203
asbag69
(g90
g71
NtRp3204
(dp3205
g74
(dp3206
g101
g102
ssg83
g3195
sg76
(lp3207
S':'
asbag69
(g90
g71
NtRp3208
(dp3209
g74
(dp3210
sg83
g3195
sg76
(lp3211
g69
(g70
g71
NtRp3212
(dp3213
g74
(dp3214
g82
I4
ssg83
g3208
sg76
(lp3215
S'3600'
p3216
asbasbasbag69
(g85
g71
NtRp3217
(dp3218
g74
(dp3219
sg83
g3191
sg76
(lp3220
g69
(g90
g71
NtRp3221
(dp3222
g74
(dp3223
g94
g95
ssg83
g3217
sg76
(lp3224
S'hmac_key'
p3225
asbag69
(g90
g71
NtRp3226
(dp3227
g74
(dp3228
g101
g102
ssg83
g3217
sg76
(lp3229
S':'
asbag69
(g90
g71
NtRp3230
(dp3231
g74
(dp3232
sg83
g3217
sg76
(lp3233
g69
(g70
g71
NtRp3234
(dp3235
g74
(dp3236
g82
I4
ssg83
g3230
sg76
(lp3237
S'ca90ef24-bdf3-4f7d-8c71-b1a16a99fc46'
p3238
asbasbasbag69
(g85
g71
NtRp3239
(dp3240
g74
(dp3241
sg83
g3191
sg76
(lp3242
g69
(g90
g71
NtRp3243
(dp3244
g74
(dp3245
g94
g95
ssg83
g3239
sg76
(lp3246
S'last_visit'
p3247
asbag69
(g90
g71
NtRp3248
(dp3249
g74
(dp3250
g101
g102
ssg83
g3239
sg76
(lp3251
S':'
asbag69
(g90
g71
NtRp3252
(dp3253
g74
(dp3254
sg83
g3239
sg76
(lp3255
g69
(g70
g71
NtRp3256
(dp3257
g74
(dp3258
g82
I4
ssg83
g3252
sg76
(lp3259
S'datetime.datetime(2012, 12, 3, 11, 35, 48, 810106)'
p3260
asbasbasbag69
(g85
g71
NtRp3261
(dp3262
g74
(dp3263
sg83
g3191
sg76
(lp3264
g69
(g90
g71
NtRp3265
(dp3266
g74
(dp3267
g94
g95
ssg83
g3261
sg76
(lp3268
S'remember'
p3269
asbag69
(g90
g71
NtRp3270
(dp3271
g74
(dp3272
g101
g102
ssg83
g3261
sg76
(lp3273
S':'
asbag69
(g90
g71
NtRp3274
(dp3275
g74
(dp3276
sg83
g3261
sg76
(lp3277
g69
(g70
g71
NtRp3278
(dp3279
g74
(dp3280
g82
I4
ssg83
g3274
sg76
(lp3281
g112
asbasbasbag69
(g85
g71
NtRp3282
(dp3283
g74
(dp3284
sg83
g3191
sg76
(lp3285
g69
(g90
g71
NtRp3286
(dp3287
g74
(dp3288
g94
g95
ssg83
g3282
sg76
(lp3289
S'user'
p3290
asbag69
(g90
g71
NtRp3291
(dp3292
g74
(dp3293
g101
g102
ssg83
g3282
sg76
(lp3294
S':'
asbag69
(g90
g71
NtRp3295
(dp3296
g74
(dp3297
sg83
g3282
sg76
(lp3298
g69
(g70
g71
NtRp3299
(dp3300
g74
(dp3301
g82
I4
ssg83
g3295
sg76
(lp3302
g69
(g78
g71
NtRp3303
(dp3304
g74
(dp3305
g82
I3
ssg83
Nsg76
(lp3306
g69
(g85
g71
NtRp3307
(dp3308
g74
(dp3309
sg83
g3303
sg76
(lp3310
g69
(g90
g71
NtRp3311
(dp3312
g74
(dp3313
g94
g95
ssg83
g3307
sg76
(lp3314
S'departamento'
p3315
asbag69
(g90
g71
NtRp3316
(dp3317
g74
(dp3318
g101
g102
ssg83
g3307
sg76
(lp3319
S':'
asbag69
(g90
g71
NtRp3320
(dp3321
g74
(dp3322
sg83
g3307
sg76
(lp3323
g69
(g70
g71
NtRp3324
(dp3325
g74
(dp3326
g82
I3
ssg83
g3320
sg76
(lp3327
S'7'
asbasbasbag69
(g85
g71
NtRp3328
(dp3329
g74
(dp3330
sg83
g3303
sg76
(lp3331
g69
(g90
g71
NtRp3332
(dp3333
g74
(dp3334
g94
g95
ssg83
g3328
sg76
(lp3335
S'email'
p3336
asbag69
(g90
g71
NtRp3337
(dp3338
g74
(dp3339
g101
g102
ssg83
g3328
sg76
(lp3340
S':'
asbag69
(g90
g71
NtRp3341
(dp3342
g74
(dp3343
sg83
g3328
sg76
(lp3344
g69
(g70
g71
NtRp3345
(dp3346
g74
(dp3347
g82
I3
ssg83
g3341
sg76
(lp3348
S'perdomor@ucv.ve'
p3349
asbasbasbag69
(g85
g71
NtRp3350
(dp3351
g74
(dp3352
sg83
g3303
sg76
(lp3353
g69
(g90
g71
NtRp3354
(dp3355
g74
(dp3356
g94
g95
ssg83
g3350
sg76
(lp3357
S'first_name'
p3358
asbag69
(g90
g71
NtRp3359
(dp3360
g74
(dp3361
g101
g102
ssg83
g3350
sg76
(lp3362
S':'
asbag69
(g90
g71
NtRp3363
(dp3364
g74
(dp3365
sg83
g3350
sg76
(lp3366
g69
(g70
g71
NtRp3367
(dp3368
g74
(dp3369
g82
I3
ssg83
g3363
sg76
(lp3370
S'Roberto'
p3371
asbasbasbag69
(g85
g71
NtRp3372
(dp3373
g74
(dp3374
sg83
g3303
sg76
(lp3375
g69
(g90
g71
NtRp3376
(dp3377
g74
(dp3378
g94
g95
ssg83
g3372
sg76
(lp3379
S'id'
p3380
asbag69
(g90
g71
NtRp3381
(dp3382
g74
(dp3383
g101
g102
ssg83
g3372
sg76
(lp3384
S':'
asbag69
(g90
g71
NtRp3385
(dp3386
g74
(dp3387
sg83
g3372
sg76
(lp3388
g69
(g70
g71
NtRp3389
(dp3390
g74
(dp3391
g82
I3
ssg83
g3385
sg76
(lp3392
S'1'
asbasbasbag69
(g85
g71
NtRp3393
(dp3394
g74
(dp3395
sg83
g3303
sg76
(lp3396
g69
(g90
g71
NtRp3397
(dp3398
g74
(dp3399
g94
g95
ssg83
g3393
sg76
(lp3400
S'last_name'
p3401
asbag69
(g90
g71
NtRp3402
(dp3403
g74
(dp3404
g101
g102
ssg83
g3393
sg76
(lp3405
S':'
asbag69
(g90
g71
NtRp3406
(dp3407
g74
(dp3408
sg83
g3393
sg76
(lp3409
g69
(g70
g71
NtRp3410
(dp3411
g74
(dp3412
g82
I3
ssg83
g3406
sg76
(lp3413
S'Perdomo'
p3414
asbasbasbag69
(g85
g71
NtRp3415
(dp3416
g74
(dp3417
sg83
g3303
sg76
(lp3418
g69
(g90
g71
NtRp3419
(dp3420
g74
(dp3421
g94
g95
ssg83
g3415
sg76
(lp3422
S'password'
p3423
asbag69
(g90
g71
NtRp3424
(dp3425
g74
(dp3426
g101
g102
ssg83
g3415
sg76
(lp3427
S':'
asbag69
(g90
g71
NtRp3428
(dp3429
g74
(dp3430
sg83
g3415
sg76
(lp3431
g69
(g70
g71
NtRp3432
(dp3433
g74
(dp3434
g82
I3
ssg83
g3428
sg76
(lp3435
S'pbkdf2(1000,20,sha512)$88c1e85c9dcdecbb$11118ea249dd8593828d16a3639aa7afce22ea70'
p3436
asbasbasbag69
(g85
g71
NtRp3437
(dp3438
g74
(dp3439
sg83
g3303
sg76
(lp3440
g69
(g90
g71
NtRp3441
(dp3442
g74
(dp3443
g94
g95
ssg83
g3437
sg76
(lp3444
S'registration_id'
p3445
asbag69
(g90
g71
NtRp3446
(dp3447
g74
(dp3448
g101
g102
ssg83
g3437
sg76
(lp3449
S':'
asbag69
(g90
g71
NtRp3450
(dp3451
g74
(dp3452
sg83
g3437
sg76
(lp3453
g69
(g70
g71
NtRp3454
(dp3455
g74
(dp3456
g82
I3
ssg83
g3450
sg76
(lp3457
S''
asbasbasbag69
(g85
g71
NtRp3458
(dp3459
g74
(dp3460
sg83
g3303
sg76
(lp3461
g69
(g90
g71
NtRp3462
(dp3463
g74
(dp3464
g94
g95
ssg83
g3458
sg76
(lp3465
S'registration_key'
p3466
asbag69
(g90
g71
NtRp3467
(dp3468
g74
(dp3469
g101
g102
ssg83
g3458
sg76
(lp3470
S':'
asbag69
(g90
g71
NtRp3471
(dp3472
g74
(dp3473
sg83
g3458
sg76
(lp3474
g69
(g70
g71
NtRp3475
(dp3476
g74
(dp3477
g82
I3
ssg83
g3471
sg76
(lp3478
S''
asbasbasbag69
(g85
g71
NtRp3479
(dp3480
g74
(dp3481
sg83
g3303
sg76
(lp3482
g69
(g90
g71
NtRp3483
(dp3484
g74
(dp3485
g94
g95
ssg83
g3479
sg76
(lp3486
S'reset_password_key'
p3487
asbag69
(g90
g71
NtRp3488
(dp3489
g74
(dp3490
g101
g102
ssg83
g3479
sg76
(lp3491
S':'
asbag69
(g90
g71
NtRp3492
(dp3493
g74
(dp3494
sg83
g3479
sg76
(lp3495
g69
(g70
g71
NtRp3496
(dp3497
g74
(dp3498
g82
I3
ssg83
g3492
sg76
(lp3499
S''
asbasbasbasbasbasbasbag69
(g85
g71
NtRp3500
(dp3501
g74
(dp3502
sg83
g3191
sg76
(lp3503
g69
(g90
g71
NtRp3504
(dp3505
g74
(dp3506
g94
g95
ssg83
g3500
sg76
(lp3507
S'user_groups'
p3508
asbag69
(g90
g71
NtRp3509
(dp3510
g74
(dp3511
g101
g102
ssg83
g3500
sg76
(lp3512
S':'
asbag69
(g90
g71
NtRp3513
(dp3514
g74
(dp3515
sg83
g3500
sg76
(lp3516
g69
(g70
g71
NtRp3517
(dp3518
g74
(dp3519
g82
I4
ssg83
g3513
sg76
(lp3520
g69
(g78
g71
NtRp3521
(dp3522
g74
(dp3523
g82
I3
ssg83
Nsg76
(lp3524
g69
(g85
g71
NtRp3525
(dp3526
g74
(dp3527
sg83
g3521
sg76
(lp3528
g69
(g90
g71
NtRp3529
(dp3530
g74
(dp3531
g94
g95
ssg83
g3525
sg76
(lp3532
S'1'
asbag69
(g90
g71
NtRp3533
(dp3534
g74
(dp3535
g101
g102
ssg83
g3525
sg76
(lp3536
S':'
asbag69
(g90
g71
NtRp3537
(dp3538
g74
(dp3539
sg83
g3525
sg76
(lp3540
g69
(g70
g71
NtRp3541
(dp3542
g74
(dp3543
g82
I3
ssg83
g3537
sg76
(lp3544
S'user_1'
p3545
asbasbasbag69
(g85
g71
NtRp3546
(dp3547
g74
(dp3548
sg83
g3521
sg76
(lp3549
g69
(g90
g71
NtRp3550
(dp3551
g74
(dp3552
g94
g95
ssg83
g3546
sg76
(lp3553
S'4'
asbag69
(g90
g71
NtRp3554
(dp3555
g74
(dp3556
g101
g102
ssg83
g3546
sg76
(lp3557
S':'
asbag69
(g90
g71
NtRp3558
(dp3559
g74
(dp3560
sg83
g3546
sg76
(lp3561
g69
(g70
g71
NtRp3562
(dp3563
g74
(dp3564
g82
I3
ssg83
g3558
sg76
(lp3565
S'administrador'
p3566
asbasbasbag69
(g85
g71
NtRp3567
(dp3568
g74
(dp3569
sg83
g3521
sg76
(lp3570
g69
(g90
g71
NtRp3571
(dp3572
g74
(dp3573
g94
g95
ssg83
g3567
sg76
(lp3574
S'7'
asbag69
(g90
g71
NtRp3575
(dp3576
g74
(dp3577
g101
g102
ssg83
g3567
sg76
(lp3578
S':'
asbag69
(g90
g71
NtRp3579
(dp3580
g74
(dp3581
sg83
g3567
sg76
(lp3582
g69
(g70
g71
NtRp3583
(dp3584
g74
(dp3585
g82
I3
ssg83
g3579
sg76
(lp3586
S'recepcionista'
p3587
asbasbasbasbasbasbasbasbasbasbasbag69
(g85
g71
NtRp3588
(dp3589
g74
(dp3590
sg83
g3166
sg76
(lp3591
g69
(g90
g71
NtRp3592
(dp3593
g74
(dp3594
g94
g95
ssg83
g3588
sg76
(lp3595
S'flash'
p3596
asbag69
(g90
g71
NtRp3597
(dp3598
g74
(dp3599
g101
g102
ssg83
g3588
sg76
(lp3600
S':'
asbag69
(g90
g71
NtRp3601
(dp3602
g74
(dp3603
sg83
g3588
sg76
(lp3604
g69
(g70
g71
NtRp3605
(dp3606
g74
(dp3607
g82
I5
ssg83
g3601
sg76
(lp3608
S'None'
p3609
asbasbasbag69
(g85
g71
NtRp3610
(dp3611
g74
(dp3612
sg83
g3166
sg76
(lp3613
g69
(g90
g71
NtRp3614
(dp3615
g74
(dp3616
g94
g95
ssg83
g3610
sg76
(lp3617
S'pag_editar'
p3618
asbag69
(g90
g71
NtRp3619
(dp3620
g74
(dp3621
g101
g102
ssg83
g3610
sg76
(lp3622
S':'
asbag69
(g90
g71
NtRp3623
(dp3624
g74
(dp3625
sg83
g3610
sg76
(lp3626
g69
(g70
g71
NtRp3627
(dp3628
g74
(dp3629
g82
I5
ssg83
g3623
sg76
(lp3630
S'/sicoin/correspondencia/editar_correspondencia'
p3631
asbasbasbag69
(g85
g71
NtRp3632
(dp3633
g74
(dp3634
sg83
g3166
sg76
(lp3635
g69
(g90
g71
NtRp3636
(dp3637
g74
(dp3638
g94
g95
ssg83
g3632
sg76
(lp3639
S'pag_previa'
p3640
asbag69
(g90
g71
NtRp3641
(dp3642
g74
(dp3643
g101
g102
ssg83
g3632
sg76
(lp3644
S':'
asbag69
(g90
g71
NtRp3645
(dp3646
g74
(dp3647
sg83
g3632
sg76
(lp3648
g69
(g70
g71
NtRp3649
(dp3650
g74
(dp3651
g82
I5
ssg83
g3645
sg76
(lp3652
S'/sicoin/correspondencia/listar_correspondencias'
p3653
asbasbasbag69
(g85
g71
NtRp3654
(dp3655
g74
(dp3656
sg83
g3166
sg76
(lp3657
g69
(g90
g71
NtRp3658
(dp3659
g74
(dp3660
g94
g95
ssg83
g3654
sg76
(lp3661
S'reporte'
p3662
asbag69
(g90
g71
NtRp3663
(dp3664
g74
(dp3665
g101
g102
ssg83
g3654
sg76
(lp3666
S':'
asbag69
(g90
g71
NtRp3667
(dp3668
g74
(dp3669
sg83
g3654
sg76
(lp3670
g69
(g70
g71
NtRp3671
(dp3672
g74
(dp3673
g82
I5
ssg83
g3667
sg76
(lp3674
S''
asbasbasbag69
(g85
g71
NtRp3675
(dp3676
g74
(dp3677
sg83
g3166
sg76
(lp3678
g69
(g90
g71
NtRp3679
(dp3680
g74
(dp3681
g94
g95
ssg83
g3675
sg76
(lp3682
S'reporte_movimiento'
p3683
asbag69
(g90
g71
NtRp3684
(dp3685
g74
(dp3686
g101
g102
ssg83
g3675
sg76
(lp3687
S':'
asbag69
(g90
g71
NtRp3688
(dp3689
g74
(dp3690
sg83
g3675
sg76
(lp3691
g69
(g70
g71
NtRp3692
(dp3693
g74
(dp3694
g82
I5
ssg83
g3688
sg76
(lp3695
S''
asbasbasbasbasbsS'etype'
p3696
S"<type 'exceptions.SyntaxError'>"
p3697
sS'date'
p3698
S'Mon Dec  3 11:36:47 2012'
p3699
sS'response'
p3700
g69
(g70
g71
NtRp3701
(dp3702
g74
(dp3703
sg76
(lp3704
g69
(g78
g71
NtRp3705
(dp3706
g74
(dp3707
g82
I5
ssg83
Nsg76
(lp3708
g69
(g85
g71
NtRp3709
(dp3710
g74
(dp3711
sg83
g3705
sg76
(lp3712
g69
(g90
g71
NtRp3713
(dp3714
g74
(dp3715
g94
g95
ssg83
g3709
sg76
(lp3716
g193
asbag69
(g90
g71
NtRp3717
(dp3718
g74
(dp3719
g101
g102
ssg83
g3709
sg76
(lp3720
S':'
asbag69
(g90
g71
NtRp3721
(dp3722
g74
(dp3723
sg83
g3709
sg76
(lp3724
g69
(g70
g71
NtRp3725
(dp3726
g74
(dp3727
g82
I5
ssg83
g3721
sg76
(lp3728
S'<cStringIO.StringO object at 0xab4c2c0>'
p3729
asbasbasbag69
(g85
g71
NtRp3730
(dp3731
g74
(dp3732
sg83
g3705
sg76
(lp3733
g69
(g90
g71
NtRp3734
(dp3735
g74
(dp3736
g94
g95
ssg83
g3730
sg76
(lp3737
g281
asbag69
(g90
g71
NtRp3738
(dp3739
g74
(dp3740
g101
g102
ssg83
g3730
sg76
(lp3741
S':'
asbag69
(g90
g71
NtRp3742
(dp3743
g74
(dp3744
sg83
g3730
sg76
(lp3745
g69
(g70
g71
NtRp3746
(dp3747
g74
(dp3748
g82
I5
ssg83
g3742
sg76
(lp3749
g69
(g78
g71
NtRp3750
(dp3751
g74
(dp3752
g82
I4
ssg83
Nsg76
(lp3753
g69
(g85
g71
NtRp3754
(dp3755
g74
(dp3756
sg83
g3750
sg76
(lp3757
g69
(g90
g71
NtRp3758
(dp3759
g74
(dp3760
g94
g95
ssg83
g3754
sg76
(lp3761
S'session_id_sicoin'
p3762
asbag69
(g90
g71
NtRp3763
(dp3764
g74
(dp3765
g101
g102
ssg83
g3754
sg76
(lp3766
S':'
asbag69
(g90
g71
NtRp3767
(dp3768
g74
(dp3769
sg83
g3754
sg76
(lp3770
g69
(g70
g71
NtRp3771
(dp3772
g74
(dp3773
g82
I4
ssg83
g3767
sg76
(lp3774
g513
ag69
(g78
g71
NtRp3775
(dp3776
g74
(dp3777
g82
I3
ssg83
Nsg76
(lp3778
g69
(g85
g71
NtRp3779
(dp3780
g74
(dp3781
sg83
g3775
sg76
(lp3782
g69
(g90
g71
NtRp3783
(dp3784
g74
(dp3785
g94
g95
ssg83
g3779
sg76
(lp3786
g332
asbag69
(g90
g71
NtRp3787
(dp3788
g74
(dp3789
g101
g102
ssg83
g3779
sg76
(lp3790
S':'
asbag69
(g90
g71
NtRp3791
(dp3792
g74
(dp3793
sg83
g3779
sg76
(lp3794
g69
(g70
g71
NtRp3795
(dp3796
g74
(dp3797
g82
I3
ssg83
g3791
sg76
(lp3798
S''
asbasbasbag69
(g85
g71
NtRp3799
(dp3800
g74
(dp3801
sg83
g3775
sg76
(lp3802
g69
(g90
g71
NtRp3803
(dp3804
g74
(dp3805
g94
g95
ssg83
g3799
sg76
(lp3806
g353
asbag69
(g90
g71
NtRp3807
(dp3808
g74
(dp3809
g101
g102
ssg83
g3799
sg76
(lp3810
S':'
asbag69
(g90
g71
NtRp3811
(dp3812
g74
(dp3813
sg83
g3799
sg76
(lp3814
g69
(g70
g71
NtRp3815
(dp3816
g74
(dp3817
g82
I3
ssg83
g3811
sg76
(lp3818
S''
asbasbasbag69
(g85
g71
NtRp3819
(dp3820
g74
(dp3821
sg83
g3775
sg76
(lp3822
g69
(g90
g71
NtRp3823
(dp3824
g74
(dp3825
g94
g95
ssg83
g3819
sg76
(lp3826
g374
asbag69
(g90
g71
NtRp3827
(dp3828
g74
(dp3829
g101
g102
ssg83
g3819
sg76
(lp3830
S':'
asbag69
(g90
g71
NtRp3831
(dp3832
g74
(dp3833
sg83
g3819
sg76
(lp3834
g69
(g70
g71
NtRp3835
(dp3836
g74
(dp3837
g82
I3
ssg83
g3831
sg76
(lp3838
S''
asbasbasbag69
(g85
g71
NtRp3839
(dp3840
g74
(dp3841
sg83
g3775
sg76
(lp3842
g69
(g90
g71
NtRp3843
(dp3844
g74
(dp3845
g94
g95
ssg83
g3839
sg76
(lp3846
g395
asbag69
(g90
g71
NtRp3847
(dp3848
g74
(dp3849
g101
g102
ssg83
g3839
sg76
(lp3850
S':'
asbag69
(g90
g71
NtRp3851
(dp3852
g74
(dp3853
sg83
g3839
sg76
(lp3854
g69
(g70
g71
NtRp3855
(dp3856
g74
(dp3857
g82
I3
ssg83
g3851
sg76
(lp3858
S''
asbasbasbag69
(g85
g71
NtRp3859
(dp3860
g74
(dp3861
sg83
g3775
sg76
(lp3862
g69
(g90
g71
NtRp3863
(dp3864
g74
(dp3865
g94
g95
ssg83
g3859
sg76
(lp3866
g416
asbag69
(g90
g71
NtRp3867
(dp3868
g74
(dp3869
g101
g102
ssg83
g3859
sg76
(lp3870
S':'
asbag69
(g90
g71
NtRp3871
(dp3872
g74
(dp3873
sg83
g3859
sg76
(lp3874
g69
(g70
g71
NtRp3875
(dp3876
g74
(dp3877
g82
I3
ssg83
g3871
sg76
(lp3878
S''
asbasbasbag69
(g85
g71
NtRp3879
(dp3880
g74
(dp3881
sg83
g3775
sg76
(lp3882
g69
(g90
g71
NtRp3883
(dp3884
g74
(dp3885
g94
g95
ssg83
g3879
sg76
(lp3886
g437
asbag69
(g90
g71
NtRp3887
(dp3888
g74
(dp3889
g101
g102
ssg83
g3879
sg76
(lp3890
S':'
asbag69
(g90
g71
NtRp3891
(dp3892
g74
(dp3893
sg83
g3879
sg76
(lp3894
g69
(g70
g71
NtRp3895
(dp3896
g74
(dp3897
g82
I3
ssg83
g3891
sg76
(lp3898
S'/'
asbasbasbag69
(g85
g71
NtRp3899
(dp3900
g74
(dp3901
sg83
g3775
sg76
(lp3902
g69
(g90
g71
NtRp3903
(dp3904
g74
(dp3905
g94
g95
ssg83
g3899
sg76
(lp3906
g458
asbag69
(g90
g71
NtRp3907
(dp3908
g74
(dp3909
g101
g102
ssg83
g3899
sg76
(lp3910
S':'
asbag69
(g90
g71
NtRp3911
(dp3912
g74
(dp3913
sg83
g3899
sg76
(lp3914
g69
(g70
g71
NtRp3915
(dp3916
g74
(dp3917
g82
I3
ssg83
g3911
sg76
(lp3918
S''
asbasbasbag69
(g85
g71
NtRp3919
(dp3920
g74
(dp3921
sg83
g3775
sg76
(lp3922
g69
(g90
g71
NtRp3923
(dp3924
g74
(dp3925
g94
g95
ssg83
g3919
sg76
(lp3926
g479
asbag69
(g90
g71
NtRp3927
(dp3928
g74
(dp3929
g101
g102
ssg83
g3919
sg76
(lp3930
S':'
asbag69
(g90
g71
NtRp3931
(dp3932
g74
(dp3933
sg83
g3919
sg76
(lp3934
g69
(g70
g71
NtRp3935
(dp3936
g74
(dp3937
g82
I3
ssg83
g3931
sg76
(lp3938
S''
asbasbasbasbasbasbasbasbasbasbasbag69
(g85
g71
NtRp3939
(dp3940
g74
(dp3941
sg83
g3705
sg76
(lp3942
g69
(g90
g71
NtRp3943
(dp3944
g74
(dp3945
g94
g95
ssg83
g3939
sg76
(lp3946
S'delimiters'
p3947
asbag69
(g90
g71
NtRp3948
(dp3949
g74
(dp3950
g101
g102
ssg83
g3939
sg76
(lp3951
S':'
asbag69
(g90
g71
NtRp3952
(dp3953
g74
(dp3954
sg83
g3939
sg76
(lp3955
g69
(g70
g71
NtRp3956
(dp3957
g74
(dp3958
g82
I5
ssg83
g3952
sg76
(lp3959
g69
(g78
g71
NtRp3960
(dp3961
g74
(dp3962
g82
I4
ssg83
Nsg76
(lp3963
g69
(g85
g71
NtRp3964
(dp3965
g74
(dp3966
sg83
g3960
sg76
(lp3967
g69
(g90
g71
NtRp3968
(dp3969
g74
(dp3970
sg83
g3964
sg76
(lp3971
g69
(g70
g71
NtRp3972
(dp3973
g74
(dp3974
g82
I4
ssg83
g3968
sg76
(lp3975
S'{{'
p3976
asbasbasbag69
(g85
g71
NtRp3977
(dp3978
g74
(dp3979
sg83
g3960
sg76
(lp3980
g69
(g90
g71
NtRp3981
(dp3982
g74
(dp3983
sg83
g3977
sg76
(lp3984
g69
(g70
g71
NtRp3985
(dp3986
g74
(dp3987
g82
I4
ssg83
g3981
sg76
(lp3988
S'}}'
p3989
asbasbasbasbasbasbasbag69
(g85
g71
NtRp3990
(dp3991
g74
(dp3992
sg83
g3705
sg76
(lp3993
g69
(g90
g71
NtRp3994
(dp3995
g74
(dp3996
g94
g95
ssg83
g3990
sg76
(lp3997
S'files'
p3998
asbag69
(g90
g71
NtRp3999
(dp4000
g74
(dp4001
g101
g102
ssg83
g3990
sg76
(lp4002
S':'
asbag69
(g90
g71
NtRp4003
(dp4004
g74
(dp4005
sg83
g3990
sg76
(lp4006
g69
(g70
g71
NtRp4007
(dp4008
g74
(dp4009
g82
I5
ssg83
g4003
sg76
(lp4010
g69
(g78
g71
NtRp4011
(dp4012
g74
(dp4013
g82
I4
ssg83
Nsg76
(lp4014
sbasbasbasbag69
(g85
g71
NtRp4015
(dp4016
g74
(dp4017
sg83
g3705
sg76
(lp4018
g69
(g90
g71
NtRp4019
(dp4020
g74
(dp4021
g94
g95
ssg83
g4015
sg76
(lp4022
S'flash'
p4023
asbag69
(g90
g71
NtRp4024
(dp4025
g74
(dp4026
g101
g102
ssg83
g4015
sg76
(lp4027
S':'
asbag69
(g90
g71
NtRp4028
(dp4029
g74
(dp4030
sg83
g4015
sg76
(lp4031
g69
(g70
g71
NtRp4032
(dp4033
g74
(dp4034
g82
I5
ssg83
g4028
sg76
(lp4035
S''
asbasbasbag69
(g85
g71
NtRp4036
(dp4037
g74
(dp4038
sg83
g3705
sg76
(lp4039
g69
(g90
g71
NtRp4040
(dp4041
g74
(dp4042
g94
g95
ssg83
g4036
sg76
(lp4043
S'generic_patterns'
p4044
asbag69
(g90
g71
NtRp4045
(dp4046
g74
(dp4047
g101
g102
ssg83
g4036
sg76
(lp4048
S':'
asbag69
(g90
g71
NtRp4049
(dp4050
g74
(dp4051
sg83
g4036
sg76
(lp4052
g69
(g70
g71
NtRp4053
(dp4054
g74
(dp4055
g82
I5
ssg83
g4049
sg76
(lp4056
g69
(g78
g71
NtRp4057
(dp4058
g74
(dp4059
g82
I4
ssg83
Nsg76
(lp4060
g69
(g85
g71
NtRp4061
(dp4062
g74
(dp4063
sg83
g4057
sg76
(lp4064
g69
(g90
g71
NtRp4065
(dp4066
g74
(dp4067
sg83
g4061
sg76
(lp4068
g69
(g70
g71
NtRp4069
(dp4070
g74
(dp4071
g82
I4
ssg83
g4065
sg76
(lp4072
S'*'
asbasbasbasbasbasbasbag69
(g85
g71
NtRp4073
(dp4074
g74
(dp4075
sg83
g3705
sg76
(lp4076
g69
(g90
g71
NtRp4077
(dp4078
g74
(dp4079
g94
g95
ssg83
g4073
sg76
(lp4080
S'headers'
p4081
asbag69
(g90
g71
NtRp4082
(dp4083
g74
(dp4084
g101
g102
ssg83
g4073
sg76
(lp4085
S':'
asbag69
(g90
g71
NtRp4086
(dp4087
g74
(dp4088
sg83
g4073
sg76
(lp4089
g69
(g70
g71
NtRp4090
(dp4091
g74
(dp4092
g82
I5
ssg83
g4086
sg76
(lp4093
g69
(g78
g71
NtRp4094
(dp4095
g74
(dp4096
g82
I4
ssg83
Nsg76
(lp4097
g69
(g85
g71
NtRp4098
(dp4099
g74
(dp4100
sg83
g4094
sg76
(lp4101
g69
(g90
g71
NtRp4102
(dp4103
g74
(dp4104
g94
g95
ssg83
g4098
sg76
(lp4105
S'X-Powered-By'
p4106
asbag69
(g90
g71
NtRp4107
(dp4108
g74
(dp4109
g101
g102
ssg83
g4098
sg76
(lp4110
S':'
asbag69
(g90
g71
NtRp4111
(dp4112
g74
(dp4113
sg83
g4098
sg76
(lp4114
g69
(g70
g71
NtRp4115
(dp4116
g74
(dp4117
g82
I4
ssg83
g4111
sg76
(lp4118
S'web2py'
p4119
asbasbasbasbasbasbasbag69
(g85
g71
NtRp4120
(dp4121
g74
(dp4122
sg83
g3705
sg76
(lp4123
g69
(g90
g71
NtRp4124
(dp4125
g74
(dp4126
g94
g95
ssg83
g4120
sg76
(lp4127
S'menu'
p4128
asbag69
(g90
g71
NtRp4129
(dp4130
g74
(dp4131
g101
g102
ssg83
g4120
sg76
(lp4132
S':'
asbag69
(g90
g71
NtRp4133
(dp4134
g74
(dp4135
sg83
g4120
sg76
(lp4136
g69
(g70
g71
NtRp4137
(dp4138
g74
(dp4139
g82
I5
ssg83
g4133
sg76
(lp4140
g69
(g78
g71
NtRp4141
(dp4142
g74
(dp4143
g82
I4
ssg83
Nsg76
(lp4144
g69
(g85
g71
NtRp4145
(dp4146
g74
(dp4147
sg83
g4141
sg76
(lp4148
g69
(g90
g71
NtRp4149
(dp4150
g74
(dp4151
sg83
g4145
sg76
(lp4152
g69
(g70
g71
NtRp4153
(dp4154
g74
(dp4155
g82
I4
ssg83
g4149
sg76
(lp4156
g69
(g78
g71
NtRp4157
(dp4158
g74
(dp4159
g82
I3
ssg83
Nsg76
(lp4160
g69
(g85
g71
NtRp4161
(dp4162
g74
(dp4163
sg83
g4157
sg76
(lp4164
g69
(g90
g71
NtRp4165
(dp4166
g74
(dp4167
sg83
g4161
sg76
(lp4168
g69
(g70
g71
NtRp4169
(dp4170
g74
(dp4171
g82
I3
ssg83
g4165
sg76
(lp4172
cgluon.languages
lazyT_unpickle
p4173
(S's\x06\x00\x00\x00Indice'
tRp4174
asbasbasbag69
(g85
g71
NtRp4175
(dp4176
g74
(dp4177
sg83
g4157
sg76
(lp4178
g69
(g90
g71
NtRp4179
(dp4180
g74
(dp4181
sg83
g4175
sg76
(lp4182
g69
(g70
g71
NtRp4183
(dp4184
g74
(dp4185
g82
I3
ssg83
g4179
sg76
(lp4186
g112
asbasbasbag69
(g85
g71
NtRp4187
(dp4188
g74
(dp4189
sg83
g4157
sg76
(lp4190
g69
(g90
g71
NtRp4191
(dp4192
g74
(dp4193
sg83
g4187
sg76
(lp4194
g69
(g70
g71
NtRp4195
(dp4196
g74
(dp4197
g82
I3
ssg83
g4191
sg76
(lp4198
S'/sicoin/default/index'
p4199
asbasbasbag69
(g85
g71
NtRp4200
(dp4201
g74
(dp4202
sg83
g4157
sg76
(lp4203
g69
(g90
g71
NtRp4204
(dp4205
g74
(dp4206
sg83
g4200
sg76
(lp4207
g69
(g70
g71
NtRp4208
(dp4209
g74
(dp4210
g82
I3
ssg83
g4204
sg76
(lp4211
g69
(g78
g71
NtRp4212
(dp4213
g74
(dp4214
g82
I2
ssg83
Nsg76
(lp4215
sbasbasbasbasbasbasbasbag69
(g85
g71
NtRp4216
(dp4217
g74
(dp4218
sg83
g4141
sg76
(lp4219
g69
(g90
g71
NtRp4220
(dp4221
g74
(dp4222
sg83
g4216
sg76
(lp4223
g69
(g70
g71
NtRp4224
(dp4225
g74
(dp4226
g82
I4
ssg83
g4220
sg76
(lp4227
g69
(g78
g71
NtRp4228
(dp4229
g74
(dp4230
g82
I3
ssg83
Nsg76
(lp4231
g69
(g85
g71
NtRp4232
(dp4233
g74
(dp4234
sg83
g4228
sg76
(lp4235
g69
(g90
g71
NtRp4236
(dp4237
g74
(dp4238
sg83
g4232
sg76
(lp4239
g69
(g70
g71
NtRp4240
(dp4241
g74
(dp4242
g82
I3
ssg83
g4236
sg76
(lp4243
S'Correspondencias'
p4244
asbasbasbag69
(g85
g71
NtRp4245
(dp4246
g74
(dp4247
sg83
g4228
sg76
(lp4248
g69
(g90
g71
NtRp4249
(dp4250
g74
(dp4251
sg83
g4245
sg76
(lp4252
g69
(g70
g71
NtRp4253
(dp4254
g74
(dp4255
g82
I3
ssg83
g4249
sg76
(lp4256
g112
asbasbasbag69
(g85
g71
NtRp4257
(dp4258
g74
(dp4259
sg83
g4228
sg76
(lp4260
g69
(g90
g71
NtRp4261
(dp4262
g74
(dp4263
sg83
g4257
sg76
(lp4264
g69
(g70
g71
NtRp4265
(dp4266
g74
(dp4267
g82
I3
ssg83
g4261
sg76
(lp4268
S'None'
p4269
asbasbasbag69
(g85
g71
NtRp4270
(dp4271
g74
(dp4272
sg83
g4228
sg76
(lp4273
g69
(g90
g71
NtRp4274
(dp4275
g74
(dp4276
sg83
g4270
sg76
(lp4277
g69
(g70
g71
NtRp4278
(dp4279
g74
(dp4280
g82
I3
ssg83
g4274
sg76
(lp4281
g69
(g78
g71
NtRp4282
(dp4283
g74
(dp4284
g82
I2
ssg83
Nsg76
(lp4285
g69
(g85
g71
NtRp4286
(dp4287
g74
(dp4288
sg83
g4282
sg76
(lp4289
g69
(g90
g71
NtRp4290
(dp4291
g74
(dp4292
sg83
g4286
sg76
(lp4293
g69
(g70
g71
NtRp4294
(dp4295
g74
(dp4296
g82
I2
ssg83
g4290
sg76
(lp4297
g69
(g78
g71
NtRp4298
(dp4299
g74
(dp4300
g82
I1
ssg83
Nsg76
(lp4301
g69
(g85
g71
NtRp4302
(dp4303
g74
(dp4304
sg83
g4298
sg76
(lp4305
g69
(g90
g71
NtRp4306
(dp4307
g74
(dp4308
sg83
g4302
sg76
(lp4309
g69
(g70
g71
NtRp4310
(dp4311
g74
(dp4312
g82
I1
ssg83
g4306
sg76
(lp4313
g4244
asbasbasbag69
(g85
g71
NtRp4314
(dp4315
g74
(dp4316
sg83
g4298
sg76
(lp4317
g69
(g90
g71
NtRp4318
(dp4319
g74
(dp4320
sg83
g4314
sg76
(lp4321
g69
(g70
g71
NtRp4322
(dp4323
g74
(dp4324
g82
I1
ssg83
g4318
sg76
(lp4325
I00
asbasbasbag69
(g85
g71
NtRp4326
(dp4327
g74
(dp4328
sg83
g4298
sg76
(lp4329
g69
(g90
g71
NtRp4330
(dp4331
g74
(dp4332
sg83
g4326
sg76
(lp4333
g69
(g70
g71
NtRp4334
(dp4335
g74
(dp4336
g82
I1
ssg83
g4330
sg76
(lp4337
S'/sicoin/correspondencia/listar_correspondencias'
p4338
asbasbasbasbasbasbasbag69
(g85
g71
NtRp4339
(dp4340
g74
(dp4341
sg83
g4282
sg76
(lp4342
g69
(g90
g71
NtRp4343
(dp4344
g74
(dp4345
sg83
g4339
sg76
(lp4346
g69
(g70
g71
NtRp4347
(dp4348
g74
(dp4349
g82
I2
ssg83
g4343
sg76
(lp4350
g69
(g78
g71
NtRp4351
(dp4352
g74
(dp4353
g82
I1
ssg83
Nsg76
(lp4354
g69
(g85
g71
NtRp4355
(dp4356
g74
(dp4357
sg83
g4351
sg76
(lp4358
g69
(g90
g71
NtRp4359
(dp4360
g74
(dp4361
sg83
g4355
sg76
(lp4362
g69
(g70
g71
NtRp4363
(dp4364
g74
(dp4365
g82
I1
ssg83
g4359
sg76
(lp4366
S'Correspondencias del Departamento'
p4367
asbasbasbag69
(g85
g71
NtRp4368
(dp4369
g74
(dp4370
sg83
g4351
sg76
(lp4371
g69
(g90
g71
NtRp4372
(dp4373
g74
(dp4374
sg83
g4368
sg76
(lp4375
g69
(g70
g71
NtRp4376
(dp4377
g74
(dp4378
g82
I1
ssg83
g4372
sg76
(lp4379
I00
asbasbasbag69
(g85
g71
NtRp4380
(dp4381
g74
(dp4382
sg83
g4351
sg76
(lp4383
g69
(g90
g71
NtRp4384
(dp4385
g74
(dp4386
sg83
g4380
sg76
(lp4387
g69
(g70
g71
NtRp4388
(dp4389
g74
(dp4390
g82
I1
ssg83
g4384
sg76
(lp4391
S'/sicoin/correspondencia/listar_correspondencias_departamento'
p4392
asbasbasbasbasbasbasbasbasbasbasbasbasbasbasbag69
(g85
g71
NtRp4393
(dp4394
g74
(dp4395
sg83
g4141
sg76
(lp4396
g69
(g90
g71
NtRp4397
(dp4398
g74
(dp4399
sg83
g4393
sg76
(lp4400
g69
(g70
g71
NtRp4401
(dp4402
g74
(dp4403
g82
I4
ssg83
g4397
sg76
(lp4404
g69
(g78
g71
NtRp4405
(dp4406
g74
(dp4407
g82
I3
ssg83
Nsg76
(lp4408
g69
(g85
g71
NtRp4409
(dp4410
g74
(dp4411
sg83
g4405
sg76
(lp4412
g69
(g90
g71
NtRp4413
(dp4414
g74
(dp4415
sg83
g4409
sg76
(lp4416
g69
(g70
g71
NtRp4417
(dp4418
g74
(dp4419
g82
I3
ssg83
g4413
sg76
(lp4420
S'Configuraci\xc3\xb3n'
p4421
asbasbasbag69
(g85
g71
NtRp4422
(dp4423
g74
(dp4424
sg83
g4405
sg76
(lp4425
g69
(g90
g71
NtRp4426
(dp4427
g74
(dp4428
sg83
g4422
sg76
(lp4429
g69
(g70
g71
NtRp4430
(dp4431
g74
(dp4432
g82
I3
ssg83
g4426
sg76
(lp4433
g112
asbasbasbag69
(g85
g71
NtRp4434
(dp4435
g74
(dp4436
sg83
g4405
sg76
(lp4437
g69
(g90
g71
NtRp4438
(dp4439
g74
(dp4440
sg83
g4434
sg76
(lp4441
g69
(g70
g71
NtRp4442
(dp4443
g74
(dp4444
g82
I3
ssg83
g4438
sg76
(lp4445
S'None'
p4446
asbasbasbag69
(g85
g71
NtRp4447
(dp4448
g74
(dp4449
sg83
g4405
sg76
(lp4450
g69
(g90
g71
NtRp4451
(dp4452
g74
(dp4453
sg83
g4447
sg76
(lp4454
g69
(g70
g71
NtRp4455
(dp4456
g74
(dp4457
g82
I3
ssg83
g4451
sg76
(lp4458
g69
(g78
g71
NtRp4459
(dp4460
g74
(dp4461
g82
I2
ssg83
Nsg76
(lp4462
g69
(g85
g71
NtRp4463
(dp4464
g74
(dp4465
sg83
g4459
sg76
(lp4466
g69
(g90
g71
NtRp4467
(dp4468
g74
(dp4469
sg83
g4463
sg76
(lp4470
g69
(g70
g71
NtRp4471
(dp4472
g74
(dp4473
g82
I2
ssg83
g4467
sg76
(lp4474
g69
(g78
g71
NtRp4475
(dp4476
g74
(dp4477
g82
I1
ssg83
Nsg76
(lp4478
g69
(g85
g71
NtRp4479
(dp4480
g74
(dp4481
sg83
g4475
sg76
(lp4482
g69
(g90
g71
NtRp4483
(dp4484
g74
(dp4485
sg83
g4479
sg76
(lp4486
g69
(g70
g71
NtRp4487
(dp4488
g74
(dp4489
g82
I1
ssg83
g4483
sg76
(lp4490
S'Dependencias'
p4491
asbasbasbag69
(g85
g71
NtRp4492
(dp4493
g74
(dp4494
sg83
g4475
sg76
(lp4495
g69
(g90
g71
NtRp4496
(dp4497
g74
(dp4498
sg83
g4492
sg76
(lp4499
g69
(g70
g71
NtRp4500
(dp4501
g74
(dp4502
g82
I1
ssg83
g4496
sg76
(lp4503
I00
asbasbasbag69
(g85
g71
NtRp4504
(dp4505
g74
(dp4506
sg83
g4475
sg76
(lp4507
g69
(g90
g71
NtRp4508
(dp4509
g74
(dp4510
sg83
g4504
sg76
(lp4511
g69
(g70
g71
NtRp4512
(dp4513
g74
(dp4514
g82
I1
ssg83
g4508
sg76
(lp4515
S'/sicoin/configuracion/listar_dependencias'
p4516
asbasbasbasbasbasbasbag69
(g85
g71
NtRp4517
(dp4518
g74
(dp4519
sg83
g4459
sg76
(lp4520
g69
(g90
g71
NtRp4521
(dp4522
g74
(dp4523
sg83
g4517
sg76
(lp4524
g69
(g70
g71
NtRp4525
(dp4526
g74
(dp4527
g82
I2
ssg83
g4521
sg76
(lp4528
g69
(g78
g71
NtRp4529
(dp4530
g74
(dp4531
g82
I1
ssg83
Nsg76
(lp4532
g69
(g85
g71
NtRp4533
(dp4534
g74
(dp4535
sg83
g4529
sg76
(lp4536
g69
(g90
g71
NtRp4537
(dp4538
g74
(dp4539
sg83
g4533
sg76
(lp4540
g69
(g70
g71
NtRp4541
(dp4542
g74
(dp4543
g82
I1
ssg83
g4537
sg76
(lp4544
S'Departamentos'
p4545
asbasbasbag69
(g85
g71
NtRp4546
(dp4547
g74
(dp4548
sg83
g4529
sg76
(lp4549
g69
(g90
g71
NtRp4550
(dp4551
g74
(dp4552
sg83
g4546
sg76
(lp4553
g69
(g70
g71
NtRp4554
(dp4555
g74
(dp4556
g82
I1
ssg83
g4550
sg76
(lp4557
I00
asbasbasbag69
(g85
g71
NtRp4558
(dp4559
g74
(dp4560
sg83
g4529
sg76
(lp4561
g69
(g90
g71
NtRp4562
(dp4563
g74
(dp4564
sg83
g4558
sg76
(lp4565
g69
(g70
g71
NtRp4566
(dp4567
g74
(dp4568
g82
I1
ssg83
g4562
sg76
(lp4569
S'/sicoin/configuracion/listar_departamentos'
p4570
asbasbasbasbasbasbasbag69
(g85
g71
NtRp4571
(dp4572
g74
(dp4573
sg83
g4459
sg76
(lp4574
g69
(g90
g71
NtRp4575
(dp4576
g74
(dp4577
sg83
g4571
sg76
(lp4578
g69
(g70
g71
NtRp4579
(dp4580
g74
(dp4581
g82
I2
ssg83
g4575
sg76
(lp4582
g69
(g78
g71
NtRp4583
(dp4584
g74
(dp4585
g82
I1
ssg83
Nsg76
(lp4586
g69
(g85
g71
NtRp4587
(dp4588
g74
(dp4589
sg83
g4583
sg76
(lp4590
g69
(g90
g71
NtRp4591
(dp4592
g74
(dp4593
sg83
g4587
sg76
(lp4594
g69
(g70
g71
NtRp4595
(dp4596
g74
(dp4597
g82
I1
ssg83
g4591
sg76
(lp4598
S'Estatus'
p4599
asbasbasbag69
(g85
g71
NtRp4600
(dp4601
g74
(dp4602
sg83
g4583
sg76
(lp4603
g69
(g90
g71
NtRp4604
(dp4605
g74
(dp4606
sg83
g4600
sg76
(lp4607
g69
(g70
g71
NtRp4608
(dp4609
g74
(dp4610
g82
I1
ssg83
g4604
sg76
(lp4611
I00
asbasbasbag69
(g85
g71
NtRp4612
(dp4613
g74
(dp4614
sg83
g4583
sg76
(lp4615
g69
(g90
g71
NtRp4616
(dp4617
g74
(dp4618
sg83
g4612
sg76
(lp4619
g69
(g70
g71
NtRp4620
(dp4621
g74
(dp4622
g82
I1
ssg83
g4616
sg76
(lp4623
S'/sicoin/configuracion/listar_estatus'
p4624
asbasbasbasbasbasbasbag69
(g85
g71
NtRp4625
(dp4626
g74
(dp4627
sg83
g4459
sg76
(lp4628
g69
(g90
g71
NtRp4629
(dp4630
g74
(dp4631
sg83
g4625
sg76
(lp4632
g69
(g70
g71
NtRp4633
(dp4634
g74
(dp4635
g82
I2
ssg83
g4629
sg76
(lp4636
g69
(g78
g71
NtRp4637
(dp4638
g74
(dp4639
g82
I1
ssg83
Nsg76
(lp4640
g69
(g85
g71
NtRp4641
(dp4642
g74
(dp4643
sg83
g4637
sg76
(lp4644
g69
(g90
g71
NtRp4645
(dp4646
g74
(dp4647
sg83
g4641
sg76
(lp4648
g69
(g70
g71
NtRp4649
(dp4650
g74
(dp4651
g82
I1
ssg83
g4645
sg76
(lp4652
S'Tipo de Documentos'
p4653
asbasbasbag69
(g85
g71
NtRp4654
(dp4655
g74
(dp4656
sg83
g4637
sg76
(lp4657
g69
(g90
g71
NtRp4658
(dp4659
g74
(dp4660
sg83
g4654
sg76
(lp4661
g69
(g70
g71
NtRp4662
(dp4663
g74
(dp4664
g82
I1
ssg83
g4658
sg76
(lp4665
I00
asbasbasbag69
(g85
g71
NtRp4666
(dp4667
g74
(dp4668
sg83
g4637
sg76
(lp4669
g69
(g90
g71
NtRp4670
(dp4671
g74
(dp4672
sg83
g4666
sg76
(lp4673
g69
(g70
g71
NtRp4674
(dp4675
g74
(dp4676
g82
I1
ssg83
g4670
sg76
(lp4677
S'/sicoin/configuracion/listar_documentos'
p4678
asbasbasbasbasbasbasbag69
(g85
g71
NtRp4679
(dp4680
g74
(dp4681
sg83
g4459
sg76
(lp4682
g69
(g90
g71
NtRp4683
(dp4684
g74
(dp4685
sg83
g4679
sg76
(lp4686
g69
(g70
g71
NtRp4687
(dp4688
g74
(dp4689
g82
I2
ssg83
g4683
sg76
(lp4690
g69
(g78
g71
NtRp4691
(dp4692
g74
(dp4693
g82
I1
ssg83
Nsg76
(lp4694
g69
(g85
g71
NtRp4695
(dp4696
g74
(dp4697
sg83
g4691
sg76
(lp4698
g69
(g90
g71
NtRp4699
(dp4700
g74
(dp4701
sg83
g4695
sg76
(lp4702
g69
(g70
g71
NtRp4703
(dp4704
g74
(dp4705
g82
I1
ssg83
g4699
sg76
(lp4706
S'Asignaci\xc3\xb3n de Usuarios'
p4707
asbasbasbag69
(g85
g71
NtRp4708
(dp4709
g74
(dp4710
sg83
g4691
sg76
(lp4711
g69
(g90
g71
NtRp4712
(dp4713
g74
(dp4714
sg83
g4708
sg76
(lp4715
g69
(g70
g71
NtRp4716
(dp4717
g74
(dp4718
g82
I1
ssg83
g4712
sg76
(lp4719
I00
asbasbasbag69
(g85
g71
NtRp4720
(dp4721
g74
(dp4722
sg83
g4691
sg76
(lp4723
g69
(g90
g71
NtRp4724
(dp4725
g74
(dp4726
sg83
g4720
sg76
(lp4727
g69
(g70
g71
NtRp4728
(dp4729
g74
(dp4730
g82
I1
ssg83
g4724
sg76
(lp4731
S'/sicoin/configuracion/listar_usuarios'
p4732
asbasbasbasbasbasbasbasbasbasbasbasbasbasbasbasbasbasbasbag69
(g85
g71
NtRp4733
(dp4734
g74
(dp4735
sg83
g3705
sg76
(lp4736
g69
(g90
g71
NtRp4737
(dp4738
g74
(dp4739
g94
g95
ssg83
g4733
sg76
(lp4740
S'meta'
p4741
asbag69
(g90
g71
NtRp4742
(dp4743
g74
(dp4744
g101
g102
ssg83
g4733
sg76
(lp4745
S':'
asbag69
(g90
g71
NtRp4746
(dp4747
g74
(dp4748
sg83
g4733
sg76
(lp4749
g69
(g70
g71
NtRp4750
(dp4751
g74
(dp4752
g82
I5
ssg83
g4746
sg76
(lp4753
g69
(g78
g71
NtRp4754
(dp4755
g74
(dp4756
g82
I4
ssg83
Nsg76
(lp4757
g69
(g85
g71
NtRp4758
(dp4759
g74
(dp4760
sg83
g4754
sg76
(lp4761
g69
(g90
g71
NtRp4762
(dp4763
g74
(dp4764
g94
g95
ssg83
g4758
sg76
(lp4765
S'author'
p4766
asbag69
(g90
g71
NtRp4767
(dp4768
g74
(dp4769
g101
g102
ssg83
g4758
sg76
(lp4770
S':'
asbag69
(g90
g71
NtRp4771
(dp4772
g74
(dp4773
sg83
g4758
sg76
(lp4774
g69
(g70
g71
NtRp4775
(dp4776
g74
(dp4777
g82
I4
ssg83
g4771
sg76
(lp4778
S'TIC - FIPU <perdomor@ucv.ve>'
p4779
asbasbasbag69
(g85
g71
NtRp4780
(dp4781
g74
(dp4782
sg83
g4754
sg76
(lp4783
g69
(g90
g71
NtRp4784
(dp4785
g74
(dp4786
g94
g95
ssg83
g4780
sg76
(lp4787
S'description'
p4788
asbag69
(g90
g71
NtRp4789
(dp4790
g74
(dp4791
g101
g102
ssg83
g4780
sg76
(lp4792
S':'
asbag69
(g90
g71
NtRp4793
(dp4794
g74
(dp4795
sg83
g4780
sg76
(lp4796
g69
(g70
g71
NtRp4797
(dp4798
g74
(dp4799
g82
I4
ssg83
g4793
sg76
(lp4800
S''
asbasbasbag69
(g85
g71
NtRp4801
(dp4802
g74
(dp4803
sg83
g4754
sg76
(lp4804
g69
(g90
g71
NtRp4805
(dp4806
g74
(dp4807
g94
g95
ssg83
g4801
sg76
(lp4808
S'keywords'
p4809
asbag69
(g90
g71
NtRp4810
(dp4811
g74
(dp4812
g101
g102
ssg83
g4801
sg76
(lp4813
S':'
asbag69
(g90
g71
NtRp4814
(dp4815
g74
(dp4816
sg83
g4801
sg76
(lp4817
g69
(g70
g71
NtRp4818
(dp4819
g74
(dp4820
g82
I4
ssg83
g4814
sg76
(lp4821
S''
asbasbasbasbasbasbasbag69
(g85
g71
NtRp4822
(dp4823
g74
(dp4824
sg83
g3705
sg76
(lp4825
g69
(g90
g71
NtRp4826
(dp4827
g74
(dp4828
g94
g95
ssg83
g4822
sg76
(lp4829
S'models_to_run'
p4830
asbag69
(g90
g71
NtRp4831
(dp4832
g74
(dp4833
g101
g102
ssg83
g4822
sg76
(lp4834
S':'
asbag69
(g90
g71
NtRp4835
(dp4836
g74
(dp4837
sg83
g4822
sg76
(lp4838
g69
(g70
g71
NtRp4839
(dp4840
g74
(dp4841
g82
I5
ssg83
g4835
sg76
(lp4842
g69
(g78
g71
NtRp4843
(dp4844
g74
(dp4845
g82
I4
ssg83
Nsg76
(lp4846
g69
(g85
g71
NtRp4847
(dp4848
g74
(dp4849
sg83
g4843
sg76
(lp4850
g69
(g90
g71
NtRp4851
(dp4852
g74
(dp4853
sg83
g4847
sg76
(lp4854
g69
(g70
g71
NtRp4855
(dp4856
g74
(dp4857
g82
I4
ssg83
g4851
sg76
(lp4858
S'^\\w+\\.py$'
p4859
asbasbasbag69
(g85
g71
NtRp4860
(dp4861
g74
(dp4862
sg83
g4843
sg76
(lp4863
g69
(g90
g71
NtRp4864
(dp4865
g74
(dp4866
sg83
g4860
sg76
(lp4867
g69
(g70
g71
NtRp4868
(dp4869
g74
(dp4870
g82
I4
ssg83
g4864
sg76
(lp4871
S'^correspondencia/\\w+\\.py$'
p4872
asbasbasbag69
(g85
g71
NtRp4873
(dp4874
g74
(dp4875
sg83
g4843
sg76
(lp4876
g69
(g90
g71
NtRp4877
(dp4878
g74
(dp4879
sg83
g4873
sg76
(lp4880
g69
(g70
g71
NtRp4881
(dp4882
g74
(dp4883
g82
I4
ssg83
g4877
sg76
(lp4884
S'^correspondencia/ver_correspondencia/\\w+\\.py$'
p4885
asbasbasbasbasbasbasbag69
(g85
g71
NtRp4886
(dp4887
g74
(dp4888
sg83
g3705
sg76
(lp4889
g69
(g90
g71
NtRp4890
(dp4891
g74
(dp4892
g94
g95
ssg83
g4886
sg76
(lp4893
S'postprocessing'
p4894
asbag69
(g90
g71
NtRp4895
(dp4896
g74
(dp4897
g101
g102
ssg83
g4886
sg76
(lp4898
S':'
asbag69
(g90
g71
NtRp4899
(dp4900
g74
(dp4901
sg83
g4886
sg76
(lp4902
g69
(g70
g71
NtRp4903
(dp4904
g74
(dp4905
g82
I5
ssg83
g4899
sg76
(lp4906
g69
(g78
g71
NtRp4907
(dp4908
g74
(dp4909
g82
I4
ssg83
Nsg76
(lp4910
sbasbasbasbag69
(g85
g71
NtRp4911
(dp4912
g74
(dp4913
sg83
g3705
sg76
(lp4914
g69
(g90
g71
NtRp4915
(dp4916
g74
(dp4917
g94
g95
ssg83
g4911
sg76
(lp4918
S'session_file'
p4919
asbag69
(g90
g71
NtRp4920
(dp4921
g74
(dp4922
g101
g102
ssg83
g4911
sg76
(lp4923
S':'
asbag69
(g90
g71
NtRp4924
(dp4925
g74
(dp4926
sg83
g4911
sg76
(lp4927
g69
(g70
g71
NtRp4928
(dp4929
g74
(dp4930
g82
I5
ssg83
g4924
sg76
(lp4931
S"<open file '/home/perdomor/web2py/applications/sicoin/sessions/190.169.221.43-b1695f86-f508-4b25-9acb-a1c48e451001', mode 'rb+' at 0x9b0b3e8>"
p4932
asbasbasbag69
(g85
g71
NtRp4933
(dp4934
g74
(dp4935
sg83
g3705
sg76
(lp4936
g69
(g90
g71
NtRp4937
(dp4938
g74
(dp4939
g94
g95
ssg83
g4933
sg76
(lp4940
S'session_filename'
p4941
asbag69
(g90
g71
NtRp4942
(dp4943
g74
(dp4944
g101
g102
ssg83
g4933
sg76
(lp4945
S':'
asbag69
(g90
g71
NtRp4946
(dp4947
g74
(dp4948
sg83
g4933
sg76
(lp4949
g69
(g70
g71
NtRp4950
(dp4951
g74
(dp4952
g82
I5
ssg83
g4946
sg76
(lp4953
S'/home/perdomor/web2py/applications/sicoin/sessions/190.169.221.43-b1695f86-f508-4b25-9acb-a1c48e451001'
p4954
asbasbasbag69
(g85
g71
NtRp4955
(dp4956
g74
(dp4957
sg83
g3705
sg76
(lp4958
g69
(g90
g71
NtRp4959
(dp4960
g74
(dp4961
g94
g95
ssg83
g4955
sg76
(lp4962
S'session_id'
p4963
asbag69
(g90
g71
NtRp4964
(dp4965
g74
(dp4966
g101
g102
ssg83
g4955
sg76
(lp4967
S':'
asbag69
(g90
g71
NtRp4968
(dp4969
g74
(dp4970
sg83
g4955
sg76
(lp4971
g69
(g70
g71
NtRp4972
(dp4973
g74
(dp4974
g82
I5
ssg83
g4968
sg76
(lp4975
g513
asbasbasbag69
(g85
g71
NtRp4976
(dp4977
g74
(dp4978
sg83
g3705
sg76
(lp4979
g69
(g90
g71
NtRp4980
(dp4981
g74
(dp4982
g94
g95
ssg83
g4976
sg76
(lp4983
S'session_id_name'
p4984
asbag69
(g90
g71
NtRp4985
(dp4986
g74
(dp4987
g101
g102
ssg83
g4976
sg76
(lp4988
S':'
asbag69
(g90
g71
NtRp4989
(dp4990
g74
(dp4991
sg83
g4976
sg76
(lp4992
g69
(g70
g71
NtRp4993
(dp4994
g74
(dp4995
g82
I5
ssg83
g4989
sg76
(lp4996
g3762
asbasbasbag69
(g85
g71
NtRp4997
(dp4998
g74
(dp4999
sg83
g3705
sg76
(lp5000
g69
(g90
g71
NtRp5001
(dp5002
g74
(dp5003
g94
g95
ssg83
g4997
sg76
(lp5004
S'session_locked'
p5005
asbag69
(g90
g71
NtRp5006
(dp5007
g74
(dp5008
g101
g102
ssg83
g4997
sg76
(lp5009
S':'
asbag69
(g90
g71
NtRp5010
(dp5011
g74
(dp5012
sg83
g4997
sg76
(lp5013
g69
(g70
g71
NtRp5014
(dp5015
g74
(dp5016
g82
I5
ssg83
g5010
sg76
(lp5017
g1739
asbasbasbag69
(g85
g71
NtRp5018
(dp5019
g74
(dp5020
sg83
g3705
sg76
(lp5021
g69
(g90
g71
NtRp5022
(dp5023
g74
(dp5024
g94
g95
ssg83
g5018
sg76
(lp5025
S'session_new'
p5026
asbag69
(g90
g71
NtRp5027
(dp5028
g74
(dp5029
g101
g102
ssg83
g5018
sg76
(lp5030
S':'
asbag69
(g90
g71
NtRp5031
(dp5032
g74
(dp5033
sg83
g5018
sg76
(lp5034
g69
(g70
g71
NtRp5035
(dp5036
g74
(dp5037
g82
I5
ssg83
g5031
sg76
(lp5038
g112
asbasbasbag69
(g85
g71
NtRp5039
(dp5040
g74
(dp5041
sg83
g3705
sg76
(lp5042
g69
(g90
g71
NtRp5043
(dp5044
g74
(dp5045
g94
g95
ssg83
g5039
sg76
(lp5046
S'status'
p5047
asbag69
(g90
g71
NtRp5048
(dp5049
g74
(dp5050
g101
g102
ssg83
g5039
sg76
(lp5051
S':'
asbag69
(g90
g71
NtRp5052
(dp5053
g74
(dp5054
sg83
g5039
sg76
(lp5055
g69
(g70
g71
NtRp5056
(dp5057
g74
(dp5058
g82
I5
ssg83
g5052
sg76
(lp5059
S'200'
p5060
asbasbasbag69
(g85
g71
NtRp5061
(dp5062
g74
(dp5063
sg83
g3705
sg76
(lp5064
g69
(g90
g71
NtRp5065
(dp5066
g74
(dp5067
g94
g95
ssg83
g5061
sg76
(lp5068
S'subtitle'
p5069
asbag69
(g90
g71
NtRp5070
(dp5071
g74
(dp5072
g101
g102
ssg83
g5061
sg76
(lp5073
S':'
asbag69
(g90
g71
NtRp5074
(dp5075
g74
(dp5076
sg83
g5061
sg76
(lp5077
g69
(g70
g71
NtRp5078
(dp5079
g74
(dp5080
g82
I5
ssg83
g5074
sg76
(lp5081
S'Sistema Integrado de Correspondencia Interna'
p5082
asbasbasbag69
(g85
g71
NtRp5083
(dp5084
g74
(dp5085
sg83
g3705
sg76
(lp5086
g69
(g90
g71
NtRp5087
(dp5088
g74
(dp5089
g94
g95
ssg83
g5083
sg76
(lp5090
S'title'
p5091
asbag69
(g90
g71
NtRp5092
(dp5093
g74
(dp5094
g101
g102
ssg83
g5083
sg76
(lp5095
S':'
asbag69
(g90
g71
NtRp5096
(dp5097
g74
(dp5098
sg83
g5083
sg76
(lp5099
g69
(g70
g71
NtRp5100
(dp5101
g74
(dp5102
g82
I5
ssg83
g5096
sg76
(lp5103
S'SiCoIn'
p5104
asbasbasbag69
(g85
g71
NtRp5105
(dp5106
g74
(dp5107
sg83
g3705
sg76
(lp5108
g69
(g90
g71
NtRp5109
(dp5110
g74
(dp5111
g94
g95
ssg83
g5105
sg76
(lp5112
S'view'
p5113
asbag69
(g90
g71
NtRp5114
(dp5115
g74
(dp5116
g101
g102
ssg83
g5105
sg76
(lp5117
S':'
asbag69
(g90
g71
NtRp5118
(dp5119
g74
(dp5120
sg83
g5105
sg76
(lp5121
g69
(g70
g71
NtRp5122
(dp5123
g74
(dp5124
g82
I5
ssg83
g5118
sg76
(lp5125
S'correspondencia/ver_correspondencia.html'
p5126
asbasbasbasbasbsS'locals'
p5127
(dp5128
g4
S"'/home/perdomor/web2py/applications/sicoin/views/correspondencia/ver_correspondencia.html'"
p5129
sg6
S'r"response.write(\'<!DOCTYPE html>\\n<!-- paulirish....endif]-->\\n  \\n</body>\\n</html>\\n\', escape=False)"'
p5130
sssS'traceback'
p5131
S'Traceback (most recent call last):\n  File "/home/perdomor/web2py/gluon/restricted.py", line 208, in restricted\n    ccode = compile2(code,layer)\n  File "/home/perdomor/web2py/gluon/restricted.py", line 193, in compile2\n    return compile(code.rstrip().replace(\'\\r\\n\',\'\\n\')+\'\\n\', layer, \'exec\')\n  File "/home/perdomor/web2py/applications/sicoin/views/correspondencia/ver_correspondencia.html", line 87\n    if request.args(0)!="archivo" or request.args(0)!="activo"::\n                                                               ^\nSyntaxError: invalid syntax\n'
p5132
s.