(dp1
S'output'
p2
S"<type 'exceptions.ValueError'> invalid literal for int() with base 10: 'movimiento'"
p3
sS'layer'
p4
S'/home/perdomor/web2py/applications/sicoin/controllers/correspondencia.py'
p5
sS'code'
p6
S'# coding: utf8\nT.force(\'es\')\nfrom plugin_solidform import SOLIDFORM\n\n@auth.requires(auth.has_membership(\'recepcionista\') or auth.has_membership(\'master\') or auth.has_membership(\'supervisor\') or auth.has_membership(\'analista\'))\ndef listar_correspondencias():\n    links = None \n    fields = [db.correspondencia.nro_de_documento, db.correspondencia.tipo_de_documento,db.correspondencia.fecha_registro,\n              db.correspondencia.estatus,db.correspondencia.remitente,db.correspondencia.destinatario,db.correspondencia.asunto,]\n    orderby = [\'correspondencia.fecha_registro\',] \n    deletable = False\n    editable=True\n    details = True\n    create=True\n    query = ((db.correspondencia.registrado_por==auth.user.id) | (db.correspondencia.asignado_a==auth.user.id))\n    if auth.has_membership(\'master\'):\n        deletable = False\n        editable=False\n        details = True\n        create=True\n        query = db.correspondencia\n    links = [lambda row: A(TAG[\'\'](SPAN(_class="icon icon-list"),SPAN(\'Hist\xc3\xb3rico\', _class="buttontext button", _title="Hist\xc3\xb3rico")), _class="w2p_trap button btn popup", _href=URL(\'ver_historico\', args=[row.id]))\n            ]\n    grid = SQLFORM.grid(query, fields = fields, user_signature=False, deletable=deletable, editable=editable, details = details,create=create, csv=False, orderby = orderby, links = links)\n    return dict(grid = grid)\n\n@auth.requires(auth.has_membership(\'supervisor\'))\ndef listar_correspondencias_departamento(): \n    fields = [db.correspondencia.nro_de_documento,db.correspondencia.fecha_registro,db.correspondencia.estatus,db.correspondencia.remitente,db.correspondencia.destinatario,db.correspondencia.asunto,]\n    orderby = [\'correspondencia.fecha_registro\',] \n    deletable = False\n    editable=True\n    details = True\n    create=True\n    db.correspondencia.nro_de_documento.writable = False\n    db.correspondencia.fecha_registro.writable = False\n    db.correspondencia.tipo_de_documento.writable = False\n    db.correspondencia.remitente.writable = False\n    db.correspondencia.departamento_origen.writable = False\n    db.correspondencia.destinatario.writable = False\n    db.correspondencia.departamento_destino.writable = False\n    db.correspondencia.asunto.writable = False\n    db.correspondencia.registrado_por.writable = False\n    query = (db.correspondencia.departamento_destino==auth.user.departamento)|(db.correspondencia.departamento_origen==auth.user.departamento)\n    grid = SQLFORM.grid(query, fields = fields, user_signature=False, deletable=deletable, editable=editable, details = details,create=create, csv=False, orderby = orderby)\n    return dict(grid = grid)      \n      \n@auth.requires(auth.has_membership(\'master\'))\ndef listar_correspondencias_master(): \n    fields = [db.correspondencia.nro_de_documento,db.correspondencia.fecha_registro,db.correspondencia.estatus,db.correspondencia.remitente,db.correspondencia.destinatario,db.correspondencia.motivo,]\n    orderby = [\'correspondencia.fecha_registro\',] \n    deletable = False\n    editable=True\n    details = True\n    create=True\n    query = (db.correspondencia.registrado_por==auth.user.id)  & (db.correspondencia.asignado_a==auth.user.id) & (db.correspondencia.departamento_origen==auth.user.departamento) & (db.correspondencia.departamento_destino==auth.user.departamento) \n    grid = SQLFORM.grid(query, fields = fields, user_signature=False, deletable=deletable, editable=editable, details = details,create=create, csv=False, orderby = orderby)\n    return dict(grid = grid)\n\n@auth.requires(auth.has_membership(\'recepcionista\') or auth.has_membership(\'master\') or auth.has_membership(\'supervisor\') or auth.has_membership(\'analista\'))\ndef agregar_correspondencia():\n    request_fields = request.vars.fields or \'default\'\n\n################################ The core ######################################\n    # Specify structured fields for the multi-line form layout.\n    # A "None" indicates an empty line over which the precedent line spans\n    if request_fields == \'default\':\n        fields = [\n                  [\'nro_de_documento\', \'fecha_correspondencia\'],\n                  [\'tipo_de_documento\', \'estatus\'],\n                  \'asunto\',\n                  [\'departamento_origen\', \'departamento_destino\'],\n                  [None, None],\n                  [\'remitente\', \'destinatario\'],\n                  [None, \'observaciones\'],\n                  \'asignado_a\'\n                  ]\n    form = SOLIDFORM(db.correspondencia, fields=fields, tabla = auth.archive)\n    if form.process(onsuccess=auth.archive).accepted:\n        session.flash = \'registro procesado con \xc3\xa9xito\'\n        redirect(URL(\'/listar_correspondencias\'))\n    style = STYLE("""input[type="text"], textarea {width:100%; max-height: 50px;}\n                     .w2p_fw {padding-right: 10px; max-width:100%;}\n                     .w2p_fl {background: #eee;}\n                     .string {max-width: 300px;}\n                     .date {max-width: 80px;}""")\n    return dict(form=DIV(style, form),\n                #form__factory=form_factory, form__readonly=form_readonly, form__edit=form_edit,\n                form_args=DIV(A(\'fields=default\', _href=URL(vars={\'fields\': \'default\'})), \' \',\n                               ))\n\n@auth.requires(auth.has_membership(\'recepcionista\') or auth.has_membership(\'master\') or auth.has_membership(\'supervisor\') or auth.has_membership(\'analista\'))\ndef ver_correspondencia():\n    id = request.args(0)\n\n    fields = [\n                  [\'nro_de_documento\', \'fecha_correspondencia\'],\n                  [\'tipo_de_documento\', \'estatus\'],\n                  \'asunto\',\n                  [\'departamento_origen\', \'departamento_destino\'],\n                  [None, None],\n                  [\'remitente\', \'destinatario\'],\n                  [None, \'observaciones\'],\n                  [\'asignado_a\', \'registrado_por\'],\n                  [\'modificado_el\', \'modificado_por\'],\n                  ]\n\n    db.correspondencia.modificado_el.readable = True\n    db.correspondencia.modificado_por.readable = True\n    correspondencia = db(db.correspondencia.id==id).select().first()\n    form = SOLIDFORM(db.correspondencia, correspondencia, fields=fields, showid=False, readonly=True)\n\n    if form.accepts(request.vars, session):\n        session.flash = \'registro procesado con \xc3\xa9xito\'\n        redirect(URL(\'/listar_correspondencias\'))\n     \n    style = STYLE("""input[type="text"], textarea {width:100%; max-height: 50px;}\n                     .w2p_fw {padding-right: 10px; max-width:100%;}\n                     .w2p_fl {background: #eee;}\n                     .string {max-width: 300px;}\n                     .date {max-width: 80px;}""")\n    return dict(id = id, form=DIV(style, form),\n                #form__factory=form_factory, form__readonly=form_readonly, form__edit=form_edit,\n                form_args=DIV(A(\'fields=default\', _href=URL(vars={\'fields\': \'default\'})), \' \',\n\n                               ))\n                              \n@auth.requires(auth.has_membership(\'recepcionista\') or auth.has_membership(\'master\') or auth.has_membership(\'supervisor\') or auth.has_membership(\'analista\'))\ndef editar_correspondencia():\n    id = request.args(0)\n\n    fields = [\n                  [\'nro_de_documento\', \'fecha_correspondencia\'],\n                  [\'tipo_de_documento\', \'estatus\'],\n                  \'asunto\',\n                  [\'departamento_origen\', \'departamento_destino\'],\n                  [None, None],\n                  [\'remitente\', \'destinatario\'],\n                  [None, \'observaciones\'],\n                  [\'asignado_a\'],\n                  \n                  ]\n    #db.correspondencia.modificado_por.writable = True\n    #db.correspondencia.modificado_el.writable = True\n    correspondencia = db(db.correspondencia.id==id).select().first()\n    form = SOLIDFORM(db.correspondencia, correspondencia, fields=fields, showid=False, readonly=False)\n    if form.process(onsuccess=auth.archive).accepted:\n        session.flash = \'registro modificad con \xc3\xa9xito\'\n        redirect(URL(\'/listar_correspondencias\'))\n     \n    style = STYLE("""input[type="text"], textarea {width:100%; max-height: 50px;}\n                     .w2p_fw {padding-right: 10px; max-width:100%;}\n                     .w2p_fl {background: #eee;}\n                     .string {max-width: 300px;}\n                     .date {max-width: 80px;}""")\n    return dict(form=DIV(style, form),\n                #form__factory=form_factory, form__readonly=form_readonly, form__edit=form_edit,\n                form_args=DIV(A(\'fields=default\', _href=URL(vars={\'fields\': \'default\'})), \' \',\n\n                               ))\n\n@auth.requires(auth.has_membership(\'supervisor\'))\ndef ver_correspondencia_departamento():\n    id = request.args(0)\n    fields = [\n                  [\'nro_de_documento\', \'fecha_correspondencia\'],\n                  [\'tipo_de_documento\', \'estatus\'],\n                  \'asunto\',\n                  [\'departamento_origen\', \'departamento_destino\'],\n                  [None, None],\n                  [\'remitente\', \'destinatario\'],\n                  [None, \'observaciones\'],\n                  [\'asignado_a\', \'registrado_por\'],\n                  [\'modificado_el\', \'modificado_por\'],\n                  ]\n    db.correspondencia.nro_de_documento.writable = False\n    db.correspondencia.fecha_registro.writable = False\n    db.correspondencia.tipo_de_documento.writable = False\n    db.correspondencia.remitente.writable = False\n    db.correspondencia.departamento_origen.writable = False\n    db.correspondencia.destinatario.writable = False\n    db.correspondencia.departamento_destino.writable = False\n    db.correspondencia.asunto.writable = False\n    db.correspondencia.registrado_por.writable = False\n    db.correspondencia.modificado_el.readable = True\n    db.correspondencia.modificado_por.readable = True\n    correspondencia = db(db.correspondencia.id==id).select().first()\n    form = SOLIDFORM(db.correspondencia, correspondencia, fields=fields, showid=False, readonly=True)\n\n    if form.accepts(request.vars, session):\n        session.flash = \'registro procesado con \xc3\xa9xito\'\n        redirect(URL(\'/listar_correspondencias\'))\n     \n    style = STYLE("""input[type="text"], textarea {width:100%; max-height: 50px;}\n                     .w2p_fw {padding-right: 10px; max-width:100%;}\n                     .w2p_fl {background: #eee;}\n                     .string {max-width: 300px;}\n                     .date {max-width: 80px;}""")\n    return dict(id = id, form=DIV(style, form),\n                #form__factory=form_factory, form__readonly=form_readonly, form__edit=form_edit,\n                form_args=DIV(A(\'fields=default\', _href=URL(vars={\'fields\': \'default\'})), \' \',\n                               ))\n                              \n@auth.requires(auth.has_membership(\'supervisor\'))\ndef editar_correspondencia_departamento():\n    id = request.args(0)\n\n    fields = [\n                  [\'nro_de_documento\', \'fecha_correspondencia\'],\n                  [\'tipo_de_documento\', \'estatus\'],\n                  \'asunto\',\n                  [\'departamento_origen\', \'departamento_destino\'],\n                  [None, None],\n                  [\'remitente\', \'destinatario\'],\n                  [None, \'observaciones\'],\n                  \'asignado_a\'\n                  ]\n    db.correspondencia.nro_de_documento.writable = False\n    db.correspondencia.fecha_correspondencia.writable = False\n    db.correspondencia.fecha_registro.writable = False\n    db.correspondencia.tipo_de_documento.writable = False\n    db.correspondencia.remitente.writable = False\n    db.correspondencia.departamento_origen.writable = False\n    db.correspondencia.destinatario.writable = False\n    db.correspondencia.departamento_destino.writable = False\n    db.correspondencia.asunto.writable = False\n    db.correspondencia.registrado_por.writable = False\n    correspondencia = db(db.correspondencia.id==id).select().first()\n    form = SOLIDFORM(db.correspondencia, correspondencia, fields=fields, showid=False, readonly=False)\n    form.process(onsuccess=auth.archive)\n    if form.accepts(request.vars, session):\n        session.flash = \'registro procesado con \xc3\xa9xito\'\n        redirect(URL(\'/listar_correspondencias_departamento\'))\n     \n    style = STYLE("""input[type="text"], textarea {width:100%; max-height: 50px;}\n                     .w2p_fw {padding-right: 10px; max-width:100%;}\n                     .w2p_fl {background: #eee;}\n                     .string {max-width: 300px;}\n                     .date {max-width: 80px;}""")\n    return dict(form=DIV(style, form),\n                #form__factory=form_factory, form__readonly=form_readonly, form__edit=form_edit,\n                form_args=DIV(A(\'fields=default\', _href=URL(vars={\'fields\': \'default\'})), \' \',\n                               ))\ndef ver_historico():\n    id_registro = request.args(0)\n    rows_actual = db(db.correspondencia.id==id_registro).select(db.correspondencia.modificado_el,\n                                                                             db.correspondencia.modificado_por,\n                                                                             db.correspondencia.nro_de_documento,\n                                                                             db.correspondencia.tipo_de_documento,\n                                                                             db.estatus.tipo_estatus, \n                                                                             db.correspondencia.remitente,\n                                                                             db.correspondencia.departamento_origen,\n                                                                             db.correspondencia.destinatario,\n                                                                             db.correspondencia.departamento_destino,\n                                                                             db.correspondencia.asunto,\n                                                                             db.correspondencia.observaciones,\n                                                                     left=[db.estatus.on(db.estatus.id==db.correspondencia.estatus)])\n    rows = db(db.correspondencia_archive.current_record==id_registro).select(db.correspondencia_archive.modificado_el,\n                                                                             db.correspondencia_archive.modificado_por,\n                                                                             db.correspondencia_archive.nro_de_documento,\n                                                                             db.correspondencia_archive.tipo_de_documento,\n                                                                             db.estatus.tipo_estatus, \n                                                                             db.correspondencia_archive.remitente,\n                                                                             db.correspondencia_archive.departamento_origen,\n                                                                             db.correspondencia_archive.destinatario,\n                                                                             db.correspondencia_archive.departamento_destino,\n                                                                             db.correspondencia_archive.asunto,\n                                                                             db.correspondencia_archive.observaciones,\n                                                                     left=[db.estatus.on(db.estatus.id==db.correspondencia_archive.estatus)])\n\n    headers = {\'correspondencia_archive.modificado_el\':{\'label\':\'Modificado el\',\n                       \'class\':\'\', #class name of the header\n                       \'width\':\'\', #width in pixels or %\n                       \'truncate\': 16, #truncate the content to...\n                       \'selected\': False #agregate class selected to this column\n                       },\n               \'correspondencia_archive.modificado_por\':{\'label\':\'Modificado por\',\n                            \'class\':\'\', #class name of the header\n                            \'width\':\'\', #width in pixels or %\n                            \'truncate\': 16, #truncate the content to...\n                            \'selected\': False #agregate class selected to this column\n                            },\n               \'correspondencia_archive.nro_de_documento\':{\'label\':\'Nro Documento\',\n                            \'class\':\'\', #class name of the header\n                            \'width\':\'\', #width in pixels or %\n                            \'truncate\': 16, #truncate the content to...\n                            \'selected\': False #agregate class selected to this column\n                            },\n               \'correspondencia_archive.tipo_de_documento\':{\'label\':\'Tipo Documento\',\n                            \'class\':\'\', #class name of the header\n                            \'width\':\'\', #width in pixels or %\n                            \'truncate\': 16, #truncate the content to...\n                            \'selected\': False #agregate class selected to this column\n                            },\n               \'estatus.tipo_estatus\':{\'label\':\'Estatus\',\n                            \'class\':\'\', #class name of the header\n                            \'width\':\'\', #width in pixels or %\n                            \'truncate\': 16, #truncate the content to...\n                            \'selected\': False #agregate class selected to this column\n                            },\n               \'correspondencia_archive.remitente\':{\'label\':\'Remitente\',\n                            \'class\':\'\', #class name of the header\n                            \'width\':\'\', #width in pixels or %\n                            \'truncate\': 50, #truncate the content to...\n                            \'selected\': False #agregate class selected to this column\n                            },\n               \'correspondencia_archive.departamento_origen\':{\'label\':\'Dpto. Origen\',\n                            \'class\':\'\', #class name of the header\n                            \'width\':\'\', #width in pixels or %\n                            \'truncate\': 16, #truncate the content to...\n                            \'selected\': False #agregate class selected to this column\n                            },\n               \'correspondencia_archive.destinatario\':{\'label\':\'Destinatario\',\n                            \'class\':\'\', #class name of the header\n                            \'width\':\'\', #width in pixels or %\n                            \'truncate\': 60, #truncate the content to...\n                            \'selected\': False #agregate class selected to this column\n                            },\n               \'correspondencia_archive.departamento_destino\':{\'label\':\'Depto. Destino\',\n                            \'class\':\'\', #class name of the header\n                            \'width\':\'\', #width in pixels or %\n                            \'truncate\': 16, #truncate the content to...\n                            \'selected\': False #agregate class selected to this column\n                            },\n                \'correspondencia_archive.asunto\':{\'label\':\'Asunto\',\n                            \'class\':\'\', #class name of the header\n                            \'width\':\'15%\', #width in pixels or %\n                            \'truncate\': 50, #truncate the content to...\n                            \'selected\': False #agregate class selected to this column\n                            },\n                \'correspondencia_archive.observaciones\':{\'label\':\'Observaciones\',\n                            \'class\':\'\', #class name of the header\n                            \'width\':\'20%\', #width in pixels or %\n                            \'truncate\': 50, #truncate the content to...\n                            \'selected\': False #agregate class selected to this column\n                            },\n           }\n    tabla = SQLTABLE(rows, headers = headers)\n    tabla_actual = SQLTABLE(rows_actual, truncate = 100)\n    return dict(table=tabla, tabla_actual =tabla_actual,id = id)\n    \n@auth.requires(auth.has_membership(\'recepcionista\') or auth.has_membership(\'master\') or auth.has_membership(\'supervisor\') or auth.has_membership(\'analista\'))\ndef listar_movimientos():\n    links = None \n    fields = [db.correspondencia.nro_de_documento, db.correspondencia.tipo_de_documento,db.correspondencia.fecha_registro,\n              db.correspondencia.estatus,db.correspondencia.remitente,db.correspondencia.destinatario,db.correspondencia.asunto,]\n    orderby = [\'correspondencia.fecha_registro\',] \n    deletable = False\n    editable=True\n    details = True\n    create=True\n    query = ((db.correspondencia.registrado_por==auth.user.id) | (db.correspondencia.asignado_a==auth.user.id) | (db.correspondencia.tipo_de_documento=="movimiento"))\n    links = [lambda row: A(TAG[\'\'](SPAN(_class="icon icon-list"),SPAN(\'Hist\xc3\xb3rico\', _class="buttontext button", _title="Hist\xc3\xb3rico")), _class="w2p_trap button btn popup", _href=URL(\'ver_historico\', args=[row.id]))\n            ]\n    grid = SQLFORM.grid(query, fields = fields, user_signature=False, deletable=deletable, editable=editable, details = details,create=create, csv=False, orderby = orderby, links = links)\n    return dict(grid = grid)\n\nresponse._vars=response._caller(listar_movimientos)\n'
p7
sS'snapshot'
p8
(dp9
sS'traceback'
p10
S'Traceback (most recent call last):\n  File "/home/perdomor/web2py/gluon/restricted.py", line 209, in restricted\n    exec ccode in environment\n  File "/home/perdomor/web2py/applications/sicoin/controllers/correspondencia.py", line 358, in <module>\n  File "/home/perdomor/web2py/gluon/globals.py", line 186, in <lambda>\n    self._caller = lambda f: f()\n  File "/home/perdomor/web2py/gluon/tools.py", line 2809, in f\n    return action(*a, **b)\n  File "/home/perdomor/web2py/applications/sicoin/controllers/correspondencia.py", line 355, in listar_movimientos\n    grid = SQLFORM.grid(query, fields = fields, user_signature=False, deletable=deletable, editable=editable, details = details,create=create, csv=False, orderby = orderby, links = links)\n  File "/home/perdomor/web2py/gluon/sqlhtml.py", line 2006, in grid\n    cacheable=True,*table_fields)\n  File "/home/perdomor/web2py/gluon/dal.py", line 8766, in select\n    return adapter.select(self.query,fields,attributes)\n  File "/home/perdomor/web2py/gluon/dal.py", line 1581, in select\n    sql = self._select(query, fields, attributes)\n  File "/home/perdomor/web2py/gluon/dal.py", line 1444, in _select\n    sql_w = \' WHERE \' + self.expand(query)\n  File "/home/perdomor/web2py/gluon/dal.py", line 1277, in expand\n    return op(first, second)\n  File "/home/perdomor/web2py/gluon/dal.py", line 1163, in OR\n    return \'(%s OR %s)\' % (self.expand(first), self.expand(second))\n  File "/home/perdomor/web2py/gluon/dal.py", line 1277, in expand\n    return op(first, second)\n  File "/home/perdomor/web2py/gluon/dal.py", line 1205, in EQ\n    self.expand(second, first.type))\n  File "/home/perdomor/web2py/gluon/dal.py", line 1287, in expand\n    return str(self.represent(expression,field_type))\n  File "/home/perdomor/web2py/gluon/dal.py", line 1716, in represent\n    return str(int(obj))\nValueError: invalid literal for int() with base 10: \'movimiento\'\n'
p11
s.