(dp1
S'output'
p2
S"<type 'exceptions.NameError'> global name 'correspondencia_archive' is not defined"
p3
sS'layer'
p4
S'/home/perdomor/web2py/applications/sicoin/controllers/correspondencia.py'
p5
sS'code'
p6
S'# coding: utf8\nT.force(\'es\')\nfrom plugin_solidform import SOLIDFORM\n\n@auth.requires(auth.has_membership(\'recepcionista\') or auth.has_membership(\'master\') or auth.has_membership(\'supervisor\') or auth.has_membership(\'analista\'))\ndef listar_correspondencias():\n    session.pag_previa = URL(\'listar_correspondencias\')\n    db.correspondencia.fecha_registro.readable = True\n    links = None \n    fields = [db.correspondencia.nro_de_documento, db.correspondencia.fecha_registro, db.correspondencia.tipo_de_documento,\n              db.correspondencia.estatus,db.correspondencia.remitente,db.correspondencia.destinatario,db.correspondencia.asunto,]\n    orderby = [\'correspondencia.fecha_registro\',] \n    deletable = False\n    editable=True\n    details = True\n    create=True\n    query = ((db.correspondencia.registrado_por==auth.user.id) | (db.correspondencia.asignado_a==auth.user.id))\n    if auth.has_membership(\'master\'):\n        deletable = False\n        editable=False\n        details = True\n        create=True\n        query = db.correspondencia\n    links = [lambda row: A(TAG[\'\'](SPAN(_class="icon icon-list"),SPAN(\'Hist\xc3\xb3rico\', _class="buttontext button", _title="Hist\xc3\xb3rico")), _class="w2p_trap button btn popup", _href=URL(\'ver_historico\', args=[row.id]))\n            ]\n    grid = SQLFORM.grid(query, fields = fields, user_signature=False, selectable= lambda ids: reporte_entregas(ids),deletable=deletable, editable=editable, details = details,create=create, csv=False, orderby = orderby, links = links)\n    return dict(grid = grid)\n\n@auth.requires(auth.has_membership(\'supervisor\'))\ndef listar_correspondencias_departamento():\n    session.pag_previa = URL(\'listar_correspondencias_departamento\') \n    fields = [db.correspondencia.nro_de_documento,db.correspondencia.fecha_registro,db.correspondencia.estatus,db.correspondencia.remitente,db.correspondencia.destinatario,db.correspondencia.asunto,]\n    orderby = [\'correspondencia.fecha_registro\',] \n    deletable = False\n    editable=True\n    details = True\n    create=True\n    db.correspondencia.nro_de_documento.writable = False\n    db.correspondencia.fecha_registro.writable = False\n    db.correspondencia.tipo_de_documento.writable = False\n    db.correspondencia.remitente.writable = False\n    db.correspondencia.departamento_origen.writable = False\n    db.correspondencia.destinatario.writable = False\n    db.correspondencia.departamento_destino.writable = False\n    db.correspondencia.asunto.writable = False\n    db.correspondencia.registrado_por.writable = False\n    query = (db.correspondencia.departamento_destino==auth.user.departamento)|(db.correspondencia.departamento_origen==auth.user.departamento)\n    grid = SQLFORM.grid(query, fields = fields, user_signature=False, deletable=deletable, editable=editable, details = details,create=create, csv=False, orderby = orderby)\n    return dict(grid = grid)      \n      \n@auth.requires(auth.has_membership(\'master\'))\ndef listar_correspondencias_master(): \n    session.pag_previa = URL(\'listar_correspondencias_master\') \n    fields = [db.correspondencia.nro_de_documento,db.correspondencia.fecha_registro,db.correspondencia.estatus,db.correspondencia.remitente,db.correspondencia.destinatario,db.correspondencia.motivo,]\n    orderby = [\'correspondencia.fecha_registro\',] \n    deletable = False\n    editable=True\n    details = True\n    create=True\n    query = (db.correspondencia.registrado_por==auth.user.id)  & (db.correspondencia.asignado_a==auth.user.id) & (db.correspondencia.departamento_origen==auth.user.departamento) & (db.correspondencia.departamento_destino==auth.user.departamento) \n    grid = SQLFORM.grid(query, fields = fields, user_signature=False, deletable=deletable, editable=editable, details = details,create=create, csv=False, orderby = orderby)\n    return dict(grid = grid)\n\n@auth.requires(auth.has_membership(\'recepcionista\') or auth.has_membership(\'master\') or auth.has_membership(\'supervisor\') or auth.has_membership(\'analista\'))\ndef agregar_correspondencia():\n    session.pag_previa = URL(\'agregar_correspondencia\') \n    request_fields = request.vars.fields or \'default\'\n\n################################ The core ######################################\n    # Specify structured fields for the multi-line form layout.\n    # A "None" indicates an empty line over which the precedent line spans\n    if request_fields == \'default\':\n        fields = [\n                  [\'nro_de_documento\', \'fecha_correspondencia\'],\n                  [\'tipo_de_documento\', \'estatus\'],\n                  \'asunto\',\n                  [\'departamento_origen\', \'departamento_destino\'],\n                  [None, None],\n                  [\'remitente\', \'destinatario\'],\n                  [None, \'observaciones\'],\n                  \'asignado_a\'\n                  ]\n    form = SOLIDFORM(db.correspondencia, fields=fields, tabla = auth.archive)\n    if form.process(onsuccess=auth.archive).accepted:\n        session.flash = \'registro procesado con \xc3\xa9xito\'\n        redirect(URL(\'/listar_correspondencias\'))\n    style = STYLE("""input[type="text"], textarea {width:100%; max-height: 50px;}\n                     .w2p_fw {padding-right: 10px; max-width:100%;}\n                     .w2p_fl {background: #eee;}\n                     .string {max-width: 300px;}\n                     .date {max-width: 80px;}""")\n    return dict(form=DIV(style, form),\n                #form__factory=form_factory, form__readonly=form_readonly, form__edit=form_edit,\n                form_args=DIV(A(\'fields=default\', _href=URL(vars={\'fields\': \'default\'})), \' \',\n                               ))\n\n@auth.requires(auth.has_membership(\'recepcionista\') or auth.has_membership(\'master\') or auth.has_membership(\'supervisor\') or auth.has_membership(\'analista\'))\ndef ver_correspondencia():\n    id = request.args(1)\n    tabla = request.args(0)\n    fields = [\n                  [\'nro_de_documento\', \'fecha_correspondencia\'],\n                  [\'tipo_de_documento\', \'estatus\'],\n                  \'asunto\',\n                  [\'departamento_origen\', \'departamento_destino\'],\n                  [None, None],\n                  [\'remitente\', \'destinatario\'],\n                  [None, \'observaciones\'],\n                  [\'asignado_a\', \'registrado_por\'],\n                  #[\'modificado_el\', \'modificado_por\'],\n                  ]\n\n    if (tabla == "activo"):\n        db.correspondencia.modificado_el.readable = True\n        db.correspondencia.modificado_por.readable = True\n        correspondencia = db(db.correspondencia.id==id).select().first()\n        form = SOLIDFORM(db.correspondencia, correspondencia, fields=fields, showid=False, readonly=True)\n    elif (tabla == "archivo"):\n        db.correspondencia_archive.modificado_el.readable = True\n        db.correspondencia_archive.modificado_por.readable = True\n        correspondencia = db(db.correspondencia_archive.id==id).select().first()\n        form = SOLIDFORM(db.correspondencia_archive, correspondencia_archive, fields=fields, showid=False, readonly=True)\n    if form.accepts(request.vars, session):\n        session.flash = \'registro procesado con \xc3\xa9xito\'\n        redirect(URL(\'/listar_correspondencias\'))\n     \n    style = STYLE("""input[type="text"], textarea {width:100%; max-height: 50px;}\n                     .w2p_fw {padding-right: 10px; max-width:100%;}\n                     .w2p_fl {background: #eee;}\n                     .string {max-width: 300px;}\n                     .date {max-width: 80px;}""")\n    return dict(id = id, form=DIV(style, form),\n                #form__factory=form_factory, form__readonly=form_readonly, form__edit=form_edit,\n                form_args=DIV(A(\'fields=default\', _href=URL(vars={\'fields\': \'default\'})), \' \',\n\n                               ))\n                              \n@auth.requires(auth.has_membership(\'recepcionista\') or auth.has_membership(\'master\') or auth.has_membership(\'supervisor\') or auth.has_membership(\'analista\'))\ndef editar_correspondencia():\n    session.pag_previa = URL(\'editar_correspondencia\') \n    id = request.args(0)\n\n    fields = [\n                  [\'nro_de_documento\', \'fecha_correspondencia\'],\n                  [\'tipo_de_documento\', \'estatus\'],\n                  \'asunto\',\n                  [\'departamento_origen\', \'departamento_destino\'],\n                  [None, None],\n                  [\'remitente\', \'destinatario\'],\n                  [None, \'observaciones\'],\n                  [\'asignado_a\'],\n                  \n                  ]\n    #db.correspondencia.modificado_por.writable = True\n    #db.correspondencia.modificado_el.writable = True\n    correspondencia = db(db.correspondencia.id==id).select().first()\n    form = SOLIDFORM(db.correspondencia, correspondencia, fields=fields, showid=False, readonly=False)\n    if form.process(onsuccess=auth.archive).accepted:\n        session.flash = \'registro modificad con \xc3\xa9xito\'\n        redirect(URL(\'/listar_correspondencias\'))\n     \n    style = STYLE("""input[type="text"], textarea {width:100%; max-height: 50px;}\n                     .w2p_fw {padding-right: 10px; max-width:100%;}\n                     .w2p_fl {background: #eee;}\n                     .string {max-width: 300px;}\n                     .date {max-width: 80px;}""")\n    return dict(form=DIV(style, form),\n                #form__factory=form_factory, form__readonly=form_readonly, form__edit=form_edit,\n                form_args=DIV(A(\'fields=default\', _href=URL(vars={\'fields\': \'default\'})), \' \',\n\n                               ))\n\n@auth.requires(auth.has_membership(\'supervisor\'))\ndef ver_correspondencia_departamento():\n    id = request.args(0)\n    fields = [\n                  [\'nro_de_documento\', \'fecha_correspondencia\'],\n                  [\'tipo_de_documento\', \'estatus\'],\n                  \'asunto\',\n                  [\'departamento_origen\', \'departamento_destino\'],\n                  [None, None],\n                  [\'remitente\', \'destinatario\'],\n                  [None, \'observaciones\'],\n                  [\'asignado_a\', \'registrado_por\'],\n                  [\'modificado_el\', \'modificado_por\'],\n                  ]\n    db.correspondencia.nro_de_documento.writable = False\n    db.correspondencia.fecha_registro.writable = False\n    db.correspondencia.tipo_de_documento.writable = False\n    db.correspondencia.remitente.writable = False\n    db.correspondencia.departamento_origen.writable = False\n    db.correspondencia.destinatario.writable = False\n    db.correspondencia.departamento_destino.writable = False\n    db.correspondencia.asunto.writable = False\n    db.correspondencia.registrado_por.writable = False\n    db.correspondencia.modificado_el.readable = True\n    db.correspondencia.modificado_por.readable = True\n    correspondencia = db(db.correspondencia.id==id).select().first()\n    form = SOLIDFORM(db.correspondencia, correspondencia, fields=fields, showid=False, readonly=True)\n\n    if form.accepts(request.vars, session):\n        session.flash = \'registro procesado con \xc3\xa9xito\'\n        redirect(URL(\'/listar_correspondencias\'))\n     \n    style = STYLE("""input[type="text"], textarea {width:100%; max-height: 50px;}\n                     .w2p_fw {padding-right: 10px; max-width:100%;}\n                     .w2p_fl {background: #eee;}\n                     .string {max-width: 300px;}\n                     .date {max-width: 80px;}""")\n    return dict(id = id, form=DIV(style, form),\n                #form__factory=form_factory, form__readonly=form_readonly, form__edit=form_edit,\n                form_args=DIV(A(\'fields=default\', _href=URL(vars={\'fields\': \'default\'})), \' \',\n                               ))\n                              \n@auth.requires(auth.has_membership(\'supervisor\'))\ndef editar_correspondencia_departamento():\n    session.pag_previa = URL(\'editar_correspondencias_departamento\') \n    id = request.args(0)\n\n    fields = [\n                  [\'nro_de_documento\', \'fecha_correspondencia\'],\n                  [\'tipo_de_documento\', \'estatus\'],\n                  \'asunto\',\n                  [\'departamento_origen\', \'departamento_destino\'],\n                  [None, None],\n                  [\'remitente\', \'destinatario\'],\n                  [None, \'observaciones\'],\n                  \'asignado_a\'\n                  ]\n    db.correspondencia.nro_de_documento.writable = False\n    db.correspondencia.fecha_correspondencia.writable = False\n    db.correspondencia.fecha_registro.writable = False\n    db.correspondencia.tipo_de_documento.writable = False\n    db.correspondencia.remitente.writable = False\n    db.correspondencia.departamento_origen.writable = False\n    db.correspondencia.destinatario.writable = False\n    db.correspondencia.departamento_destino.writable = False\n    db.correspondencia.asunto.writable = False\n    db.correspondencia.registrado_por.writable = False\n    correspondencia = db(db.correspondencia.id==id).select().first()\n    form = SOLIDFORM(db.correspondencia, correspondencia, fields=fields, showid=False, readonly=False)\n    form.process(onsuccess=auth.archive)\n    if form.accepts(request.vars, session):\n        session.flash = \'registro procesado con \xc3\xa9xito\'\n        redirect(URL(\'/listar_correspondencias_departamento\'))\n     \n    style = STYLE("""input[type="text"], textarea {width:100%; max-height: 50px;}\n                     .w2p_fw {padding-right: 10px; max-width:100%;}\n                     .w2p_fl {background: #eee;}\n                     .string {max-width: 300px;}\n                     .date {max-width: 80px;}""")\n    return dict(form=DIV(style, form),\n                #form__factory=form_factory, form__readonly=form_readonly, form__edit=form_edit,\n                form_args=DIV(A(\'fields=default\', _href=URL(vars={\'fields\': \'default\'})), \' \',\n                               ))\ndef ver_historico():\n    id_registro = request.args(0)\n    #<a href="/sicoin/correspondencia/ver_correspondencia/4" class="w2p_trap button btn"><span class="icon magnifier icon-zoom-in"></span><span title="View" class="buttontext button">Vista</span></a>\n    db.correspondencia.id.represent= lambda value, row: CENTER(A(TAG[\'\'](SPAN(_class="icon magnifier icon-zoom-in"),SPAN(\'\', _class="buttontext button")),_class="w2p_trap button btn", _href = URL(\'ver_correspondencia/activo\', args = str(value))))                                                                   \n                                                                          \n    rows_actual = db(db.correspondencia.id==id_registro).select(db.correspondencia.modificado_el,\n                                                                             db.correspondencia.modificado_por,\n                                                                             db.correspondencia.nro_de_documento,\n                                                                             db.correspondencia.tipo_de_documento,\n                                                                             db.estatus.tipo_estatus, \n                                                                             db.correspondencia.remitente,\n                                                                             db.correspondencia.departamento_origen,\n                                                                             db.correspondencia.destinatario,\n                                                                             db.correspondencia.departamento_destino,\n                                                                             db.correspondencia.asunto,\n                                                                             db.correspondencia.observaciones,\n                                                                             db.correspondencia.id,\n                                                                     left=[db.estatus.on(db.estatus.id==db.correspondencia.estatus)])\n    db.correspondencia_archive.id.represent= lambda value, row: CENTER(A(TAG[\'\'](SPAN(_class="icon magnifier icon-zoom-in"),SPAN(\'\', _class="buttontext button")),_class="w2p_trap button btn", _href = URL(\'ver_correspondencia/archivo\', args = str(value))))\n    rows = db(db.correspondencia_archive.current_record==id_registro).select(db.correspondencia_archive.modificado_el,\n                                                                             db.correspondencia_archive.modificado_por,\n                                                                             db.correspondencia_archive.nro_de_documento,\n                                                                             db.correspondencia_archive.tipo_de_documento,\n                                                                             db.estatus.tipo_estatus, \n                                                                             db.correspondencia_archive.remitente,\n                                                                             db.correspondencia_archive.departamento_origen,\n                                                                             db.correspondencia_archive.destinatario,\n                                                                             db.correspondencia_archive.departamento_destino,\n                                                                             db.correspondencia_archive.asunto,\n                                                                             db.correspondencia_archive.observaciones,\n                                                                             db.correspondencia_archive.id,\n                                                                     left=[db.estatus.on(db.estatus.id==db.correspondencia_archive.estatus)])\n\n    headers = {\'correspondencia_archive.modificado_el\':{\'label\':\'Modificado el\',\n                       \'class\':\'\', #class name of the header\n                       \'width\':\'\', #width in pixels or %\n                       \'truncate\': 16, #truncate the content to...\n                       \'selected\': False #agregate class selected to this column\n                       },\n               \'correspondencia_archive.modificado_por\':{\'label\':\'Modificado por\',\n                            \'class\':\'\', #class name of the header\n                            \'width\':\'\', #width in pixels or %\n                            \'truncate\': 16, #truncate the content to...\n                            \'selected\': False #agregate class selected to this column\n                            },\n               \'correspondencia_archive.nro_de_documento\':{\'label\':\'Nro Documento\',\n                            \'class\':\'\', #class name of the header\n                            \'width\':\'\', #width in pixels or %\n                            \'truncate\': 16, #truncate the content to...\n                            \'selected\': False #agregate class selected to this column\n                            },\n               \'correspondencia_archive.tipo_de_documento\':{\'label\':\'Tipo Documento\',\n                            \'class\':\'\', #class name of the header\n                            \'width\':\'\', #width in pixels or %\n                            \'truncate\': 16, #truncate the content to...\n                            \'selected\': False #agregate class selected to this column\n                            },\n               \'estatus.tipo_estatus\':{\'label\':\'Estatus\',\n                            \'class\':\'\', #class name of the header\n                            \'width\':\'\', #width in pixels or %\n                            \'truncate\': 16, #truncate the content to...\n                            \'selected\': False #agregate class selected to this column\n                            },\n               \'correspondencia_archive.remitente\':{\'label\':\'Remitente\',\n                            \'class\':\'\', #class name of the header\n                            \'width\':\'\', #width in pixels or %\n                            \'truncate\': 50, #truncate the content to...\n                            \'selected\': False #agregate class selected to this column\n                            },\n               \'correspondencia_archive.departamento_origen\':{\'label\':\'Dpto. Origen\',\n                            \'class\':\'\', #class name of the header\n                            \'width\':\'\', #width in pixels or %\n                            \'truncate\': 16, #truncate the content to...\n                            \'selected\': False #agregate class selected to this column\n                            },\n               \'correspondencia_archive.destinatario\':{\'label\':\'Destinatario\',\n                            \'class\':\'\', #class name of the header\n                            \'width\':\'\', #width in pixels or %\n                            \'truncate\': 60, #truncate the content to...\n                            \'selected\': False #agregate class selected to this column\n                            },\n               \'correspondencia_archive.departamento_destino\':{\'label\':\'Depto. Destino\',\n                            \'class\':\'\', #class name of the header\n                            \'width\':\'\', #width in pixels or %\n                            \'truncate\': 16, #truncate the content to...\n                            \'selected\': False #agregate class selected to this column\n                            },\n                \'correspondencia_archive.asunto\':{\'label\':\'Asunto\',\n                            \'class\':\'\', #class name of the header\n                            \'width\':\'15%\', #width in pixels or %\n                            \'truncate\': 50, #truncate the content to...\n                            \'selected\': False #agregate class selected to this column\n                            },\n                \'correspondencia_archive.observaciones\':{\'label\':\'Observaciones\',\n                            \'class\':\'\', #class name of the header\n                            \'width\':\'20%\', #width in pixels or %\n                            \'truncate\': 50, #truncate the content to...\n                            \'selected\': False #agregate class selected to this column\n                            },\n                \'correspondencia_archive.id\':{\'label\':\'Acci\xc3\xb3n\',\n                            \'class\':\'\', #class name of the header\n                            \'width\':\'10%\', #width in pixels or %\n                            \'truncate\': 50, #truncate the content to...\n                            \'selected\': False, #agregate class selected to this column\n                            \'align\': \'center\'\n                            },\n           }\n    tabla = SQLTABLE(rows, headers = headers)\n    tabla_actual = SQLTABLE(rows_actual, truncate = 100)\n    return dict(table=tabla, tabla_actual =tabla_actual,id = id)\n    \n@auth.requires(auth.has_membership(\'recepcionista\') or auth.has_membership(\'master\') or auth.has_membership(\'supervisor\') or auth.has_membership(\'analista\'))\ndef listar_movimientos():\n    session.pag_previa = URL(\'listar_movimientos\') \n    links = None \n    fields = [db.correspondencia.nro_de_documento, db.correspondencia.tipo_de_documento,db.correspondencia.fecha_registro,\n              db.correspondencia.estatus,db.correspondencia.remitente,db.correspondencia.destinatario,db.correspondencia.asunto,]\n    orderby = [\'correspondencia.fecha_registro\',] \n    deletable = False\n    editable=True\n    details = True\n    create=True\n    documento = db(db.documento.tipo_de_documento=="movimiento").select(db.documento.id).first()\n    id_documento_movimiento = documento[\'id\']\n    query = (((db.correspondencia.registrado_por==auth.user.id) | (db.correspondencia.asignado_a==auth.user.id)) & (db.correspondencia.tipo_de_documento==id_documento_movimiento))\n    links = [lambda row: A(TAG[\'\'](SPAN(_class="icon icon-list"),SPAN(\'Hist\xc3\xb3rico\', _class="buttontext button", _title="Hist\xc3\xb3rico")), _class="w2p_trap button btn popup", _href=URL(\'ver_historico\', args=[row.id]))\n            ]\n    grid = SQLFORM.grid(query, fields = fields, selectable= lambda ids: reporte_entrega_movimiento(ids), user_signature=False, deletable=deletable, editable=editable, details = details,create=create, csv=False, orderby = orderby, links = links)\n    return dict(grid = grid)\n    \ndef reporte_entrega_movimiento(ids):\n    if not ids:\n        session.flash=\'No has seleccionado ninguna correspondencia\'\n    else: \n        #import gluon.contenttype\n        al_reporte=db(db.correspondencia.id.belongs(ids)).select(db.correspondencia.nro_de_documento, db.correspondencia.departamento_destino)\n        headers = {\'correspondencia.nro_de_documento\':{\'label\':\'Nro. Documento\',\n                       \'class\':\'\', #class name of the header\n                       \'width\':\'\', #width in pixels or %\n                       \'truncate\': 16, #truncate the content to...\n                       \'selected\': False #agregate class selected to this column\n                       },\n               \'correspondencia.departamento_destino\':{\'label\':\'Departamento Destino\',\n                            \'class\':\'\', #class name of the header\n                            \'width\':\'\', #width in pixels or %\n                            \'truncate\': 16, #truncate the content to...\n                            \'selected\': False #agregate class selected to this column\n                            },           \n           }\n        tabla_actual = SQLTABLE(al_reporte, truncate = 100, headers = headers)\n        session.reporte_movimiento = tabla_actual\n        session.flash="Reporte Generado"\n        #response.headers[\'Content-Type\']=gluon.contenttype.contenttype(\'.js\')\n        #return \'alert("alerta en javascript");\'\n        #response.render();\n        #session.flash=al_reporte[1]        \n\treturn ()\n\t\ndef reporte_entregas(ids):\n    if not ids:\n        session.flash=\'No has seleccionado ninguna correspondencia\'\n    else: \n        #import gluon.contenttype\n        al_reporte=db(db.correspondencia.id.belongs(ids)).select(db.correspondencia.nro_de_documento, db.correspondencia.departamento_destino)\n        headers = {\'correspondencia.nro_de_documento\':{\'label\':\'Nro. Documento\',\n                       \'class\':\'\', #class name of the header\n                       \'width\':\'\', #width in pixels or %\n                       \'truncate\': 16, #truncate the content to...\n                       \'selected\': False #agregate class selected to this column\n                       },\n               \'correspondencia.departamento_destino\':{\'label\':\'Departamento Destino\',\n                            \'class\':\'\', #class name of the header\n                            \'width\':\'\', #width in pixels or %\n                            \'truncate\': 16, #truncate the content to...\n                            \'selected\': False #agregate class selected to this column\n                            },           \n           }\n        tabla_actual = SQLTABLE(al_reporte, truncate = 100, headers = headers)\n        session.reporte = tabla_actual\n        #response.headers[\'Content-Type\']=gluon.contenttype.contenttype(\'.js\')\n        #return \'alert("alerta en javascript");\'\n        #response.render();\n        #session.flash=al_reporte[1]        \n\treturn ()\n\ndef devolver_mes(mes):\n    if mes == 1:\n        mes= "enero"\n    elif mes == 2:\n        mes= "febrero"\n    elif mes == 3:\n        mes= "marzo"\n    elif mes == 4:\n        mes= "abril"\n    elif mes == 5:\n        mes= "mayo"\n    elif mes == 6:\n        mes= "junio"\n    elif mes == 7:\n        mes= "julio"\n    elif mes == 8:\n        mes= "agosto"\n    elif mes == 9:\n        mes= "septiembre"    \n    elif mes == 10:\n        mes= "octubre"\n    elif mes == 11:\n        mes= "noviembre"\n    else:\n        mes = "diciembre"\n    return mes\n\nresponse._vars=response._caller(ver_correspondencia)\n'
p7
sS'snapshot'
p8
(dp9
S'exception'
p10
(dp11
S'__hash__'
p12
S"<method-wrapper '__hash__' of exceptions.NameError object>"
p13
sS'__setattr__'
p14
S"<method-wrapper '__setattr__' of exceptions.NameError object>"
p15
sS'__reduce_ex__'
p16
S'<built-in method __reduce_ex__ of exceptions.NameError object>'
p17
sS'__getslice__'
p18
S"<method-wrapper '__getslice__' of exceptions.NameError object>"
p19
sS'__getitem__'
p20
S"<method-wrapper '__getitem__' of exceptions.NameError object>"
p21
sS'__setstate__'
p22
S'<built-in method __setstate__ of exceptions.NameError object>'
p23
sS'__reduce__'
p24
S'<built-in method __reduce__ of exceptions.NameError object>'
p25
sS'__str__'
p26
S"<method-wrapper '__str__' of exceptions.NameError object>"
p27
sS'__format__'
p28
S'<built-in method __format__ of exceptions.NameError object>'
p29
sS'__getattribute__'
p30
S"<method-wrapper '__getattribute__' of exceptions.NameError object>"
p31
sS'__class__'
p32
S"<type 'exceptions.NameError'>"
p33
sS'__unicode__'
p34
S'<built-in method __unicode__ of exceptions.NameError object>'
p35
sS'__delattr__'
p36
S"<method-wrapper '__delattr__' of exceptions.NameError object>"
p37
sS'__subclasshook__'
p38
S'<built-in method __subclasshook__ of type object>'
p39
sS'__repr__'
p40
S"<method-wrapper '__repr__' of exceptions.NameError object>"
p41
sS'args'
p42
S'("global name \'correspondencia_archive\' is not defined",)'
p43
sS'__dict__'
p44
S'{}'
p45
sS'__sizeof__'
p46
S'<built-in method __sizeof__ of exceptions.NameError object>'
p47
sS'__doc__'
p48
S"'Name not found globally.'"
p49
sS'__init__'
p50
S"<method-wrapper '__init__' of exceptions.NameError object>"
p51
sS'__new__'
p52
S'<built-in method __new__ of type object>'
p53
ssS'evalue'
p54
S"global name 'correspondencia_archive' is not defined"
p55
sS'request'
p56
ccopy_reg
_reconstructor
p57
(cgluon.html
BEAUTIFY
p58
c__builtin__
object
p59
NtRp60
(dp61
S'attributes'
p62
(dp63
sS'components'
p64
(lp65
g57
(cgluon.html
TABLE
p66
g59
NtRp67
(dp68
g62
(dp69
S'level'
p70
I5
ssS'parent'
p71
Nsg64
(lp72
g57
(cgluon.html
TR
p73
g59
NtRp74
(dp75
g62
(dp76
sg71
g67
sg64
(lp77
g57
(cgluon.html
TD
p78
g59
NtRp79
(dp80
g62
(dp81
S'_style'
p82
S'font-weight:bold;vertical-align:top'
p83
ssg71
g74
sg64
(lp84
S'ajax'
p85
asbag57
(g78
g59
NtRp86
(dp87
g62
(dp88
S'_valign'
p89
S'top'
p90
ssg71
g74
sg64
(lp91
S':'
asbag57
(g78
g59
NtRp92
(dp93
g62
(dp94
sg71
g74
sg64
(lp95
g57
(g58
g59
NtRp96
(dp97
g62
(dp98
g70
I5
ssg71
g92
sg64
(lp99
S'False'
p100
asbasbasbag57
(g73
g59
NtRp101
(dp102
g62
(dp103
sg71
g67
sg64
(lp104
g57
(g78
g59
NtRp105
(dp106
g62
(dp107
g82
g83
ssg71
g101
sg64
(lp108
S'application'
p109
asbag57
(g78
g59
NtRp110
(dp111
g62
(dp112
g89
g90
ssg71
g101
sg64
(lp113
S':'
asbag57
(g78
g59
NtRp114
(dp115
g62
(dp116
sg71
g101
sg64
(lp117
g57
(g58
g59
NtRp118
(dp119
g62
(dp120
g70
I5
ssg71
g114
sg64
(lp121
S'sicoin'
p122
asbasbasbag57
(g73
g59
NtRp123
(dp124
g62
(dp125
sg71
g67
sg64
(lp126
g57
(g78
g59
NtRp127
(dp128
g62
(dp129
g82
g83
ssg71
g123
sg64
(lp130
g42
asbag57
(g78
g59
NtRp131
(dp132
g62
(dp133
g89
g90
ssg71
g123
sg64
(lp134
S':'
asbag57
(g78
g59
NtRp135
(dp136
g62
(dp137
sg71
g123
sg64
(lp138
g57
(g58
g59
NtRp139
(dp140
g62
(dp141
g70
I5
ssg71
g135
sg64
(lp142
g57
(g66
g59
NtRp143
(dp144
g62
(dp145
g70
I4
ssg71
Nsg64
(lp146
g57
(g73
g59
NtRp147
(dp148
g62
(dp149
sg71
g143
sg64
(lp150
g57
(g78
g59
NtRp151
(dp152
g62
(dp153
sg71
g147
sg64
(lp154
g57
(g58
g59
NtRp155
(dp156
g62
(dp157
g70
I4
ssg71
g151
sg64
(lp158
S'archivo'
p159
asbasbasbag57
(g73
g59
NtRp160
(dp161
g62
(dp162
sg71
g143
sg64
(lp163
g57
(g78
g59
NtRp164
(dp165
g62
(dp166
sg71
g160
sg64
(lp167
g57
(g58
g59
NtRp168
(dp169
g62
(dp170
g70
I4
ssg71
g164
sg64
(lp171
S'50'
p172
asbasbasbasbasbasbasbag57
(g73
g59
NtRp173
(dp174
g62
(dp175
sg71
g67
sg64
(lp176
g57
(g78
g59
NtRp177
(dp178
g62
(dp179
g82
g83
ssg71
g173
sg64
(lp180
S'body'
p181
asbag57
(g78
g59
NtRp182
(dp183
g62
(dp184
g89
g90
ssg71
g173
sg64
(lp185
S':'
asbag57
(g78
g59
NtRp186
(dp187
g62
(dp188
sg71
g173
sg64
(lp189
g57
(g58
g59
NtRp190
(dp191
g62
(dp192
g70
I5
ssg71
g186
sg64
(lp193
S'<cStringIO.StringO object at 0xa219780>'
p194
asbasbasbag57
(g73
g59
NtRp195
(dp196
g62
(dp197
sg71
g67
sg64
(lp198
g57
(g78
g59
NtRp199
(dp200
g62
(dp201
g82
g83
ssg71
g195
sg64
(lp202
S'cid'
p203
asbag57
(g78
g59
NtRp204
(dp205
g62
(dp206
g89
g90
ssg71
g195
sg64
(lp207
S':'
asbag57
(g78
g59
NtRp208
(dp209
g62
(dp210
sg71
g195
sg64
(lp211
g57
(g58
g59
NtRp212
(dp213
g62
(dp214
g70
I5
ssg71
g208
sg64
(lp215
S'None'
p216
asbasbasbag57
(g73
g59
NtRp217
(dp218
g62
(dp219
sg71
g67
sg64
(lp220
g57
(g78
g59
NtRp221
(dp222
g62
(dp223
g82
g83
ssg71
g217
sg64
(lp224
S'client'
p225
asbag57
(g78
g59
NtRp226
(dp227
g62
(dp228
g89
g90
ssg71
g217
sg64
(lp229
S':'
asbag57
(g78
g59
NtRp230
(dp231
g62
(dp232
sg71
g217
sg64
(lp233
g57
(g58
g59
NtRp234
(dp235
g62
(dp236
g70
I5
ssg71
g230
sg64
(lp237
S'190.169.221.43'
p238
asbasbasbag57
(g73
g59
NtRp239
(dp240
g62
(dp241
sg71
g67
sg64
(lp242
g57
(g78
g59
NtRp243
(dp244
g62
(dp245
g82
g83
ssg71
g239
sg64
(lp246
S'controller'
p247
asbag57
(g78
g59
NtRp248
(dp249
g62
(dp250
g89
g90
ssg71
g239
sg64
(lp251
S':'
asbag57
(g78
g59
NtRp252
(dp253
g62
(dp254
sg71
g239
sg64
(lp255
g57
(g58
g59
NtRp256
(dp257
g62
(dp258
g70
I5
ssg71
g252
sg64
(lp259
S'correspondencia'
p260
asbasbasbag57
(g73
g59
NtRp261
(dp262
g62
(dp263
sg71
g67
sg64
(lp264
g57
(g78
g59
NtRp265
(dp266
g62
(dp267
g82
g83
ssg71
g261
sg64
(lp268
S'cookies'
p269
asbag57
(g78
g59
NtRp270
(dp271
g62
(dp272
g89
g90
ssg71
g261
sg64
(lp273
S':'
asbag57
(g78
g59
NtRp274
(dp275
g62
(dp276
sg71
g261
sg64
(lp277
g57
(g58
g59
NtRp278
(dp279
g62
(dp280
g70
I5
ssg71
g274
sg64
(lp281
g57
(g66
g59
NtRp282
(dp283
g62
(dp284
g70
I4
ssg71
Nsg64
(lp285
g57
(g73
g59
NtRp286
(dp287
g62
(dp288
sg71
g282
sg64
(lp289
g57
(g78
g59
NtRp290
(dp291
g62
(dp292
g82
g83
ssg71
g286
sg64
(lp293
S'session_id_admin'
p294
asbag57
(g78
g59
NtRp295
(dp296
g62
(dp297
g89
g90
ssg71
g286
sg64
(lp298
S':'
asbag57
(g78
g59
NtRp299
(dp300
g62
(dp301
sg71
g286
sg64
(lp302
g57
(g58
g59
NtRp303
(dp304
g62
(dp305
g70
I4
ssg71
g299
sg64
(lp306
S'190.169.221.43-fe9ebb43-03da-4d7a-9830-9a26d1c68f0d'
p307
ag57
(g66
g59
NtRp308
(dp309
g62
(dp310
g70
I3
ssg71
Nsg64
(lp311
g57
(g73
g59
NtRp312
(dp313
g62
(dp314
sg71
g308
sg64
(lp315
g57
(g78
g59
NtRp316
(dp317
g62
(dp318
g82
g83
ssg71
g312
sg64
(lp319
S'comment'
p320
asbag57
(g78
g59
NtRp321
(dp322
g62
(dp323
g89
g90
ssg71
g312
sg64
(lp324
S':'
asbag57
(g78
g59
NtRp325
(dp326
g62
(dp327
sg71
g312
sg64
(lp328
g57
(g58
g59
NtRp329
(dp330
g62
(dp331
g70
I3
ssg71
g325
sg64
(lp332
S''
asbasbasbag57
(g73
g59
NtRp333
(dp334
g62
(dp335
sg71
g308
sg64
(lp336
g57
(g78
g59
NtRp337
(dp338
g62
(dp339
g82
g83
ssg71
g333
sg64
(lp340
S'domain'
p341
asbag57
(g78
g59
NtRp342
(dp343
g62
(dp344
g89
g90
ssg71
g333
sg64
(lp345
S':'
asbag57
(g78
g59
NtRp346
(dp347
g62
(dp348
sg71
g333
sg64
(lp349
g57
(g58
g59
NtRp350
(dp351
g62
(dp352
g70
I3
ssg71
g346
sg64
(lp353
S''
asbasbasbag57
(g73
g59
NtRp354
(dp355
g62
(dp356
sg71
g308
sg64
(lp357
g57
(g78
g59
NtRp358
(dp359
g62
(dp360
g82
g83
ssg71
g354
sg64
(lp361
S'expires'
p362
asbag57
(g78
g59
NtRp363
(dp364
g62
(dp365
g89
g90
ssg71
g354
sg64
(lp366
S':'
asbag57
(g78
g59
NtRp367
(dp368
g62
(dp369
sg71
g354
sg64
(lp370
g57
(g58
g59
NtRp371
(dp372
g62
(dp373
g70
I3
ssg71
g367
sg64
(lp374
S''
asbasbasbag57
(g73
g59
NtRp375
(dp376
g62
(dp377
sg71
g308
sg64
(lp378
g57
(g78
g59
NtRp379
(dp380
g62
(dp381
g82
g83
ssg71
g375
sg64
(lp382
S'httponly'
p383
asbag57
(g78
g59
NtRp384
(dp385
g62
(dp386
g89
g90
ssg71
g375
sg64
(lp387
S':'
asbag57
(g78
g59
NtRp388
(dp389
g62
(dp390
sg71
g375
sg64
(lp391
g57
(g58
g59
NtRp392
(dp393
g62
(dp394
g70
I3
ssg71
g388
sg64
(lp395
S''
asbasbasbag57
(g73
g59
NtRp396
(dp397
g62
(dp398
sg71
g308
sg64
(lp399
g57
(g78
g59
NtRp400
(dp401
g62
(dp402
g82
g83
ssg71
g396
sg64
(lp403
S'max-age'
p404
asbag57
(g78
g59
NtRp405
(dp406
g62
(dp407
g89
g90
ssg71
g396
sg64
(lp408
S':'
asbag57
(g78
g59
NtRp409
(dp410
g62
(dp411
sg71
g396
sg64
(lp412
g57
(g58
g59
NtRp413
(dp414
g62
(dp415
g70
I3
ssg71
g409
sg64
(lp416
S''
asbasbasbag57
(g73
g59
NtRp417
(dp418
g62
(dp419
sg71
g308
sg64
(lp420
g57
(g78
g59
NtRp421
(dp422
g62
(dp423
g82
g83
ssg71
g417
sg64
(lp424
S'path'
p425
asbag57
(g78
g59
NtRp426
(dp427
g62
(dp428
g89
g90
ssg71
g417
sg64
(lp429
S':'
asbag57
(g78
g59
NtRp430
(dp431
g62
(dp432
sg71
g417
sg64
(lp433
g57
(g58
g59
NtRp434
(dp435
g62
(dp436
g70
I3
ssg71
g430
sg64
(lp437
S''
asbasbasbag57
(g73
g59
NtRp438
(dp439
g62
(dp440
sg71
g308
sg64
(lp441
g57
(g78
g59
NtRp442
(dp443
g62
(dp444
g82
g83
ssg71
g438
sg64
(lp445
S'secure'
p446
asbag57
(g78
g59
NtRp447
(dp448
g62
(dp449
g89
g90
ssg71
g438
sg64
(lp450
S':'
asbag57
(g78
g59
NtRp451
(dp452
g62
(dp453
sg71
g438
sg64
(lp454
g57
(g58
g59
NtRp455
(dp456
g62
(dp457
g70
I3
ssg71
g451
sg64
(lp458
S''
asbasbasbag57
(g73
g59
NtRp459
(dp460
g62
(dp461
sg71
g308
sg64
(lp462
g57
(g78
g59
NtRp463
(dp464
g62
(dp465
g82
g83
ssg71
g459
sg64
(lp466
S'version'
p467
asbag57
(g78
g59
NtRp468
(dp469
g62
(dp470
g89
g90
ssg71
g459
sg64
(lp471
S':'
asbag57
(g78
g59
NtRp472
(dp473
g62
(dp474
sg71
g459
sg64
(lp475
g57
(g58
g59
NtRp476
(dp477
g62
(dp478
g70
I3
ssg71
g472
sg64
(lp479
S''
asbasbasbasbasbasbasbag57
(g73
g59
NtRp480
(dp481
g62
(dp482
sg71
g282
sg64
(lp483
g57
(g78
g59
NtRp484
(dp485
g62
(dp486
g82
g83
ssg71
g480
sg64
(lp487
S'session_id_sicoin'
p488
asbag57
(g78
g59
NtRp489
(dp490
g62
(dp491
g89
g90
ssg71
g480
sg64
(lp492
S':'
asbag57
(g78
g59
NtRp493
(dp494
g62
(dp495
sg71
g480
sg64
(lp496
g57
(g58
g59
NtRp497
(dp498
g62
(dp499
g70
I4
ssg71
g493
sg64
(lp500
S'190.169.221.43-4bf54bc6-bde9-44cd-9e28-66aa110b1858'
p501
ag57
(g66
g59
NtRp502
(dp503
g62
(dp504
g70
I3
ssg71
Nsg64
(lp505
g57
(g73
g59
NtRp506
(dp507
g62
(dp508
sg71
g502
sg64
(lp509
g57
(g78
g59
NtRp510
(dp511
g62
(dp512
g82
g83
ssg71
g506
sg64
(lp513
g320
asbag57
(g78
g59
NtRp514
(dp515
g62
(dp516
g89
g90
ssg71
g506
sg64
(lp517
S':'
asbag57
(g78
g59
NtRp518
(dp519
g62
(dp520
sg71
g506
sg64
(lp521
g57
(g58
g59
NtRp522
(dp523
g62
(dp524
g70
I3
ssg71
g518
sg64
(lp525
S''
asbasbasbag57
(g73
g59
NtRp526
(dp527
g62
(dp528
sg71
g502
sg64
(lp529
g57
(g78
g59
NtRp530
(dp531
g62
(dp532
g82
g83
ssg71
g526
sg64
(lp533
g341
asbag57
(g78
g59
NtRp534
(dp535
g62
(dp536
g89
g90
ssg71
g526
sg64
(lp537
S':'
asbag57
(g78
g59
NtRp538
(dp539
g62
(dp540
sg71
g526
sg64
(lp541
g57
(g58
g59
NtRp542
(dp543
g62
(dp544
g70
I3
ssg71
g538
sg64
(lp545
S''
asbasbasbag57
(g73
g59
NtRp546
(dp547
g62
(dp548
sg71
g502
sg64
(lp549
g57
(g78
g59
NtRp550
(dp551
g62
(dp552
g82
g83
ssg71
g546
sg64
(lp553
g362
asbag57
(g78
g59
NtRp554
(dp555
g62
(dp556
g89
g90
ssg71
g546
sg64
(lp557
S':'
asbag57
(g78
g59
NtRp558
(dp559
g62
(dp560
sg71
g546
sg64
(lp561
g57
(g58
g59
NtRp562
(dp563
g62
(dp564
g70
I3
ssg71
g558
sg64
(lp565
S''
asbasbasbag57
(g73
g59
NtRp566
(dp567
g62
(dp568
sg71
g502
sg64
(lp569
g57
(g78
g59
NtRp570
(dp571
g62
(dp572
g82
g83
ssg71
g566
sg64
(lp573
g383
asbag57
(g78
g59
NtRp574
(dp575
g62
(dp576
g89
g90
ssg71
g566
sg64
(lp577
S':'
asbag57
(g78
g59
NtRp578
(dp579
g62
(dp580
sg71
g566
sg64
(lp581
g57
(g58
g59
NtRp582
(dp583
g62
(dp584
g70
I3
ssg71
g578
sg64
(lp585
S''
asbasbasbag57
(g73
g59
NtRp586
(dp587
g62
(dp588
sg71
g502
sg64
(lp589
g57
(g78
g59
NtRp590
(dp591
g62
(dp592
g82
g83
ssg71
g586
sg64
(lp593
g404
asbag57
(g78
g59
NtRp594
(dp595
g62
(dp596
g89
g90
ssg71
g586
sg64
(lp597
S':'
asbag57
(g78
g59
NtRp598
(dp599
g62
(dp600
sg71
g586
sg64
(lp601
g57
(g58
g59
NtRp602
(dp603
g62
(dp604
g70
I3
ssg71
g598
sg64
(lp605
S''
asbasbasbag57
(g73
g59
NtRp606
(dp607
g62
(dp608
sg71
g502
sg64
(lp609
g57
(g78
g59
NtRp610
(dp611
g62
(dp612
g82
g83
ssg71
g606
sg64
(lp613
g425
asbag57
(g78
g59
NtRp614
(dp615
g62
(dp616
g89
g90
ssg71
g606
sg64
(lp617
S':'
asbag57
(g78
g59
NtRp618
(dp619
g62
(dp620
sg71
g606
sg64
(lp621
g57
(g58
g59
NtRp622
(dp623
g62
(dp624
g70
I3
ssg71
g618
sg64
(lp625
S''
asbasbasbag57
(g73
g59
NtRp626
(dp627
g62
(dp628
sg71
g502
sg64
(lp629
g57
(g78
g59
NtRp630
(dp631
g62
(dp632
g82
g83
ssg71
g626
sg64
(lp633
g446
asbag57
(g78
g59
NtRp634
(dp635
g62
(dp636
g89
g90
ssg71
g626
sg64
(lp637
S':'
asbag57
(g78
g59
NtRp638
(dp639
g62
(dp640
sg71
g626
sg64
(lp641
g57
(g58
g59
NtRp642
(dp643
g62
(dp644
g70
I3
ssg71
g638
sg64
(lp645
S''
asbasbasbag57
(g73
g59
NtRp646
(dp647
g62
(dp648
sg71
g502
sg64
(lp649
g57
(g78
g59
NtRp650
(dp651
g62
(dp652
g82
g83
ssg71
g646
sg64
(lp653
g467
asbag57
(g78
g59
NtRp654
(dp655
g62
(dp656
g89
g90
ssg71
g646
sg64
(lp657
S':'
asbag57
(g78
g59
NtRp658
(dp659
g62
(dp660
sg71
g646
sg64
(lp661
g57
(g58
g59
NtRp662
(dp663
g62
(dp664
g70
I3
ssg71
g658
sg64
(lp665
S''
asbasbasbasbasbasbasbag57
(g73
g59
NtRp666
(dp667
g62
(dp668
sg71
g282
sg64
(lp669
g57
(g78
g59
NtRp670
(dp671
g62
(dp672
g82
g83
ssg71
g666
sg64
(lp673
S'session_id_welcome'
p674
asbag57
(g78
g59
NtRp675
(dp676
g62
(dp677
g89
g90
ssg71
g666
sg64
(lp678
S':'
asbag57
(g78
g59
NtRp679
(dp680
g62
(dp681
sg71
g666
sg64
(lp682
g57
(g58
g59
NtRp683
(dp684
g62
(dp685
g70
I4
ssg71
g679
sg64
(lp686
S'190.169.221.43-d92b31ba-753f-4f64-985e-f8b1af5b5f88'
p687
ag57
(g66
g59
NtRp688
(dp689
g62
(dp690
g70
I3
ssg71
Nsg64
(lp691
g57
(g73
g59
NtRp692
(dp693
g62
(dp694
sg71
g688
sg64
(lp695
g57
(g78
g59
NtRp696
(dp697
g62
(dp698
g82
g83
ssg71
g692
sg64
(lp699
g320
asbag57
(g78
g59
NtRp700
(dp701
g62
(dp702
g89
g90
ssg71
g692
sg64
(lp703
S':'
asbag57
(g78
g59
NtRp704
(dp705
g62
(dp706
sg71
g692
sg64
(lp707
g57
(g58
g59
NtRp708
(dp709
g62
(dp710
g70
I3
ssg71
g704
sg64
(lp711
S''
asbasbasbag57
(g73
g59
NtRp712
(dp713
g62
(dp714
sg71
g688
sg64
(lp715
g57
(g78
g59
NtRp716
(dp717
g62
(dp718
g82
g83
ssg71
g712
sg64
(lp719
g341
asbag57
(g78
g59
NtRp720
(dp721
g62
(dp722
g89
g90
ssg71
g712
sg64
(lp723
S':'
asbag57
(g78
g59
NtRp724
(dp725
g62
(dp726
sg71
g712
sg64
(lp727
g57
(g58
g59
NtRp728
(dp729
g62
(dp730
g70
I3
ssg71
g724
sg64
(lp731
S''
asbasbasbag57
(g73
g59
NtRp732
(dp733
g62
(dp734
sg71
g688
sg64
(lp735
g57
(g78
g59
NtRp736
(dp737
g62
(dp738
g82
g83
ssg71
g732
sg64
(lp739
g362
asbag57
(g78
g59
NtRp740
(dp741
g62
(dp742
g89
g90
ssg71
g732
sg64
(lp743
S':'
asbag57
(g78
g59
NtRp744
(dp745
g62
(dp746
sg71
g732
sg64
(lp747
g57
(g58
g59
NtRp748
(dp749
g62
(dp750
g70
I3
ssg71
g744
sg64
(lp751
S''
asbasbasbag57
(g73
g59
NtRp752
(dp753
g62
(dp754
sg71
g688
sg64
(lp755
g57
(g78
g59
NtRp756
(dp757
g62
(dp758
g82
g83
ssg71
g752
sg64
(lp759
g383
asbag57
(g78
g59
NtRp760
(dp761
g62
(dp762
g89
g90
ssg71
g752
sg64
(lp763
S':'
asbag57
(g78
g59
NtRp764
(dp765
g62
(dp766
sg71
g752
sg64
(lp767
g57
(g58
g59
NtRp768
(dp769
g62
(dp770
g70
I3
ssg71
g764
sg64
(lp771
S''
asbasbasbag57
(g73
g59
NtRp772
(dp773
g62
(dp774
sg71
g688
sg64
(lp775
g57
(g78
g59
NtRp776
(dp777
g62
(dp778
g82
g83
ssg71
g772
sg64
(lp779
g404
asbag57
(g78
g59
NtRp780
(dp781
g62
(dp782
g89
g90
ssg71
g772
sg64
(lp783
S':'
asbag57
(g78
g59
NtRp784
(dp785
g62
(dp786
sg71
g772
sg64
(lp787
g57
(g58
g59
NtRp788
(dp789
g62
(dp790
g70
I3
ssg71
g784
sg64
(lp791
S''
asbasbasbag57
(g73
g59
NtRp792
(dp793
g62
(dp794
sg71
g688
sg64
(lp795
g57
(g78
g59
NtRp796
(dp797
g62
(dp798
g82
g83
ssg71
g792
sg64
(lp799
g425
asbag57
(g78
g59
NtRp800
(dp801
g62
(dp802
g89
g90
ssg71
g792
sg64
(lp803
S':'
asbag57
(g78
g59
NtRp804
(dp805
g62
(dp806
sg71
g792
sg64
(lp807
g57
(g58
g59
NtRp808
(dp809
g62
(dp810
g70
I3
ssg71
g804
sg64
(lp811
S''
asbasbasbag57
(g73
g59
NtRp812
(dp813
g62
(dp814
sg71
g688
sg64
(lp815
g57
(g78
g59
NtRp816
(dp817
g62
(dp818
g82
g83
ssg71
g812
sg64
(lp819
g446
asbag57
(g78
g59
NtRp820
(dp821
g62
(dp822
g89
g90
ssg71
g812
sg64
(lp823
S':'
asbag57
(g78
g59
NtRp824
(dp825
g62
(dp826
sg71
g812
sg64
(lp827
g57
(g58
g59
NtRp828
(dp829
g62
(dp830
g70
I3
ssg71
g824
sg64
(lp831
S''
asbasbasbag57
(g73
g59
NtRp832
(dp833
g62
(dp834
sg71
g688
sg64
(lp835
g57
(g78
g59
NtRp836
(dp837
g62
(dp838
g82
g83
ssg71
g832
sg64
(lp839
g467
asbag57
(g78
g59
NtRp840
(dp841
g62
(dp842
g89
g90
ssg71
g832
sg64
(lp843
S':'
asbag57
(g78
g59
NtRp844
(dp845
g62
(dp846
sg71
g832
sg64
(lp847
g57
(g58
g59
NtRp848
(dp849
g62
(dp850
g70
I3
ssg71
g844
sg64
(lp851
S''
asbasbasbasbasbasbasbasbasbasbasbag57
(g73
g59
NtRp852
(dp853
g62
(dp854
sg71
g67
sg64
(lp855
g57
(g78
g59
NtRp856
(dp857
g62
(dp858
g82
g83
ssg71
g852
sg64
(lp859
S'env'
p860
asbag57
(g78
g59
NtRp861
(dp862
g62
(dp863
g89
g90
ssg71
g852
sg64
(lp864
S':'
asbag57
(g78
g59
NtRp865
(dp866
g62
(dp867
sg71
g852
sg64
(lp868
g57
(g58
g59
NtRp869
(dp870
g62
(dp871
g70
I5
ssg71
g865
sg64
(lp872
g57
(g66
g59
NtRp873
(dp874
g62
(dp875
g70
I4
ssg71
Nsg64
(lp876
g57
(g73
g59
NtRp877
(dp878
g62
(dp879
sg71
g873
sg64
(lp880
g57
(g78
g59
NtRp881
(dp882
g62
(dp883
g82
g83
ssg71
g877
sg64
(lp884
S'app_folders'
p885
asbag57
(g78
g59
NtRp886
(dp887
g62
(dp888
g89
g90
ssg71
g877
sg64
(lp889
S':'
asbag57
(g78
g59
NtRp890
(dp891
g62
(dp892
sg71
g877
sg64
(lp893
g57
(g58
g59
NtRp894
(dp895
g62
(dp896
g70
I4
ssg71
g890
sg64
(lp897
S"set(['/home/perdomor/web2py/applications/sicoin/', '/home/perdomor/web2py/applications/admin/'])"
p898
asbasbasbag57
(g73
g59
NtRp899
(dp900
g62
(dp901
sg71
g873
sg64
(lp902
g57
(g78
g59
NtRp903
(dp904
g62
(dp905
g82
g83
ssg71
g899
sg64
(lp906
S'applications_parent'
p907
asbag57
(g78
g59
NtRp908
(dp909
g62
(dp910
g89
g90
ssg71
g899
sg64
(lp911
S':'
asbag57
(g78
g59
NtRp912
(dp913
g62
(dp914
sg71
g899
sg64
(lp915
g57
(g58
g59
NtRp916
(dp917
g62
(dp918
g70
I4
ssg71
g912
sg64
(lp919
S'/home/perdomor/web2py'
p920
asbasbasbag57
(g73
g59
NtRp921
(dp922
g62
(dp923
sg71
g873
sg64
(lp924
g57
(g78
g59
NtRp925
(dp926
g62
(dp927
g82
g83
ssg71
g921
sg64
(lp928
S'cmd_args'
p929
asbag57
(g78
g59
NtRp930
(dp931
g62
(dp932
g89
g90
ssg71
g921
sg64
(lp933
S':'
asbag57
(g78
g59
NtRp934
(dp935
g62
(dp936
sg71
g921
sg64
(lp937
g57
(g58
g59
NtRp938
(dp939
g62
(dp940
g70
I4
ssg71
g934
sg64
(lp941
g57
(g66
g59
NtRp942
(dp943
g62
(dp944
g70
I3
ssg71
Nsg64
(lp945
sbasbasbasbag57
(g73
g59
NtRp946
(dp947
g62
(dp948
sg71
g873
sg64
(lp949
g57
(g78
g59
NtRp950
(dp951
g62
(dp952
g82
g83
ssg71
g946
sg64
(lp953
S'cmd_options'
p954
asbag57
(g78
g59
NtRp955
(dp956
g62
(dp957
g89
g90
ssg71
g946
sg64
(lp958
S':'
asbag57
(g78
g59
NtRp959
(dp960
g62
(dp961
sg71
g946
sg64
(lp962
g57
(g58
g59
NtRp963
(dp964
g62
(dp965
g70
I4
ssg71
g959
sg64
(lp966
S"<Values at 0x9bb09cc: {'verbose': False, 'ip': '190.169.221.43', 'with_scheduler': False, 'ips': ['127.0.1.1'], 'shutdown_timeout': 5, 'taskbar': False, 'port': 8080, 'maxthreads': None, 'softcron': False, 'server_name': 'perdomor', 'bpython': False, 'nogui': False, 'nocron': False, 'extcron': False, 'run_system_tests': False, 'test': None, 'folder': '/home/perdomor/web2py', 'config': '', 'import_models': False, 'winservice': '', 'shell': None, 'run': '', 'log_filename': 'httpserver.log', 'debuglevel': 30, 'args': [''], 'socket_timeout': 5, 'ssl_ca_certificate': None, 'scheduler': None, 'profiler_filename': None, 'ssl_private_key': '', 'scheduler_groups': None, 'password': '12345', 'request_queue_size': 5, 'ssl_certificate': '', 'cronjob': False, 'numthreads': None, 'quiet': False, 'interfaces': None, 'minthreads': None, 'timeout': 10, 'plain': False, 'nobanner': False, 'pid_filename': 'httpserver.pid'}>"
p967
asbasbasbag57
(g73
g59
NtRp968
(dp969
g62
(dp970
sg71
g873
sg64
(lp971
g57
(g78
g59
NtRp972
(dp973
g62
(dp974
g82
g83
ssg71
g968
sg64
(lp975
S'db_sessions'
p976
asbag57
(g78
g59
NtRp977
(dp978
g62
(dp979
g89
g90
ssg71
g968
sg64
(lp980
S':'
asbag57
(g78
g59
NtRp981
(dp982
g62
(dp983
sg71
g968
sg64
(lp984
g57
(g58
g59
NtRp985
(dp986
g62
(dp987
g70
I4
ssg71
g981
sg64
(lp988
S'set([])'
p989
asbasbasbag57
(g73
g59
NtRp990
(dp991
g62
(dp992
sg71
g873
sg64
(lp993
g57
(g78
g59
NtRp994
(dp995
g62
(dp996
g82
g83
ssg71
g990
sg64
(lp997
S'debugging'
p998
asbag57
(g78
g59
NtRp999
(dp1000
g62
(dp1001
g89
g90
ssg71
g990
sg64
(lp1002
S':'
asbag57
(g78
g59
NtRp1003
(dp1004
g62
(dp1005
sg71
g990
sg64
(lp1006
g57
(g58
g59
NtRp1007
(dp1008
g62
(dp1009
g70
I4
ssg71
g1003
sg64
(lp1010
g100
asbasbasbag57
(g73
g59
NtRp1011
(dp1012
g62
(dp1013
sg71
g873
sg64
(lp1014
g57
(g78
g59
NtRp1015
(dp1016
g62
(dp1017
g82
g83
ssg71
g1011
sg64
(lp1018
S'gluon_parent'
p1019
asbag57
(g78
g59
NtRp1020
(dp1021
g62
(dp1022
g89
g90
ssg71
g1011
sg64
(lp1023
S':'
asbag57
(g78
g59
NtRp1024
(dp1025
g62
(dp1026
sg71
g1011
sg64
(lp1027
g57
(g58
g59
NtRp1028
(dp1029
g62
(dp1030
g70
I4
ssg71
g1024
sg64
(lp1031
S'/home/perdomor/web2py'
p1032
asbasbasbag57
(g73
g59
NtRp1033
(dp1034
g62
(dp1035
sg71
g873
sg64
(lp1036
g57
(g78
g59
NtRp1037
(dp1038
g62
(dp1039
g82
g83
ssg71
g1033
sg64
(lp1040
S'http_accept'
p1041
asbag57
(g78
g59
NtRp1042
(dp1043
g62
(dp1044
g89
g90
ssg71
g1033
sg64
(lp1045
S':'
asbag57
(g78
g59
NtRp1046
(dp1047
g62
(dp1048
sg71
g1033
sg64
(lp1049
g57
(g58
g59
NtRp1050
(dp1051
g62
(dp1052
g70
I4
ssg71
g1046
sg64
(lp1053
S'text/html,application/xhtml+xml,application/xml;q=0.9,*/*;q=0.8'
p1054
asbasbasbag57
(g73
g59
NtRp1055
(dp1056
g62
(dp1057
sg71
g873
sg64
(lp1058
g57
(g78
g59
NtRp1059
(dp1060
g62
(dp1061
g82
g83
ssg71
g1055
sg64
(lp1062
S'http_accept_encoding'
p1063
asbag57
(g78
g59
NtRp1064
(dp1065
g62
(dp1066
g89
g90
ssg71
g1055
sg64
(lp1067
S':'
asbag57
(g78
g59
NtRp1068
(dp1069
g62
(dp1070
sg71
g1055
sg64
(lp1071
g57
(g58
g59
NtRp1072
(dp1073
g62
(dp1074
g70
I4
ssg71
g1068
sg64
(lp1075
S'gzip, deflate'
p1076
asbasbasbag57
(g73
g59
NtRp1077
(dp1078
g62
(dp1079
sg71
g873
sg64
(lp1080
g57
(g78
g59
NtRp1081
(dp1082
g62
(dp1083
g82
g83
ssg71
g1077
sg64
(lp1084
S'http_accept_language'
p1085
asbag57
(g78
g59
NtRp1086
(dp1087
g62
(dp1088
g89
g90
ssg71
g1077
sg64
(lp1089
S':'
asbag57
(g78
g59
NtRp1090
(dp1091
g62
(dp1092
sg71
g1077
sg64
(lp1093
g57
(g58
g59
NtRp1094
(dp1095
g62
(dp1096
g70
I4
ssg71
g1090
sg64
(lp1097
S'es-es,es;q=0.8,en-us;q=0.5,en;q=0.3'
p1098
asbasbasbag57
(g73
g59
NtRp1099
(dp1100
g62
(dp1101
sg71
g873
sg64
(lp1102
g57
(g78
g59
NtRp1103
(dp1104
g62
(dp1105
g82
g83
ssg71
g1099
sg64
(lp1106
S'http_connection'
p1107
asbag57
(g78
g59
NtRp1108
(dp1109
g62
(dp1110
g89
g90
ssg71
g1099
sg64
(lp1111
S':'
asbag57
(g78
g59
NtRp1112
(dp1113
g62
(dp1114
sg71
g1099
sg64
(lp1115
g57
(g58
g59
NtRp1116
(dp1117
g62
(dp1118
g70
I4
ssg71
g1112
sg64
(lp1119
S'keep-alive'
p1120
asbasbasbag57
(g73
g59
NtRp1121
(dp1122
g62
(dp1123
sg71
g873
sg64
(lp1124
g57
(g78
g59
NtRp1125
(dp1126
g62
(dp1127
g82
g83
ssg71
g1121
sg64
(lp1128
S'http_cookie'
p1129
asbag57
(g78
g59
NtRp1130
(dp1131
g62
(dp1132
g89
g90
ssg71
g1121
sg64
(lp1133
S':'
asbag57
(g78
g59
NtRp1134
(dp1135
g62
(dp1136
sg71
g1121
sg64
(lp1137
g57
(g58
g59
NtRp1138
(dp1139
g62
(dp1140
g70
I4
ssg71
g1134
sg64
(lp1141
S'session_id_welcome=190.169.221.43-d92b31ba-753f-4f64-985e-f8b1af5b5f88; session_id_admin=190.169.221.43-fe9ebb43-03da-4d7a-9830-9a26d1c68f0d; session_id_sicoin=190.169.221.43-4bf54bc6-bde9-44cd-9e28-66aa110b1858'
p1142
asbasbasbag57
(g73
g59
NtRp1143
(dp1144
g62
(dp1145
sg71
g873
sg64
(lp1146
g57
(g78
g59
NtRp1147
(dp1148
g62
(dp1149
g82
g83
ssg71
g1143
sg64
(lp1150
S'http_host'
p1151
asbag57
(g78
g59
NtRp1152
(dp1153
g62
(dp1154
g89
g90
ssg71
g1143
sg64
(lp1155
S':'
asbag57
(g78
g59
NtRp1156
(dp1157
g62
(dp1158
sg71
g1143
sg64
(lp1159
g57
(g58
g59
NtRp1160
(dp1161
g62
(dp1162
g70
I4
ssg71
g1156
sg64
(lp1163
S'190.169.221.43:8080'
p1164
asbasbasbag57
(g73
g59
NtRp1165
(dp1166
g62
(dp1167
sg71
g873
sg64
(lp1168
g57
(g78
g59
NtRp1169
(dp1170
g62
(dp1171
g82
g83
ssg71
g1165
sg64
(lp1172
S'http_referer'
p1173
asbag57
(g78
g59
NtRp1174
(dp1175
g62
(dp1176
g89
g90
ssg71
g1165
sg64
(lp1177
S':'
asbag57
(g78
g59
NtRp1178
(dp1179
g62
(dp1180
sg71
g1165
sg64
(lp1181
g57
(g58
g59
NtRp1182
(dp1183
g62
(dp1184
g70
I4
ssg71
g1178
sg64
(lp1185
S'http://190.169.221.43:8080/sicoin/correspondencia/ver_historico/4'
p1186
asbasbasbag57
(g73
g59
NtRp1187
(dp1188
g62
(dp1189
sg71
g873
sg64
(lp1190
g57
(g78
g59
NtRp1191
(dp1192
g62
(dp1193
g82
g83
ssg71
g1187
sg64
(lp1194
S'http_user_agent'
p1195
asbag57
(g78
g59
NtRp1196
(dp1197
g62
(dp1198
g89
g90
ssg71
g1187
sg64
(lp1199
S':'
asbag57
(g78
g59
NtRp1200
(dp1201
g62
(dp1202
sg71
g1187
sg64
(lp1203
g57
(g58
g59
NtRp1204
(dp1205
g62
(dp1206
g70
I4
ssg71
g1200
sg64
(lp1207
S'Mozilla/5.0 (X11; Ubuntu; Linux i686; rv:10.0.2) Gecko/20100101 Firefox/10.0.2'
p1208
asbasbasbag57
(g73
g59
NtRp1209
(dp1210
g62
(dp1211
sg71
g873
sg64
(lp1212
g57
(g78
g59
NtRp1213
(dp1214
g62
(dp1215
g82
g83
ssg71
g1209
sg64
(lp1216
S'is_jython'
p1217
asbag57
(g78
g59
NtRp1218
(dp1219
g62
(dp1220
g89
g90
ssg71
g1209
sg64
(lp1221
S':'
asbag57
(g78
g59
NtRp1222
(dp1223
g62
(dp1224
sg71
g1209
sg64
(lp1225
g57
(g58
g59
NtRp1226
(dp1227
g62
(dp1228
g70
I4
ssg71
g1222
sg64
(lp1229
g100
asbasbasbag57
(g73
g59
NtRp1230
(dp1231
g62
(dp1232
sg71
g873
sg64
(lp1233
g57
(g78
g59
NtRp1234
(dp1235
g62
(dp1236
g82
g83
ssg71
g1230
sg64
(lp1237
S'is_pypy'
p1238
asbag57
(g78
g59
NtRp1239
(dp1240
g62
(dp1241
g89
g90
ssg71
g1230
sg64
(lp1242
S':'
asbag57
(g78
g59
NtRp1243
(dp1244
g62
(dp1245
sg71
g1230
sg64
(lp1246
g57
(g58
g59
NtRp1247
(dp1248
g62
(dp1249
g70
I4
ssg71
g1243
sg64
(lp1250
g100
asbasbasbag57
(g73
g59
NtRp1251
(dp1252
g62
(dp1253
sg71
g873
sg64
(lp1254
g57
(g78
g59
NtRp1255
(dp1256
g62
(dp1257
g82
g83
ssg71
g1251
sg64
(lp1258
S'path_info'
p1259
asbag57
(g78
g59
NtRp1260
(dp1261
g62
(dp1262
g89
g90
ssg71
g1251
sg64
(lp1263
S':'
asbag57
(g78
g59
NtRp1264
(dp1265
g62
(dp1266
sg71
g1251
sg64
(lp1267
g57
(g58
g59
NtRp1268
(dp1269
g62
(dp1270
g70
I4
ssg71
g1264
sg64
(lp1271
S'/sicoin/correspondencia/ver_correspondencia/archivo/50'
p1272
asbasbasbag57
(g73
g59
NtRp1273
(dp1274
g62
(dp1275
sg71
g873
sg64
(lp1276
g57
(g78
g59
NtRp1277
(dp1278
g62
(dp1279
g82
g83
ssg71
g1273
sg64
(lp1280
S'query_string'
p1281
asbag57
(g78
g59
NtRp1282
(dp1283
g62
(dp1284
g89
g90
ssg71
g1273
sg64
(lp1285
S':'
asbag57
(g78
g59
NtRp1286
(dp1287
g62
(dp1288
sg71
g1273
sg64
(lp1289
g57
(g58
g59
NtRp1290
(dp1291
g62
(dp1292
g70
I4
ssg71
g1286
sg64
(lp1293
S''
asbasbasbag57
(g73
g59
NtRp1294
(dp1295
g62
(dp1296
sg71
g873
sg64
(lp1297
g57
(g78
g59
NtRp1298
(dp1299
g62
(dp1300
g82
g83
ssg71
g1294
sg64
(lp1301
S'remote_addr'
p1302
asbag57
(g78
g59
NtRp1303
(dp1304
g62
(dp1305
g89
g90
ssg71
g1294
sg64
(lp1306
S':'
asbag57
(g78
g59
NtRp1307
(dp1308
g62
(dp1309
sg71
g1294
sg64
(lp1310
g57
(g58
g59
NtRp1311
(dp1312
g62
(dp1313
g70
I4
ssg71
g1307
sg64
(lp1314
g238
asbasbasbag57
(g73
g59
NtRp1315
(dp1316
g62
(dp1317
sg71
g873
sg64
(lp1318
g57
(g78
g59
NtRp1319
(dp1320
g62
(dp1321
g82
g83
ssg71
g1315
sg64
(lp1322
S'remote_port'
p1323
asbag57
(g78
g59
NtRp1324
(dp1325
g62
(dp1326
g89
g90
ssg71
g1315
sg64
(lp1327
S':'
asbag57
(g78
g59
NtRp1328
(dp1329
g62
(dp1330
sg71
g1315
sg64
(lp1331
g57
(g58
g59
NtRp1332
(dp1333
g62
(dp1334
g70
I4
ssg71
g1328
sg64
(lp1335
S'60114'
p1336
asbasbasbag57
(g73
g59
NtRp1337
(dp1338
g62
(dp1339
sg71
g873
sg64
(lp1340
g57
(g78
g59
NtRp1341
(dp1342
g62
(dp1343
g82
g83
ssg71
g1337
sg64
(lp1344
S'request_method'
p1345
asbag57
(g78
g59
NtRp1346
(dp1347
g62
(dp1348
g89
g90
ssg71
g1337
sg64
(lp1349
S':'
asbag57
(g78
g59
NtRp1350
(dp1351
g62
(dp1352
sg71
g1337
sg64
(lp1353
g57
(g58
g59
NtRp1354
(dp1355
g62
(dp1356
g70
I4
ssg71
g1350
sg64
(lp1357
S'GET'
p1358
asbasbasbag57
(g73
g59
NtRp1359
(dp1360
g62
(dp1361
sg71
g873
sg64
(lp1362
g57
(g78
g59
NtRp1363
(dp1364
g62
(dp1365
g82
g83
ssg71
g1359
sg64
(lp1366
S'request_uri'
p1367
asbag57
(g78
g59
NtRp1368
(dp1369
g62
(dp1370
g89
g90
ssg71
g1359
sg64
(lp1371
S':'
asbag57
(g78
g59
NtRp1372
(dp1373
g62
(dp1374
sg71
g1359
sg64
(lp1375
g57
(g58
g59
NtRp1376
(dp1377
g62
(dp1378
g70
I4
ssg71
g1372
sg64
(lp1379
g1272
asbasbasbag57
(g73
g59
NtRp1380
(dp1381
g62
(dp1382
sg71
g873
sg64
(lp1383
g57
(g78
g59
NtRp1384
(dp1385
g62
(dp1386
g82
g83
ssg71
g1380
sg64
(lp1387
S'script_name'
p1388
asbag57
(g78
g59
NtRp1389
(dp1390
g62
(dp1391
g89
g90
ssg71
g1380
sg64
(lp1392
S':'
asbag57
(g78
g59
NtRp1393
(dp1394
g62
(dp1395
sg71
g1380
sg64
(lp1396
g57
(g58
g59
NtRp1397
(dp1398
g62
(dp1399
g70
I4
ssg71
g1393
sg64
(lp1400
S''
asbasbasbag57
(g73
g59
NtRp1401
(dp1402
g62
(dp1403
sg71
g873
sg64
(lp1404
g57
(g78
g59
NtRp1405
(dp1406
g62
(dp1407
g82
g83
ssg71
g1401
sg64
(lp1408
S'server_name'
p1409
asbag57
(g78
g59
NtRp1410
(dp1411
g62
(dp1412
g89
g90
ssg71
g1401
sg64
(lp1413
S':'
asbag57
(g78
g59
NtRp1414
(dp1415
g62
(dp1416
sg71
g1401
sg64
(lp1417
g57
(g58
g59
NtRp1418
(dp1419
g62
(dp1420
g70
I4
ssg71
g1414
sg64
(lp1421
S'perdomor'
p1422
asbasbasbag57
(g73
g59
NtRp1423
(dp1424
g62
(dp1425
sg71
g873
sg64
(lp1426
g57
(g78
g59
NtRp1427
(dp1428
g62
(dp1429
g82
g83
ssg71
g1423
sg64
(lp1430
S'server_port'
p1431
asbag57
(g78
g59
NtRp1432
(dp1433
g62
(dp1434
g89
g90
ssg71
g1423
sg64
(lp1435
S':'
asbag57
(g78
g59
NtRp1436
(dp1437
g62
(dp1438
sg71
g1423
sg64
(lp1439
g57
(g58
g59
NtRp1440
(dp1441
g62
(dp1442
g70
I4
ssg71
g1436
sg64
(lp1443
S'8080'
p1444
asbasbasbag57
(g73
g59
NtRp1445
(dp1446
g62
(dp1447
sg71
g873
sg64
(lp1448
g57
(g78
g59
NtRp1449
(dp1450
g62
(dp1451
g82
g83
ssg71
g1445
sg64
(lp1452
S'server_protocol'
p1453
asbag57
(g78
g59
NtRp1454
(dp1455
g62
(dp1456
g89
g90
ssg71
g1445
sg64
(lp1457
S':'
asbag57
(g78
g59
NtRp1458
(dp1459
g62
(dp1460
sg71
g1445
sg64
(lp1461
g57
(g58
g59
NtRp1462
(dp1463
g62
(dp1464
g70
I4
ssg71
g1458
sg64
(lp1465
S'HTTP/1.1'
p1466
asbasbasbag57
(g73
g59
NtRp1467
(dp1468
g62
(dp1469
sg71
g873
sg64
(lp1470
g57
(g78
g59
NtRp1471
(dp1472
g62
(dp1473
g82
g83
ssg71
g1467
sg64
(lp1474
S'server_software'
p1475
asbag57
(g78
g59
NtRp1476
(dp1477
g62
(dp1478
g89
g90
ssg71
g1467
sg64
(lp1479
S':'
asbag57
(g78
g59
NtRp1480
(dp1481
g62
(dp1482
sg71
g1467
sg64
(lp1483
g57
(g58
g59
NtRp1484
(dp1485
g62
(dp1486
g70
I4
ssg71
g1480
sg64
(lp1487
S'Rocket 1.2.4'
p1488
asbasbasbag57
(g73
g59
NtRp1489
(dp1490
g62
(dp1491
sg71
g873
sg64
(lp1492
g57
(g78
g59
NtRp1493
(dp1494
g62
(dp1495
g82
g83
ssg71
g1489
sg64
(lp1496
S'web2py_crontype'
p1497
asbag57
(g78
g59
NtRp1498
(dp1499
g62
(dp1500
g89
g90
ssg71
g1489
sg64
(lp1501
S':'
asbag57
(g78
g59
NtRp1502
(dp1503
g62
(dp1504
sg71
g1489
sg64
(lp1505
g57
(g58
g59
NtRp1506
(dp1507
g62
(dp1508
g70
I4
ssg71
g1502
sg64
(lp1509
S'hard'
p1510
asbasbasbag57
(g73
g59
NtRp1511
(dp1512
g62
(dp1513
sg71
g873
sg64
(lp1514
g57
(g78
g59
NtRp1515
(dp1516
g62
(dp1517
g82
g83
ssg71
g1511
sg64
(lp1518
S'web2py_path'
p1519
asbag57
(g78
g59
NtRp1520
(dp1521
g62
(dp1522
g89
g90
ssg71
g1511
sg64
(lp1523
S':'
asbag57
(g78
g59
NtRp1524
(dp1525
g62
(dp1526
sg71
g1511
sg64
(lp1527
g57
(g58
g59
NtRp1528
(dp1529
g62
(dp1530
g70
I4
ssg71
g1524
sg64
(lp1531
g920
asbasbasbag57
(g73
g59
NtRp1532
(dp1533
g62
(dp1534
sg71
g873
sg64
(lp1535
g57
(g78
g59
NtRp1536
(dp1537
g62
(dp1538
g82
g83
ssg71
g1532
sg64
(lp1539
S'web2py_version'
p1540
asbag57
(g78
g59
NtRp1541
(dp1542
g62
(dp1543
g89
g90
ssg71
g1532
sg64
(lp1544
S':'
asbag57
(g78
g59
NtRp1545
(dp1546
g62
(dp1547
sg71
g1532
sg64
(lp1548
g57
(g58
g59
NtRp1549
(dp1550
g62
(dp1551
g70
I4
ssg71
g1545
sg64
(lp1552
g57
(g66
g59
NtRp1553
(dp1554
g62
(dp1555
g70
I3
ssg71
Nsg64
(lp1556
g57
(g73
g59
NtRp1557
(dp1558
g62
(dp1559
sg71
g1553
sg64
(lp1560
g57
(g78
g59
NtRp1561
(dp1562
g62
(dp1563
sg71
g1557
sg64
(lp1564
g57
(g58
g59
NtRp1565
(dp1566
g62
(dp1567
g70
I3
ssg71
g1561
sg64
(lp1568
S'2'
asbasbasbag57
(g73
g59
NtRp1569
(dp1570
g62
(dp1571
sg71
g1553
sg64
(lp1572
g57
(g78
g59
NtRp1573
(dp1574
g62
(dp1575
sg71
g1569
sg64
(lp1576
g57
(g58
g59
NtRp1577
(dp1578
g62
(dp1579
g70
I3
ssg71
g1573
sg64
(lp1580
S'0'
asbasbasbag57
(g73
g59
NtRp1581
(dp1582
g62
(dp1583
sg71
g1553
sg64
(lp1584
g57
(g78
g59
NtRp1585
(dp1586
g62
(dp1587
sg71
g1581
sg64
(lp1588
g57
(g58
g59
NtRp1589
(dp1590
g62
(dp1591
g70
I3
ssg71
g1585
sg64
(lp1592
S'9'
asbasbasbag57
(g73
g59
NtRp1593
(dp1594
g62
(dp1595
sg71
g1553
sg64
(lp1596
g57
(g78
g59
NtRp1597
(dp1598
g62
(dp1599
sg71
g1593
sg64
(lp1600
g57
(g58
g59
NtRp1601
(dp1602
g62
(dp1603
g70
I3
ssg71
g1597
sg64
(lp1604
S'datetime.datetime(2012, 9, 13, 23, 51, 30)'
p1605
asbasbasbag57
(g73
g59
NtRp1606
(dp1607
g62
(dp1608
sg71
g1553
sg64
(lp1609
g57
(g78
g59
NtRp1610
(dp1611
g62
(dp1612
sg71
g1606
sg64
(lp1613
g57
(g58
g59
NtRp1614
(dp1615
g62
(dp1616
g70
I3
ssg71
g1610
sg64
(lp1617
S'stable'
p1618
asbasbasbasbasbasbasbag57
(g73
g59
NtRp1619
(dp1620
g62
(dp1621
sg71
g873
sg64
(lp1622
g57
(g78
g59
NtRp1623
(dp1624
g62
(dp1625
g82
g83
ssg71
g1619
sg64
(lp1626
S'wsgi_errors'
p1627
asbag57
(g78
g59
NtRp1628
(dp1629
g62
(dp1630
g89
g90
ssg71
g1619
sg64
(lp1631
S':'
asbag57
(g78
g59
NtRp1632
(dp1633
g62
(dp1634
sg71
g1619
sg64
(lp1635
g57
(g58
g59
NtRp1636
(dp1637
g62
(dp1638
g70
I4
ssg71
g1632
sg64
(lp1639
S"<open file '<stderr>', mode 'w' at 0xb77470d0>"
p1640
asbasbasbag57
(g73
g59
NtRp1641
(dp1642
g62
(dp1643
sg71
g873
sg64
(lp1644
g57
(g78
g59
NtRp1645
(dp1646
g62
(dp1647
g82
g83
ssg71
g1641
sg64
(lp1648
S'wsgi_file_wrapper'
p1649
asbag57
(g78
g59
NtRp1650
(dp1651
g62
(dp1652
g89
g90
ssg71
g1641
sg64
(lp1653
S':'
asbag57
(g78
g59
NtRp1654
(dp1655
g62
(dp1656
sg71
g1641
sg64
(lp1657
g57
(g58
g59
NtRp1658
(dp1659
g62
(dp1660
g70
I4
ssg71
g1654
sg64
(lp1661
S'<class wsgiref.util.FileWrapper at 0x9b6489c>'
p1662
asbasbasbag57
(g73
g59
NtRp1663
(dp1664
g62
(dp1665
sg71
g873
sg64
(lp1666
g57
(g78
g59
NtRp1667
(dp1668
g62
(dp1669
g82
g83
ssg71
g1663
sg64
(lp1670
S'wsgi_input'
p1671
asbag57
(g78
g59
NtRp1672
(dp1673
g62
(dp1674
g89
g90
ssg71
g1663
sg64
(lp1675
S':'
asbag57
(g78
g59
NtRp1676
(dp1677
g62
(dp1678
sg71
g1663
sg64
(lp1679
g57
(g58
g59
NtRp1680
(dp1681
g62
(dp1682
g70
I4
ssg71
g1676
sg64
(lp1683
S'<socket._fileobject object at 0x9f0cf6c>'
p1684
asbasbasbag57
(g73
g59
NtRp1685
(dp1686
g62
(dp1687
sg71
g873
sg64
(lp1688
g57
(g78
g59
NtRp1689
(dp1690
g62
(dp1691
g82
g83
ssg71
g1685
sg64
(lp1692
S'wsgi_multiprocess'
p1693
asbag57
(g78
g59
NtRp1694
(dp1695
g62
(dp1696
g89
g90
ssg71
g1685
sg64
(lp1697
S':'
asbag57
(g78
g59
NtRp1698
(dp1699
g62
(dp1700
sg71
g1685
sg64
(lp1701
g57
(g58
g59
NtRp1702
(dp1703
g62
(dp1704
g70
I4
ssg71
g1698
sg64
(lp1705
g100
asbasbasbag57
(g73
g59
NtRp1706
(dp1707
g62
(dp1708
sg71
g873
sg64
(lp1709
g57
(g78
g59
NtRp1710
(dp1711
g62
(dp1712
g82
g83
ssg71
g1706
sg64
(lp1713
S'wsgi_multithread'
p1714
asbag57
(g78
g59
NtRp1715
(dp1716
g62
(dp1717
g89
g90
ssg71
g1706
sg64
(lp1718
S':'
asbag57
(g78
g59
NtRp1719
(dp1720
g62
(dp1721
sg71
g1706
sg64
(lp1722
g57
(g58
g59
NtRp1723
(dp1724
g62
(dp1725
g70
I4
ssg71
g1719
sg64
(lp1726
S'True'
p1727
asbasbasbag57
(g73
g59
NtRp1728
(dp1729
g62
(dp1730
sg71
g873
sg64
(lp1731
g57
(g78
g59
NtRp1732
(dp1733
g62
(dp1734
g82
g83
ssg71
g1728
sg64
(lp1735
S'wsgi_run_once'
p1736
asbag57
(g78
g59
NtRp1737
(dp1738
g62
(dp1739
g89
g90
ssg71
g1728
sg64
(lp1740
S':'
asbag57
(g78
g59
NtRp1741
(dp1742
g62
(dp1743
sg71
g1728
sg64
(lp1744
g57
(g58
g59
NtRp1745
(dp1746
g62
(dp1747
g70
I4
ssg71
g1741
sg64
(lp1748
g100
asbasbasbag57
(g73
g59
NtRp1749
(dp1750
g62
(dp1751
sg71
g873
sg64
(lp1752
g57
(g78
g59
NtRp1753
(dp1754
g62
(dp1755
g82
g83
ssg71
g1749
sg64
(lp1756
S'wsgi_url_scheme'
p1757
asbag57
(g78
g59
NtRp1758
(dp1759
g62
(dp1760
g89
g90
ssg71
g1749
sg64
(lp1761
S':'
asbag57
(g78
g59
NtRp1762
(dp1763
g62
(dp1764
sg71
g1749
sg64
(lp1765
g57
(g58
g59
NtRp1766
(dp1767
g62
(dp1768
g70
I4
ssg71
g1762
sg64
(lp1769
S'http'
p1770
asbasbasbag57
(g73
g59
NtRp1771
(dp1772
g62
(dp1773
sg71
g873
sg64
(lp1774
g57
(g78
g59
NtRp1775
(dp1776
g62
(dp1777
g82
g83
ssg71
g1771
sg64
(lp1778
S'wsgi_version'
p1779
asbag57
(g78
g59
NtRp1780
(dp1781
g62
(dp1782
g89
g90
ssg71
g1771
sg64
(lp1783
S':'
asbag57
(g78
g59
NtRp1784
(dp1785
g62
(dp1786
sg71
g1771
sg64
(lp1787
g57
(g58
g59
NtRp1788
(dp1789
g62
(dp1790
g70
I4
ssg71
g1784
sg64
(lp1791
g57
(g66
g59
NtRp1792
(dp1793
g62
(dp1794
g70
I3
ssg71
Nsg64
(lp1795
g57
(g73
g59
NtRp1796
(dp1797
g62
(dp1798
sg71
g1792
sg64
(lp1799
g57
(g78
g59
NtRp1800
(dp1801
g62
(dp1802
sg71
g1796
sg64
(lp1803
g57
(g58
g59
NtRp1804
(dp1805
g62
(dp1806
g70
I3
ssg71
g1800
sg64
(lp1807
S'1'
asbasbasbag57
(g73
g59
NtRp1808
(dp1809
g62
(dp1810
sg71
g1792
sg64
(lp1811
g57
(g78
g59
NtRp1812
(dp1813
g62
(dp1814
sg71
g1808
sg64
(lp1815
g57
(g58
g59
NtRp1816
(dp1817
g62
(dp1818
g70
I3
ssg71
g1812
sg64
(lp1819
S'0'
asbasbasbasbasbasbasbasbasbasbasbag57
(g73
g59
NtRp1820
(dp1821
g62
(dp1822
sg71
g67
sg64
(lp1823
g57
(g78
g59
NtRp1824
(dp1825
g62
(dp1826
g82
g83
ssg71
g1820
sg64
(lp1827
S'extension'
p1828
asbag57
(g78
g59
NtRp1829
(dp1830
g62
(dp1831
g89
g90
ssg71
g1820
sg64
(lp1832
S':'
asbag57
(g78
g59
NtRp1833
(dp1834
g62
(dp1835
sg71
g1820
sg64
(lp1836
g57
(g58
g59
NtRp1837
(dp1838
g62
(dp1839
g70
I5
ssg71
g1833
sg64
(lp1840
S'html'
p1841
asbasbasbag57
(g73
g59
NtRp1842
(dp1843
g62
(dp1844
sg71
g67
sg64
(lp1845
g57
(g78
g59
NtRp1846
(dp1847
g62
(dp1848
g82
g83
ssg71
g1842
sg64
(lp1849
S'folder'
p1850
asbag57
(g78
g59
NtRp1851
(dp1852
g62
(dp1853
g89
g90
ssg71
g1842
sg64
(lp1854
S':'
asbag57
(g78
g59
NtRp1855
(dp1856
g62
(dp1857
sg71
g1842
sg64
(lp1858
g57
(g58
g59
NtRp1859
(dp1860
g62
(dp1861
g70
I5
ssg71
g1855
sg64
(lp1862
S'/home/perdomor/web2py/applications/sicoin/'
p1863
asbasbasbag57
(g73
g59
NtRp1864
(dp1865
g62
(dp1866
sg71
g67
sg64
(lp1867
g57
(g78
g59
NtRp1868
(dp1869
g62
(dp1870
g82
g83
ssg71
g1864
sg64
(lp1871
S'function'
p1872
asbag57
(g78
g59
NtRp1873
(dp1874
g62
(dp1875
g89
g90
ssg71
g1864
sg64
(lp1876
S':'
asbag57
(g78
g59
NtRp1877
(dp1878
g62
(dp1879
sg71
g1864
sg64
(lp1880
g57
(g58
g59
NtRp1881
(dp1882
g62
(dp1883
g70
I5
ssg71
g1877
sg64
(lp1884
S'ver_correspondencia'
p1885
asbasbasbag57
(g73
g59
NtRp1886
(dp1887
g62
(dp1888
sg71
g67
sg64
(lp1889
g57
(g78
g59
NtRp1890
(dp1891
g62
(dp1892
g82
g83
ssg71
g1886
sg64
(lp1893
S'get_vars'
p1894
asbag57
(g78
g59
NtRp1895
(dp1896
g62
(dp1897
g89
g90
ssg71
g1886
sg64
(lp1898
S':'
asbag57
(g78
g59
NtRp1899
(dp1900
g62
(dp1901
sg71
g1886
sg64
(lp1902
g57
(g58
g59
NtRp1903
(dp1904
g62
(dp1905
g70
I5
ssg71
g1899
sg64
(lp1906
g57
(g66
g59
NtRp1907
(dp1908
g62
(dp1909
g70
I4
ssg71
Nsg64
(lp1910
sbasbasbasbag57
(g73
g59
NtRp1911
(dp1912
g62
(dp1913
sg71
g67
sg64
(lp1914
g57
(g78
g59
NtRp1915
(dp1916
g62
(dp1917
g82
g83
ssg71
g1911
sg64
(lp1918
S'global_settings'
p1919
asbag57
(g78
g59
NtRp1920
(dp1921
g62
(dp1922
g89
g90
ssg71
g1911
sg64
(lp1923
S':'
asbag57
(g78
g59
NtRp1924
(dp1925
g62
(dp1926
sg71
g1911
sg64
(lp1927
g57
(g58
g59
NtRp1928
(dp1929
g62
(dp1930
g70
I5
ssg71
g1924
sg64
(lp1931
g57
(g66
g59
NtRp1932
(dp1933
g62
(dp1934
g70
I4
ssg71
Nsg64
(lp1935
g57
(g73
g59
NtRp1936
(dp1937
g62
(dp1938
sg71
g1932
sg64
(lp1939
g57
(g78
g59
NtRp1940
(dp1941
g62
(dp1942
g82
g83
ssg71
g1936
sg64
(lp1943
g885
asbag57
(g78
g59
NtRp1944
(dp1945
g62
(dp1946
g89
g90
ssg71
g1936
sg64
(lp1947
S':'
asbag57
(g78
g59
NtRp1948
(dp1949
g62
(dp1950
sg71
g1936
sg64
(lp1951
g57
(g58
g59
NtRp1952
(dp1953
g62
(dp1954
g70
I4
ssg71
g1948
sg64
(lp1955
S"set(['/home/perdomor/web2py/applications/sicoin/', '/home/perdomor/web2py/applications/admin/'])"
p1956
asbasbasbag57
(g73
g59
NtRp1957
(dp1958
g62
(dp1959
sg71
g1932
sg64
(lp1960
g57
(g78
g59
NtRp1961
(dp1962
g62
(dp1963
g82
g83
ssg71
g1957
sg64
(lp1964
g907
asbag57
(g78
g59
NtRp1965
(dp1966
g62
(dp1967
g89
g90
ssg71
g1957
sg64
(lp1968
S':'
asbag57
(g78
g59
NtRp1969
(dp1970
g62
(dp1971
sg71
g1957
sg64
(lp1972
g57
(g58
g59
NtRp1973
(dp1974
g62
(dp1975
g70
I4
ssg71
g1969
sg64
(lp1976
g920
asbasbasbag57
(g73
g59
NtRp1977
(dp1978
g62
(dp1979
sg71
g1932
sg64
(lp1980
g57
(g78
g59
NtRp1981
(dp1982
g62
(dp1983
g82
g83
ssg71
g1977
sg64
(lp1984
g929
asbag57
(g78
g59
NtRp1985
(dp1986
g62
(dp1987
g89
g90
ssg71
g1977
sg64
(lp1988
S':'
asbag57
(g78
g59
NtRp1989
(dp1990
g62
(dp1991
sg71
g1977
sg64
(lp1992
g57
(g58
g59
NtRp1993
(dp1994
g62
(dp1995
g70
I4
ssg71
g1989
sg64
(lp1996
g57
(g66
g59
NtRp1997
(dp1998
g62
(dp1999
g70
I3
ssg71
Nsg64
(lp2000
sbasbasbasbag57
(g73
g59
NtRp2001
(dp2002
g62
(dp2003
sg71
g1932
sg64
(lp2004
g57
(g78
g59
NtRp2005
(dp2006
g62
(dp2007
g82
g83
ssg71
g2001
sg64
(lp2008
g954
asbag57
(g78
g59
NtRp2009
(dp2010
g62
(dp2011
g89
g90
ssg71
g2001
sg64
(lp2012
S':'
asbag57
(g78
g59
NtRp2013
(dp2014
g62
(dp2015
sg71
g2001
sg64
(lp2016
g57
(g58
g59
NtRp2017
(dp2018
g62
(dp2019
g70
I4
ssg71
g2013
sg64
(lp2020
S"<Values at 0x9bb09cc: {'verbose': False, 'ip': '190.169.221.43', 'with_scheduler': False, 'ips': ['127.0.1.1'], 'shutdown_timeout': 5, 'taskbar': False, 'port': 8080, 'maxthreads': None, 'softcron': False, 'server_name': 'perdomor', 'bpython': False, 'nogui': False, 'nocron': False, 'extcron': False, 'run_system_tests': False, 'test': None, 'folder': '/home/perdomor/web2py', 'config': '', 'import_models': False, 'winservice': '', 'shell': None, 'run': '', 'log_filename': 'httpserver.log', 'debuglevel': 30, 'args': [''], 'socket_timeout': 5, 'ssl_ca_certificate': None, 'scheduler': None, 'profiler_filename': None, 'ssl_private_key': '', 'scheduler_groups': None, 'password': '12345', 'request_queue_size': 5, 'ssl_certificate': '', 'cronjob': False, 'numthreads': None, 'quiet': False, 'interfaces': None, 'minthreads': None, 'timeout': 10, 'plain': False, 'nobanner': False, 'pid_filename': 'httpserver.pid'}>"
p2021
asbasbasbag57
(g73
g59
NtRp2022
(dp2023
g62
(dp2024
sg71
g1932
sg64
(lp2025
g57
(g78
g59
NtRp2026
(dp2027
g62
(dp2028
g82
g83
ssg71
g2022
sg64
(lp2029
g976
asbag57
(g78
g59
NtRp2030
(dp2031
g62
(dp2032
g89
g90
ssg71
g2022
sg64
(lp2033
S':'
asbag57
(g78
g59
NtRp2034
(dp2035
g62
(dp2036
sg71
g2022
sg64
(lp2037
g57
(g58
g59
NtRp2038
(dp2039
g62
(dp2040
g70
I4
ssg71
g2034
sg64
(lp2041
S'set([])'
p2042
asbasbasbag57
(g73
g59
NtRp2043
(dp2044
g62
(dp2045
sg71
g1932
sg64
(lp2046
g57
(g78
g59
NtRp2047
(dp2048
g62
(dp2049
g82
g83
ssg71
g2043
sg64
(lp2050
g998
asbag57
(g78
g59
NtRp2051
(dp2052
g62
(dp2053
g89
g90
ssg71
g2043
sg64
(lp2054
S':'
asbag57
(g78
g59
NtRp2055
(dp2056
g62
(dp2057
sg71
g2043
sg64
(lp2058
g57
(g58
g59
NtRp2059
(dp2060
g62
(dp2061
g70
I4
ssg71
g2055
sg64
(lp2062
g100
asbasbasbag57
(g73
g59
NtRp2063
(dp2064
g62
(dp2065
sg71
g1932
sg64
(lp2066
g57
(g78
g59
NtRp2067
(dp2068
g62
(dp2069
g82
g83
ssg71
g2063
sg64
(lp2070
g1019
asbag57
(g78
g59
NtRp2071
(dp2072
g62
(dp2073
g89
g90
ssg71
g2063
sg64
(lp2074
S':'
asbag57
(g78
g59
NtRp2075
(dp2076
g62
(dp2077
sg71
g2063
sg64
(lp2078
g57
(g58
g59
NtRp2079
(dp2080
g62
(dp2081
g70
I4
ssg71
g2075
sg64
(lp2082
g1032
asbasbasbag57
(g73
g59
NtRp2083
(dp2084
g62
(dp2085
sg71
g1932
sg64
(lp2086
g57
(g78
g59
NtRp2087
(dp2088
g62
(dp2089
g82
g83
ssg71
g2083
sg64
(lp2090
g1217
asbag57
(g78
g59
NtRp2091
(dp2092
g62
(dp2093
g89
g90
ssg71
g2083
sg64
(lp2094
S':'
asbag57
(g78
g59
NtRp2095
(dp2096
g62
(dp2097
sg71
g2083
sg64
(lp2098
g57
(g58
g59
NtRp2099
(dp2100
g62
(dp2101
g70
I4
ssg71
g2095
sg64
(lp2102
g100
asbasbasbag57
(g73
g59
NtRp2103
(dp2104
g62
(dp2105
sg71
g1932
sg64
(lp2106
g57
(g78
g59
NtRp2107
(dp2108
g62
(dp2109
g82
g83
ssg71
g2103
sg64
(lp2110
g1238
asbag57
(g78
g59
NtRp2111
(dp2112
g62
(dp2113
g89
g90
ssg71
g2103
sg64
(lp2114
S':'
asbag57
(g78
g59
NtRp2115
(dp2116
g62
(dp2117
sg71
g2103
sg64
(lp2118
g57
(g58
g59
NtRp2119
(dp2120
g62
(dp2121
g70
I4
ssg71
g2115
sg64
(lp2122
g100
asbasbasbag57
(g73
g59
NtRp2123
(dp2124
g62
(dp2125
sg71
g1932
sg64
(lp2126
g57
(g78
g59
NtRp2127
(dp2128
g62
(dp2129
g82
g83
ssg71
g2123
sg64
(lp2130
g1497
asbag57
(g78
g59
NtRp2131
(dp2132
g62
(dp2133
g89
g90
ssg71
g2123
sg64
(lp2134
S':'
asbag57
(g78
g59
NtRp2135
(dp2136
g62
(dp2137
sg71
g2123
sg64
(lp2138
g57
(g58
g59
NtRp2139
(dp2140
g62
(dp2141
g70
I4
ssg71
g2135
sg64
(lp2142
g1510
asbasbasbag57
(g73
g59
NtRp2143
(dp2144
g62
(dp2145
sg71
g1932
sg64
(lp2146
g57
(g78
g59
NtRp2147
(dp2148
g62
(dp2149
g82
g83
ssg71
g2143
sg64
(lp2150
g1540
asbag57
(g78
g59
NtRp2151
(dp2152
g62
(dp2153
g89
g90
ssg71
g2143
sg64
(lp2154
S':'
asbag57
(g78
g59
NtRp2155
(dp2156
g62
(dp2157
sg71
g2143
sg64
(lp2158
g57
(g58
g59
NtRp2159
(dp2160
g62
(dp2161
g70
I4
ssg71
g2155
sg64
(lp2162
g57
(g66
g59
NtRp2163
(dp2164
g62
(dp2165
g70
I3
ssg71
Nsg64
(lp2166
g57
(g73
g59
NtRp2167
(dp2168
g62
(dp2169
sg71
g2163
sg64
(lp2170
g57
(g78
g59
NtRp2171
(dp2172
g62
(dp2173
sg71
g2167
sg64
(lp2174
g57
(g58
g59
NtRp2175
(dp2176
g62
(dp2177
g70
I3
ssg71
g2171
sg64
(lp2178
S'2'
asbasbasbag57
(g73
g59
NtRp2179
(dp2180
g62
(dp2181
sg71
g2163
sg64
(lp2182
g57
(g78
g59
NtRp2183
(dp2184
g62
(dp2185
sg71
g2179
sg64
(lp2186
g57
(g58
g59
NtRp2187
(dp2188
g62
(dp2189
g70
I3
ssg71
g2183
sg64
(lp2190
S'0'
asbasbasbag57
(g73
g59
NtRp2191
(dp2192
g62
(dp2193
sg71
g2163
sg64
(lp2194
g57
(g78
g59
NtRp2195
(dp2196
g62
(dp2197
sg71
g2191
sg64
(lp2198
g57
(g58
g59
NtRp2199
(dp2200
g62
(dp2201
g70
I3
ssg71
g2195
sg64
(lp2202
S'9'
asbasbasbag57
(g73
g59
NtRp2203
(dp2204
g62
(dp2205
sg71
g2163
sg64
(lp2206
g57
(g78
g59
NtRp2207
(dp2208
g62
(dp2209
sg71
g2203
sg64
(lp2210
g57
(g58
g59
NtRp2211
(dp2212
g62
(dp2213
g70
I3
ssg71
g2207
sg64
(lp2214
S'datetime.datetime(2012, 9, 13, 23, 51, 30)'
p2215
asbasbasbag57
(g73
g59
NtRp2216
(dp2217
g62
(dp2218
sg71
g2163
sg64
(lp2219
g57
(g78
g59
NtRp2220
(dp2221
g62
(dp2222
sg71
g2216
sg64
(lp2223
g57
(g58
g59
NtRp2224
(dp2225
g62
(dp2226
g70
I3
ssg71
g2220
sg64
(lp2227
g1618
asbasbasbasbasbasbasbasbasbasbasbag57
(g73
g59
NtRp2228
(dp2229
g62
(dp2230
sg71
g67
sg64
(lp2231
g57
(g78
g59
NtRp2232
(dp2233
g62
(dp2234
g82
g83
ssg71
g2228
sg64
(lp2235
S'is_https'
p2236
asbag57
(g78
g59
NtRp2237
(dp2238
g62
(dp2239
g89
g90
ssg71
g2228
sg64
(lp2240
S':'
asbag57
(g78
g59
NtRp2241
(dp2242
g62
(dp2243
sg71
g2228
sg64
(lp2244
g57
(g58
g59
NtRp2245
(dp2246
g62
(dp2247
g70
I5
ssg71
g2241
sg64
(lp2248
g100
asbasbasbag57
(g73
g59
NtRp2249
(dp2250
g62
(dp2251
sg71
g67
sg64
(lp2252
g57
(g78
g59
NtRp2253
(dp2254
g62
(dp2255
g82
g83
ssg71
g2249
sg64
(lp2256
S'is_local'
p2257
asbag57
(g78
g59
NtRp2258
(dp2259
g62
(dp2260
g89
g90
ssg71
g2249
sg64
(lp2261
S':'
asbag57
(g78
g59
NtRp2262
(dp2263
g62
(dp2264
sg71
g2249
sg64
(lp2265
g57
(g58
g59
NtRp2266
(dp2267
g62
(dp2268
g70
I5
ssg71
g2262
sg64
(lp2269
g1727
asbasbasbag57
(g73
g59
NtRp2270
(dp2271
g62
(dp2272
sg71
g67
sg64
(lp2273
g57
(g78
g59
NtRp2274
(dp2275
g62
(dp2276
g82
g83
ssg71
g2270
sg64
(lp2277
S'is_restful'
p2278
asbag57
(g78
g59
NtRp2279
(dp2280
g62
(dp2281
g89
g90
ssg71
g2270
sg64
(lp2282
S':'
asbag57
(g78
g59
NtRp2283
(dp2284
g62
(dp2285
sg71
g2270
sg64
(lp2286
g57
(g58
g59
NtRp2287
(dp2288
g62
(dp2289
g70
I5
ssg71
g2283
sg64
(lp2290
g100
asbasbasbag57
(g73
g59
NtRp2291
(dp2292
g62
(dp2293
sg71
g67
sg64
(lp2294
g57
(g78
g59
NtRp2295
(dp2296
g62
(dp2297
g82
g83
ssg71
g2291
sg64
(lp2298
S'now'
p2299
asbag57
(g78
g59
NtRp2300
(dp2301
g62
(dp2302
g89
g90
ssg71
g2291
sg64
(lp2303
S':'
asbag57
(g78
g59
NtRp2304
(dp2305
g62
(dp2306
sg71
g2291
sg64
(lp2307
g57
(g58
g59
NtRp2308
(dp2309
g62
(dp2310
g70
I5
ssg71
g2304
sg64
(lp2311
S'datetime.datetime(2012, 11, 23, 10, 59, 8, 80787)'
p2312
asbasbasbag57
(g73
g59
NtRp2313
(dp2314
g62
(dp2315
sg71
g67
sg64
(lp2316
g57
(g78
g59
NtRp2317
(dp2318
g62
(dp2319
g82
g83
ssg71
g2313
sg64
(lp2320
S'post_vars'
p2321
asbag57
(g78
g59
NtRp2322
(dp2323
g62
(dp2324
g89
g90
ssg71
g2313
sg64
(lp2325
S':'
asbag57
(g78
g59
NtRp2326
(dp2327
g62
(dp2328
sg71
g2313
sg64
(lp2329
g57
(g58
g59
NtRp2330
(dp2331
g62
(dp2332
g70
I5
ssg71
g2326
sg64
(lp2333
g57
(g66
g59
NtRp2334
(dp2335
g62
(dp2336
g70
I4
ssg71
Nsg64
(lp2337
sbasbasbasbag57
(g73
g59
NtRp2338
(dp2339
g62
(dp2340
sg71
g67
sg64
(lp2341
g57
(g78
g59
NtRp2342
(dp2343
g62
(dp2344
g82
g83
ssg71
g2338
sg64
(lp2345
S'raw_args'
p2346
asbag57
(g78
g59
NtRp2347
(dp2348
g62
(dp2349
g89
g90
ssg71
g2338
sg64
(lp2350
S':'
asbag57
(g78
g59
NtRp2351
(dp2352
g62
(dp2353
sg71
g2338
sg64
(lp2354
g57
(g58
g59
NtRp2355
(dp2356
g62
(dp2357
g70
I5
ssg71
g2351
sg64
(lp2358
S'archivo/50'
p2359
asbasbasbag57
(g73
g59
NtRp2360
(dp2361
g62
(dp2362
sg71
g67
sg64
(lp2363
g57
(g78
g59
NtRp2364
(dp2365
g62
(dp2366
g82
g83
ssg71
g2360
sg64
(lp2367
S'raw_extension'
p2368
asbag57
(g78
g59
NtRp2369
(dp2370
g62
(dp2371
g89
g90
ssg71
g2360
sg64
(lp2372
S':'
asbag57
(g78
g59
NtRp2373
(dp2374
g62
(dp2375
sg71
g2360
sg64
(lp2376
g57
(g58
g59
NtRp2377
(dp2378
g62
(dp2379
g70
I5
ssg71
g2373
sg64
(lp2380
S'None'
p2381
asbasbasbag57
(g73
g59
NtRp2382
(dp2383
g62
(dp2384
sg71
g67
sg64
(lp2385
g57
(g78
g59
NtRp2386
(dp2387
g62
(dp2388
g82
g83
ssg71
g2382
sg64
(lp2389
S'url'
p2390
asbag57
(g78
g59
NtRp2391
(dp2392
g62
(dp2393
g89
g90
ssg71
g2382
sg64
(lp2394
S':'
asbag57
(g78
g59
NtRp2395
(dp2396
g62
(dp2397
sg71
g2382
sg64
(lp2398
g57
(g58
g59
NtRp2399
(dp2400
g62
(dp2401
g70
I5
ssg71
g2395
sg64
(lp2402
g1272
asbasbasbag57
(g73
g59
NtRp2403
(dp2404
g62
(dp2405
sg71
g67
sg64
(lp2406
g57
(g78
g59
NtRp2407
(dp2408
g62
(dp2409
g82
g83
ssg71
g2403
sg64
(lp2410
S'utcnow'
p2411
asbag57
(g78
g59
NtRp2412
(dp2413
g62
(dp2414
g89
g90
ssg71
g2403
sg64
(lp2415
S':'
asbag57
(g78
g59
NtRp2416
(dp2417
g62
(dp2418
sg71
g2403
sg64
(lp2419
g57
(g58
g59
NtRp2420
(dp2421
g62
(dp2422
g70
I5
ssg71
g2416
sg64
(lp2423
S'datetime.datetime(2012, 11, 23, 15, 29, 8, 80818)'
p2424
asbasbasbag57
(g73
g59
NtRp2425
(dp2426
g62
(dp2427
sg71
g67
sg64
(lp2428
g57
(g78
g59
NtRp2429
(dp2430
g62
(dp2431
g82
g83
ssg71
g2425
sg64
(lp2432
S'uuid'
p2433
asbag57
(g78
g59
NtRp2434
(dp2435
g62
(dp2436
g89
g90
ssg71
g2425
sg64
(lp2437
S':'
asbag57
(g78
g59
NtRp2438
(dp2439
g62
(dp2440
sg71
g2425
sg64
(lp2441
g57
(g58
g59
NtRp2442
(dp2443
g62
(dp2444
g70
I5
ssg71
g2438
sg64
(lp2445
S'sicoin/190.169.221.43.2012-11-23.10-59-08.7c7ae05a-7377-411a-af97-c632f6b427ca'
p2446
asbasbasbag57
(g73
g59
NtRp2447
(dp2448
g62
(dp2449
sg71
g67
sg64
(lp2450
g57
(g78
g59
NtRp2451
(dp2452
g62
(dp2453
g82
g83
ssg71
g2447
sg64
(lp2454
S'vars'
p2455
asbag57
(g78
g59
NtRp2456
(dp2457
g62
(dp2458
g89
g90
ssg71
g2447
sg64
(lp2459
S':'
asbag57
(g78
g59
NtRp2460
(dp2461
g62
(dp2462
sg71
g2447
sg64
(lp2463
g57
(g58
g59
NtRp2464
(dp2465
g62
(dp2466
g70
I5
ssg71
g2460
sg64
(lp2467
g57
(g66
g59
NtRp2468
(dp2469
g62
(dp2470
g70
I4
ssg71
Nsg64
(lp2471
sbasbasbasbag57
(g73
g59
NtRp2472
(dp2473
g62
(dp2474
sg71
g67
sg64
(lp2475
g57
(g78
g59
NtRp2476
(dp2477
g62
(dp2478
g82
g83
ssg71
g2472
sg64
(lp2479
S'wsgi'
p2480
asbag57
(g78
g59
NtRp2481
(dp2482
g62
(dp2483
g89
g90
ssg71
g2472
sg64
(lp2484
S':'
asbag57
(g78
g59
NtRp2485
(dp2486
g62
(dp2487
sg71
g2472
sg64
(lp2488
g57
(g58
g59
NtRp2489
(dp2490
g62
(dp2491
g70
I5
ssg71
g2485
sg64
(lp2492
g57
(g66
g59
NtRp2493
(dp2494
g62
(dp2495
g70
I4
ssg71
Nsg64
(lp2496
g57
(g73
g59
NtRp2497
(dp2498
g62
(dp2499
sg71
g2493
sg64
(lp2500
g57
(g78
g59
NtRp2501
(dp2502
g62
(dp2503
g82
g83
ssg71
g2497
sg64
(lp2504
S'environ'
p2505
asbag57
(g78
g59
NtRp2506
(dp2507
g62
(dp2508
g89
g90
ssg71
g2497
sg64
(lp2509
S':'
asbag57
(g78
g59
NtRp2510
(dp2511
g62
(dp2512
sg71
g2497
sg64
(lp2513
g57
(g58
g59
NtRp2514
(dp2515
g62
(dp2516
g70
I4
ssg71
g2510
sg64
(lp2517
g57
(g66
g59
NtRp2518
(dp2519
g62
(dp2520
g70
I3
ssg71
Nsg64
(lp2521
g57
(g73
g59
NtRp2522
(dp2523
g62
(dp2524
sg71
g2518
sg64
(lp2525
g57
(g78
g59
NtRp2526
(dp2527
g62
(dp2528
g82
g83
ssg71
g2522
sg64
(lp2529
S'HTTP_ACCEPT'
p2530
asbag57
(g78
g59
NtRp2531
(dp2532
g62
(dp2533
g89
g90
ssg71
g2522
sg64
(lp2534
S':'
asbag57
(g78
g59
NtRp2535
(dp2536
g62
(dp2537
sg71
g2522
sg64
(lp2538
g57
(g58
g59
NtRp2539
(dp2540
g62
(dp2541
g70
I3
ssg71
g2535
sg64
(lp2542
g1054
asbasbasbag57
(g73
g59
NtRp2543
(dp2544
g62
(dp2545
sg71
g2518
sg64
(lp2546
g57
(g78
g59
NtRp2547
(dp2548
g62
(dp2549
g82
g83
ssg71
g2543
sg64
(lp2550
S'HTTP_ACCEPT_ENCODING'
p2551
asbag57
(g78
g59
NtRp2552
(dp2553
g62
(dp2554
g89
g90
ssg71
g2543
sg64
(lp2555
S':'
asbag57
(g78
g59
NtRp2556
(dp2557
g62
(dp2558
sg71
g2543
sg64
(lp2559
g57
(g58
g59
NtRp2560
(dp2561
g62
(dp2562
g70
I3
ssg71
g2556
sg64
(lp2563
g1076
asbasbasbag57
(g73
g59
NtRp2564
(dp2565
g62
(dp2566
sg71
g2518
sg64
(lp2567
g57
(g78
g59
NtRp2568
(dp2569
g62
(dp2570
g82
g83
ssg71
g2564
sg64
(lp2571
S'HTTP_ACCEPT_LANGUAGE'
p2572
asbag57
(g78
g59
NtRp2573
(dp2574
g62
(dp2575
g89
g90
ssg71
g2564
sg64
(lp2576
S':'
asbag57
(g78
g59
NtRp2577
(dp2578
g62
(dp2579
sg71
g2564
sg64
(lp2580
g57
(g58
g59
NtRp2581
(dp2582
g62
(dp2583
g70
I3
ssg71
g2577
sg64
(lp2584
g1098
asbasbasbag57
(g73
g59
NtRp2585
(dp2586
g62
(dp2587
sg71
g2518
sg64
(lp2588
g57
(g78
g59
NtRp2589
(dp2590
g62
(dp2591
g82
g83
ssg71
g2585
sg64
(lp2592
S'HTTP_CONNECTION'
p2593
asbag57
(g78
g59
NtRp2594
(dp2595
g62
(dp2596
g89
g90
ssg71
g2585
sg64
(lp2597
S':'
asbag57
(g78
g59
NtRp2598
(dp2599
g62
(dp2600
sg71
g2585
sg64
(lp2601
g57
(g58
g59
NtRp2602
(dp2603
g62
(dp2604
g70
I3
ssg71
g2598
sg64
(lp2605
g1120
asbasbasbag57
(g73
g59
NtRp2606
(dp2607
g62
(dp2608
sg71
g2518
sg64
(lp2609
g57
(g78
g59
NtRp2610
(dp2611
g62
(dp2612
g82
g83
ssg71
g2606
sg64
(lp2613
S'HTTP_COOKIE'
p2614
asbag57
(g78
g59
NtRp2615
(dp2616
g62
(dp2617
g89
g90
ssg71
g2606
sg64
(lp2618
S':'
asbag57
(g78
g59
NtRp2619
(dp2620
g62
(dp2621
sg71
g2606
sg64
(lp2622
g57
(g58
g59
NtRp2623
(dp2624
g62
(dp2625
g70
I3
ssg71
g2619
sg64
(lp2626
g1142
asbasbasbag57
(g73
g59
NtRp2627
(dp2628
g62
(dp2629
sg71
g2518
sg64
(lp2630
g57
(g78
g59
NtRp2631
(dp2632
g62
(dp2633
g82
g83
ssg71
g2627
sg64
(lp2634
S'HTTP_HOST'
p2635
asbag57
(g78
g59
NtRp2636
(dp2637
g62
(dp2638
g89
g90
ssg71
g2627
sg64
(lp2639
S':'
asbag57
(g78
g59
NtRp2640
(dp2641
g62
(dp2642
sg71
g2627
sg64
(lp2643
g57
(g58
g59
NtRp2644
(dp2645
g62
(dp2646
g70
I3
ssg71
g2640
sg64
(lp2647
g1164
asbasbasbag57
(g73
g59
NtRp2648
(dp2649
g62
(dp2650
sg71
g2518
sg64
(lp2651
g57
(g78
g59
NtRp2652
(dp2653
g62
(dp2654
g82
g83
ssg71
g2648
sg64
(lp2655
S'HTTP_REFERER'
p2656
asbag57
(g78
g59
NtRp2657
(dp2658
g62
(dp2659
g89
g90
ssg71
g2648
sg64
(lp2660
S':'
asbag57
(g78
g59
NtRp2661
(dp2662
g62
(dp2663
sg71
g2648
sg64
(lp2664
g57
(g58
g59
NtRp2665
(dp2666
g62
(dp2667
g70
I3
ssg71
g2661
sg64
(lp2668
g1186
asbasbasbag57
(g73
g59
NtRp2669
(dp2670
g62
(dp2671
sg71
g2518
sg64
(lp2672
g57
(g78
g59
NtRp2673
(dp2674
g62
(dp2675
g82
g83
ssg71
g2669
sg64
(lp2676
S'HTTP_USER_AGENT'
p2677
asbag57
(g78
g59
NtRp2678
(dp2679
g62
(dp2680
g89
g90
ssg71
g2669
sg64
(lp2681
S':'
asbag57
(g78
g59
NtRp2682
(dp2683
g62
(dp2684
sg71
g2669
sg64
(lp2685
g57
(g58
g59
NtRp2686
(dp2687
g62
(dp2688
g70
I3
ssg71
g2682
sg64
(lp2689
g1208
asbasbasbag57
(g73
g59
NtRp2690
(dp2691
g62
(dp2692
sg71
g2518
sg64
(lp2693
g57
(g78
g59
NtRp2694
(dp2695
g62
(dp2696
g82
g83
ssg71
g2690
sg64
(lp2697
S'PATH_INFO'
p2698
asbag57
(g78
g59
NtRp2699
(dp2700
g62
(dp2701
g89
g90
ssg71
g2690
sg64
(lp2702
S':'
asbag57
(g78
g59
NtRp2703
(dp2704
g62
(dp2705
sg71
g2690
sg64
(lp2706
g57
(g58
g59
NtRp2707
(dp2708
g62
(dp2709
g70
I3
ssg71
g2703
sg64
(lp2710
g1272
asbasbasbag57
(g73
g59
NtRp2711
(dp2712
g62
(dp2713
sg71
g2518
sg64
(lp2714
g57
(g78
g59
NtRp2715
(dp2716
g62
(dp2717
g82
g83
ssg71
g2711
sg64
(lp2718
S'QUERY_STRING'
p2719
asbag57
(g78
g59
NtRp2720
(dp2721
g62
(dp2722
g89
g90
ssg71
g2711
sg64
(lp2723
S':'
asbag57
(g78
g59
NtRp2724
(dp2725
g62
(dp2726
sg71
g2711
sg64
(lp2727
g57
(g58
g59
NtRp2728
(dp2729
g62
(dp2730
g70
I3
ssg71
g2724
sg64
(lp2731
S''
asbasbasbag57
(g73
g59
NtRp2732
(dp2733
g62
(dp2734
sg71
g2518
sg64
(lp2735
g57
(g78
g59
NtRp2736
(dp2737
g62
(dp2738
g82
g83
ssg71
g2732
sg64
(lp2739
S'REMOTE_ADDR'
p2740
asbag57
(g78
g59
NtRp2741
(dp2742
g62
(dp2743
g89
g90
ssg71
g2732
sg64
(lp2744
S':'
asbag57
(g78
g59
NtRp2745
(dp2746
g62
(dp2747
sg71
g2732
sg64
(lp2748
g57
(g58
g59
NtRp2749
(dp2750
g62
(dp2751
g70
I3
ssg71
g2745
sg64
(lp2752
g238
asbasbasbag57
(g73
g59
NtRp2753
(dp2754
g62
(dp2755
sg71
g2518
sg64
(lp2756
g57
(g78
g59
NtRp2757
(dp2758
g62
(dp2759
g82
g83
ssg71
g2753
sg64
(lp2760
S'REMOTE_PORT'
p2761
asbag57
(g78
g59
NtRp2762
(dp2763
g62
(dp2764
g89
g90
ssg71
g2753
sg64
(lp2765
S':'
asbag57
(g78
g59
NtRp2766
(dp2767
g62
(dp2768
sg71
g2753
sg64
(lp2769
g57
(g58
g59
NtRp2770
(dp2771
g62
(dp2772
g70
I3
ssg71
g2766
sg64
(lp2773
g1336
asbasbasbag57
(g73
g59
NtRp2774
(dp2775
g62
(dp2776
sg71
g2518
sg64
(lp2777
g57
(g78
g59
NtRp2778
(dp2779
g62
(dp2780
g82
g83
ssg71
g2774
sg64
(lp2781
S'REQUEST_METHOD'
p2782
asbag57
(g78
g59
NtRp2783
(dp2784
g62
(dp2785
g89
g90
ssg71
g2774
sg64
(lp2786
S':'
asbag57
(g78
g59
NtRp2787
(dp2788
g62
(dp2789
sg71
g2774
sg64
(lp2790
g57
(g58
g59
NtRp2791
(dp2792
g62
(dp2793
g70
I3
ssg71
g2787
sg64
(lp2794
g1358
asbasbasbag57
(g73
g59
NtRp2795
(dp2796
g62
(dp2797
sg71
g2518
sg64
(lp2798
g57
(g78
g59
NtRp2799
(dp2800
g62
(dp2801
g82
g83
ssg71
g2795
sg64
(lp2802
S'REQUEST_URI'
p2803
asbag57
(g78
g59
NtRp2804
(dp2805
g62
(dp2806
g89
g90
ssg71
g2795
sg64
(lp2807
S':'
asbag57
(g78
g59
NtRp2808
(dp2809
g62
(dp2810
sg71
g2795
sg64
(lp2811
g57
(g58
g59
NtRp2812
(dp2813
g62
(dp2814
g70
I3
ssg71
g2808
sg64
(lp2815
g1272
asbasbasbag57
(g73
g59
NtRp2816
(dp2817
g62
(dp2818
sg71
g2518
sg64
(lp2819
g57
(g78
g59
NtRp2820
(dp2821
g62
(dp2822
g82
g83
ssg71
g2816
sg64
(lp2823
S'SCRIPT_NAME'
p2824
asbag57
(g78
g59
NtRp2825
(dp2826
g62
(dp2827
g89
g90
ssg71
g2816
sg64
(lp2828
S':'
asbag57
(g78
g59
NtRp2829
(dp2830
g62
(dp2831
sg71
g2816
sg64
(lp2832
g57
(g58
g59
NtRp2833
(dp2834
g62
(dp2835
g70
I3
ssg71
g2829
sg64
(lp2836
S''
asbasbasbag57
(g73
g59
NtRp2837
(dp2838
g62
(dp2839
sg71
g2518
sg64
(lp2840
g57
(g78
g59
NtRp2841
(dp2842
g62
(dp2843
g82
g83
ssg71
g2837
sg64
(lp2844
S'SERVER_NAME'
p2845
asbag57
(g78
g59
NtRp2846
(dp2847
g62
(dp2848
g89
g90
ssg71
g2837
sg64
(lp2849
S':'
asbag57
(g78
g59
NtRp2850
(dp2851
g62
(dp2852
sg71
g2837
sg64
(lp2853
g57
(g58
g59
NtRp2854
(dp2855
g62
(dp2856
g70
I3
ssg71
g2850
sg64
(lp2857
g1422
asbasbasbag57
(g73
g59
NtRp2858
(dp2859
g62
(dp2860
sg71
g2518
sg64
(lp2861
g57
(g78
g59
NtRp2862
(dp2863
g62
(dp2864
g82
g83
ssg71
g2858
sg64
(lp2865
S'SERVER_PORT'
p2866
asbag57
(g78
g59
NtRp2867
(dp2868
g62
(dp2869
g89
g90
ssg71
g2858
sg64
(lp2870
S':'
asbag57
(g78
g59
NtRp2871
(dp2872
g62
(dp2873
sg71
g2858
sg64
(lp2874
g57
(g58
g59
NtRp2875
(dp2876
g62
(dp2877
g70
I3
ssg71
g2871
sg64
(lp2878
g1444
asbasbasbag57
(g73
g59
NtRp2879
(dp2880
g62
(dp2881
sg71
g2518
sg64
(lp2882
g57
(g78
g59
NtRp2883
(dp2884
g62
(dp2885
g82
g83
ssg71
g2879
sg64
(lp2886
S'SERVER_PROTOCOL'
p2887
asbag57
(g78
g59
NtRp2888
(dp2889
g62
(dp2890
g89
g90
ssg71
g2879
sg64
(lp2891
S':'
asbag57
(g78
g59
NtRp2892
(dp2893
g62
(dp2894
sg71
g2879
sg64
(lp2895
g57
(g58
g59
NtRp2896
(dp2897
g62
(dp2898
g70
I3
ssg71
g2892
sg64
(lp2899
g1466
asbasbasbag57
(g73
g59
NtRp2900
(dp2901
g62
(dp2902
sg71
g2518
sg64
(lp2903
g57
(g78
g59
NtRp2904
(dp2905
g62
(dp2906
g82
g83
ssg71
g2900
sg64
(lp2907
S'SERVER_SOFTWARE'
p2908
asbag57
(g78
g59
NtRp2909
(dp2910
g62
(dp2911
g89
g90
ssg71
g2900
sg64
(lp2912
S':'
asbag57
(g78
g59
NtRp2913
(dp2914
g62
(dp2915
sg71
g2900
sg64
(lp2916
g57
(g58
g59
NtRp2917
(dp2918
g62
(dp2919
g70
I3
ssg71
g2913
sg64
(lp2920
g1488
asbasbasbag57
(g73
g59
NtRp2921
(dp2922
g62
(dp2923
sg71
g2518
sg64
(lp2924
g57
(g78
g59
NtRp2925
(dp2926
g62
(dp2927
g82
g83
ssg71
g2921
sg64
(lp2928
S'wsgi.errors'
p2929
asbag57
(g78
g59
NtRp2930
(dp2931
g62
(dp2932
g89
g90
ssg71
g2921
sg64
(lp2933
S':'
asbag57
(g78
g59
NtRp2934
(dp2935
g62
(dp2936
sg71
g2921
sg64
(lp2937
g57
(g58
g59
NtRp2938
(dp2939
g62
(dp2940
g70
I3
ssg71
g2934
sg64
(lp2941
S"<open file '<stderr>', mode 'w' at 0xb77470d0>"
p2942
asbasbasbag57
(g73
g59
NtRp2943
(dp2944
g62
(dp2945
sg71
g2518
sg64
(lp2946
g57
(g78
g59
NtRp2947
(dp2948
g62
(dp2949
g82
g83
ssg71
g2943
sg64
(lp2950
S'wsgi.file_wrapper'
p2951
asbag57
(g78
g59
NtRp2952
(dp2953
g62
(dp2954
g89
g90
ssg71
g2943
sg64
(lp2955
S':'
asbag57
(g78
g59
NtRp2956
(dp2957
g62
(dp2958
sg71
g2943
sg64
(lp2959
g57
(g58
g59
NtRp2960
(dp2961
g62
(dp2962
g70
I3
ssg71
g2956
sg64
(lp2963
S'<class wsgiref.util.FileWrapper at 0x9b6489c>'
p2964
asbasbasbag57
(g73
g59
NtRp2965
(dp2966
g62
(dp2967
sg71
g2518
sg64
(lp2968
g57
(g78
g59
NtRp2969
(dp2970
g62
(dp2971
g82
g83
ssg71
g2965
sg64
(lp2972
S'wsgi.input'
p2973
asbag57
(g78
g59
NtRp2974
(dp2975
g62
(dp2976
g89
g90
ssg71
g2965
sg64
(lp2977
S':'
asbag57
(g78
g59
NtRp2978
(dp2979
g62
(dp2980
sg71
g2965
sg64
(lp2981
g57
(g58
g59
NtRp2982
(dp2983
g62
(dp2984
g70
I3
ssg71
g2978
sg64
(lp2985
S'<cStringIO.StringO object at 0xa219780>'
p2986
asbasbasbag57
(g73
g59
NtRp2987
(dp2988
g62
(dp2989
sg71
g2518
sg64
(lp2990
g57
(g78
g59
NtRp2991
(dp2992
g62
(dp2993
g82
g83
ssg71
g2987
sg64
(lp2994
S'wsgi.multiprocess'
p2995
asbag57
(g78
g59
NtRp2996
(dp2997
g62
(dp2998
g89
g90
ssg71
g2987
sg64
(lp2999
S':'
asbag57
(g78
g59
NtRp3000
(dp3001
g62
(dp3002
sg71
g2987
sg64
(lp3003
g57
(g58
g59
NtRp3004
(dp3005
g62
(dp3006
g70
I3
ssg71
g3000
sg64
(lp3007
g100
asbasbasbag57
(g73
g59
NtRp3008
(dp3009
g62
(dp3010
sg71
g2518
sg64
(lp3011
g57
(g78
g59
NtRp3012
(dp3013
g62
(dp3014
g82
g83
ssg71
g3008
sg64
(lp3015
S'wsgi.multithread'
p3016
asbag57
(g78
g59
NtRp3017
(dp3018
g62
(dp3019
g89
g90
ssg71
g3008
sg64
(lp3020
S':'
asbag57
(g78
g59
NtRp3021
(dp3022
g62
(dp3023
sg71
g3008
sg64
(lp3024
g57
(g58
g59
NtRp3025
(dp3026
g62
(dp3027
g70
I3
ssg71
g3021
sg64
(lp3028
g1727
asbasbasbag57
(g73
g59
NtRp3029
(dp3030
g62
(dp3031
sg71
g2518
sg64
(lp3032
g57
(g78
g59
NtRp3033
(dp3034
g62
(dp3035
g82
g83
ssg71
g3029
sg64
(lp3036
S'wsgi.run_once'
p3037
asbag57
(g78
g59
NtRp3038
(dp3039
g62
(dp3040
g89
g90
ssg71
g3029
sg64
(lp3041
S':'
asbag57
(g78
g59
NtRp3042
(dp3043
g62
(dp3044
sg71
g3029
sg64
(lp3045
g57
(g58
g59
NtRp3046
(dp3047
g62
(dp3048
g70
I3
ssg71
g3042
sg64
(lp3049
g100
asbasbasbag57
(g73
g59
NtRp3050
(dp3051
g62
(dp3052
sg71
g2518
sg64
(lp3053
g57
(g78
g59
NtRp3054
(dp3055
g62
(dp3056
g82
g83
ssg71
g3050
sg64
(lp3057
S'wsgi.url_scheme'
p3058
asbag57
(g78
g59
NtRp3059
(dp3060
g62
(dp3061
g89
g90
ssg71
g3050
sg64
(lp3062
S':'
asbag57
(g78
g59
NtRp3063
(dp3064
g62
(dp3065
sg71
g3050
sg64
(lp3066
g57
(g58
g59
NtRp3067
(dp3068
g62
(dp3069
g70
I3
ssg71
g3063
sg64
(lp3070
g1770
asbasbasbag57
(g73
g59
NtRp3071
(dp3072
g62
(dp3073
sg71
g2518
sg64
(lp3074
g57
(g78
g59
NtRp3075
(dp3076
g62
(dp3077
g82
g83
ssg71
g3071
sg64
(lp3078
S'wsgi.version'
p3079
asbag57
(g78
g59
NtRp3080
(dp3081
g62
(dp3082
g89
g90
ssg71
g3071
sg64
(lp3083
S':'
asbag57
(g78
g59
NtRp3084
(dp3085
g62
(dp3086
sg71
g3071
sg64
(lp3087
g57
(g58
g59
NtRp3088
(dp3089
g62
(dp3090
g70
I3
ssg71
g3084
sg64
(lp3091
S'1'
asbasbasbasbasbasbasbasbasbasbasbasbasbsS'frames'
p3092
(lp3093
(dp3094
S'file'
p3095
S'/home/perdomor/web2py/gluon/restricted.py'
p3096
sS'dump'
p3097
(dp3098
S'environment'
p3099
S"{'A': <class 'gluon.html.A'>, 'Auth': <class 'gluon.tools.Auth'>, 'B': <class 'gluon.html.B'>, 'BEAUTIFY': <class 'gluon.html.BEAUTIFY'>, 'BODY': <class 'gluon.html.BODY'>, 'BR': <class 'gluon.html.BR'>, 'BUTTON': <class 'gluon.html.BUTTON'>, 'CAT': <class 'gluon.html.CAT'>, 'CENTER': <class 'gluon.html.CENTER'>, 'CLEANUP': <class 'gluon.validators.CLEANUP'>, ...}"
p3100
sS'ccode'
p3101
S'<code object <module> at 0x9ea8b18, file "/home/...s/sicoin/controllers/correspondencia.py", line 2>'
p3102
ssS'lnum'
p3103
I209
sS'lines'
p3104
(dp3105
I204
S'    try:'
p3106
sI205
S'        if type(code) == types.CodeType:'
p3107
sI206
S'            ccode = code'
p3108
sI207
S'        else:'
p3109
sI208
S'            ccode = compile2(code,layer)'
p3110
sI209
S'        exec ccode in environment'
p3111
sI210
S'    except HTTP:'
p3112
sI211
S'        raise'
p3113
sI212
S'    except RestrictedError:'
p3114
sI213
S'        # do not encapsulate (obfuscate) the original RestrictedError'
p3115
ssS'call'
p3116
S'(code="# coding: utf8\\nT.force(\'es\')\\nfrom plugin_solidfo...onse._vars=response._caller(ver_correspondencia)\\n", environment={\'A\': <class \'gluon.html.A\'>, \'Auth\': <class \'gluon.tools.Auth\'>, \'B\': <class \'gluon.html.B\'>, \'BEAUTIFY\': <class \'gluon.html.BEAUTIFY\'>, \'BODY\': <class \'gluon.html.BODY\'>, \'BR\': <class \'gluon.html.BR\'>, \'BUTTON\': <class \'gluon.html.BUTTON\'>, \'CAT\': <class \'gluon.html.CAT\'>, \'CENTER\': <class \'gluon.html.CENTER\'>, \'CLEANUP\': <class \'gluon.validators.CLEANUP\'>, ...}, layer=\'/home/perdomor/web2py/applications/sicoin/controllers/correspondencia.py\')'
p3117
sS'func'
p3118
S'restricted'
p3119
sa(dp3120
g3095
S'/home/perdomor/web2py/applications/sicoin/controllers/correspondencia.py'
p3121
sg3097
(dp3122
sg3103
I468
sg3104
(dp3123
I457
S'        mes= "agosto"'
p3124
sI458
S'    elif mes == 9:'
p3125
sI459
S'        mes= "septiembre"'
p3126
sI460
S'    elif mes == 10:'
p3127
sI461
S'        mes= "octubre"'
p3128
sI462
S'    elif mes == 11:'
p3129
sI463
S'        mes= "noviembre"'
p3130
sI464
S'    else:'
p3131
sI465
S'        mes = "diciembre"'
p3132
sI466
S'    return mes'
p3133
ssg3116
S'()'
p3134
sg3118
S'<module>'
p3135
sa(dp3136
g3095
S'/home/perdomor/web2py/gluon/globals.py'
p3137
sg3097
(dp3138
S'self'
p3139
S'undefined'
p3140
sS'f'
S'<function ver_correspondencia>'
p3141
ssg3103
I186
sg3104
(dp3142
I181
S'        self.menu = []             # used by the default view layout'
p3143
sI182
S'        self.files = []            # used by web2py_ajax.html'
p3144
sI183
S'        self.generic_patterns = [] # patterns to allow generic views'
p3145
sI184
S"        self.delimiters = ('{{','}}')"
p3146
sI185
S'        self._vars = None'
p3147
sI186
S'        self._caller = lambda f: f()'
p3148
sI187
S'        self._view_environment = None'
p3149
sI188
S'        self._custom_commit = None'
p3150
sI189
S'        self._custom_rollback = None'
p3151
sI190
S''
ssg3116
S'(f=<function ver_correspondencia>)'
p3152
sg3118
S'<lambda>'
p3153
sa(dp3154
g3095
S'/home/perdomor/web2py/gluon/tools.py'
p3155
sg3097
(dp3156
S'action'
p3157
S'<function ver_correspondencia>'
p3158
sS'a'
S'()'
p3159
sS'b'
g45
ssg3103
I2809
sg3104
(dp3160
I2804
S'                    flag = condition'
p3161
sI2805
S'                if not flag:'
p3162
sI2806
S'                    current.session.flash = self.messages.access_denied'
p3163
sI2807
S'                    return call_or_redirect('
p3164
sI2808
S'                        self.settings.on_failed_authorization)'
p3165
sI2809
S'                return action(*a, **b)'
p3166
sI2810
S'            f.__doc__ = action.__doc__'
p3167
sI2811
S'            f.__name__ = action.__name__'
p3168
sI2812
S'            f.__dict__.update(action.__dict__)'
p3169
sI2813
S'            return f'
p3170
ssg3116
S'(*a=(), **b={})'
p3171
sg3118
S'f'
sa(dp3172
g3095
S'/home/perdomor/web2py/applications/sicoin/controllers/correspondencia.py'
p3173
sg3097
(dp3174
S'builtinFalse'
p3175
g100
sS'showid'
p3176
g3140
sS'correspondencia_archive'
p3177
g3140
sS'form'
p3178
g3140
sS'global SOLIDFORM'
p3179
S"<class 'applications.sicoin.modules.plugin_solidform.SOLIDFORM'>"
p3180
sS'fields'
p3181
S"[['nro_de_documento', 'fecha_correspondencia'], ['tipo_de_documento', 'estatus'], 'asunto', ['departamento_origen', 'departamento_destino'], [None, None], ['remitente', 'destinatario'], [None, 'observaciones'], ['asignado_a', 'registrado_por']]"
p3182
sS'builtinTrue'
p3183
g1727
sS'readonly'
p3184
g3140
sS'global db'
p3185
S'<DAL mysql://root:12345@localhost/db_sicoin>'
p3186
sS'db.correspondencia_archive'
p3187
S'<Table correspondencia_archive (id,current_recor...o_a,registrado_por,modificado_por,modificado_el)>'
p3188
ssg3103
I122
sg3104
(dp3189
I117
S'        form = SOLIDFORM(db.correspondencia, correspondencia, fields=fields, showid=False, readonly=True)'
p3190
sI118
S'    elif (tabla == "archivo"):'
p3191
sI119
S'        db.correspondencia_archive.modificado_el.readable = True'
p3192
sI120
S'        db.correspondencia_archive.modificado_por.readable = True'
p3193
sI121
S'        correspondencia = db(db.correspondencia_archive.id==id).select().first()'
p3194
sI122
S'        form = SOLIDFORM(db.correspondencia_archive, correspondencia_archive, fields=fields, showid=False, readonly=True)'
p3195
sI123
S'    if form.accepts(request.vars, session):'
p3196
sI124
S"        session.flash = 'registro procesado con \xc3\xa9xito'"
p3197
sI125
S"        redirect(URL('/listar_correspondencias'))"
p3198
sI126
S''
ssg3116
S'()'
p3199
sg3118
S'ver_correspondencia'
p3200
sasS'pyver'
p3201
S'Python 2.7.2+: /usr/bin/python'
p3202
sS'session'
p3203
g57
(g58
g59
NtRp3204
(dp3205
g62
(dp3206
sg64
(lp3207
g57
(g66
g59
NtRp3208
(dp3209
g62
(dp3210
g70
I5
ssg71
Nsg64
(lp3211
g57
(g73
g59
NtRp3212
(dp3213
g62
(dp3214
sg71
g3208
sg64
(lp3215
g57
(g78
g59
NtRp3216
(dp3217
g62
(dp3218
g82
g83
ssg71
g3212
sg64
(lp3219
S'auth'
p3220
asbag57
(g78
g59
NtRp3221
(dp3222
g62
(dp3223
g89
g90
ssg71
g3212
sg64
(lp3224
S':'
asbag57
(g78
g59
NtRp3225
(dp3226
g62
(dp3227
sg71
g3212
sg64
(lp3228
g57
(g58
g59
NtRp3229
(dp3230
g62
(dp3231
g70
I5
ssg71
g3225
sg64
(lp3232
g57
(g66
g59
NtRp3233
(dp3234
g62
(dp3235
g70
I4
ssg71
Nsg64
(lp3236
g57
(g73
g59
NtRp3237
(dp3238
g62
(dp3239
sg71
g3233
sg64
(lp3240
g57
(g78
g59
NtRp3241
(dp3242
g62
(dp3243
g82
g83
ssg71
g3237
sg64
(lp3244
S'expiration'
p3245
asbag57
(g78
g59
NtRp3246
(dp3247
g62
(dp3248
g89
g90
ssg71
g3237
sg64
(lp3249
S':'
asbag57
(g78
g59
NtRp3250
(dp3251
g62
(dp3252
sg71
g3237
sg64
(lp3253
g57
(g58
g59
NtRp3254
(dp3255
g62
(dp3256
g70
I4
ssg71
g3250
sg64
(lp3257
S'3600'
p3258
asbasbasbag57
(g73
g59
NtRp3259
(dp3260
g62
(dp3261
sg71
g3233
sg64
(lp3262
g57
(g78
g59
NtRp3263
(dp3264
g62
(dp3265
g82
g83
ssg71
g3259
sg64
(lp3266
S'hmac_key'
p3267
asbag57
(g78
g59
NtRp3268
(dp3269
g62
(dp3270
g89
g90
ssg71
g3259
sg64
(lp3271
S':'
asbag57
(g78
g59
NtRp3272
(dp3273
g62
(dp3274
sg71
g3259
sg64
(lp3275
g57
(g58
g59
NtRp3276
(dp3277
g62
(dp3278
g70
I4
ssg71
g3272
sg64
(lp3279
S'501d84ce-7469-4ff6-917e-509d67f36119'
p3280
asbasbasbag57
(g73
g59
NtRp3281
(dp3282
g62
(dp3283
sg71
g3233
sg64
(lp3284
g57
(g78
g59
NtRp3285
(dp3286
g62
(dp3287
g82
g83
ssg71
g3281
sg64
(lp3288
S'last_visit'
p3289
asbag57
(g78
g59
NtRp3290
(dp3291
g62
(dp3292
g89
g90
ssg71
g3281
sg64
(lp3293
S':'
asbag57
(g78
g59
NtRp3294
(dp3295
g62
(dp3296
sg71
g3281
sg64
(lp3297
g57
(g58
g59
NtRp3298
(dp3299
g62
(dp3300
g70
I4
ssg71
g3294
sg64
(lp3301
S'datetime.datetime(2012, 11, 23, 10, 57, 11, 920420)'
p3302
asbasbasbag57
(g73
g59
NtRp3303
(dp3304
g62
(dp3305
sg71
g3233
sg64
(lp3306
g57
(g78
g59
NtRp3307
(dp3308
g62
(dp3309
g82
g83
ssg71
g3303
sg64
(lp3310
S'remember'
p3311
asbag57
(g78
g59
NtRp3312
(dp3313
g62
(dp3314
g89
g90
ssg71
g3303
sg64
(lp3315
S':'
asbag57
(g78
g59
NtRp3316
(dp3317
g62
(dp3318
sg71
g3303
sg64
(lp3319
g57
(g58
g59
NtRp3320
(dp3321
g62
(dp3322
g70
I4
ssg71
g3316
sg64
(lp3323
g100
asbasbasbag57
(g73
g59
NtRp3324
(dp3325
g62
(dp3326
sg71
g3233
sg64
(lp3327
g57
(g78
g59
NtRp3328
(dp3329
g62
(dp3330
g82
g83
ssg71
g3324
sg64
(lp3331
S'user'
p3332
asbag57
(g78
g59
NtRp3333
(dp3334
g62
(dp3335
g89
g90
ssg71
g3324
sg64
(lp3336
S':'
asbag57
(g78
g59
NtRp3337
(dp3338
g62
(dp3339
sg71
g3324
sg64
(lp3340
g57
(g58
g59
NtRp3341
(dp3342
g62
(dp3343
g70
I4
ssg71
g3337
sg64
(lp3344
g57
(g66
g59
NtRp3345
(dp3346
g62
(dp3347
g70
I3
ssg71
Nsg64
(lp3348
g57
(g73
g59
NtRp3349
(dp3350
g62
(dp3351
sg71
g3345
sg64
(lp3352
g57
(g78
g59
NtRp3353
(dp3354
g62
(dp3355
g82
g83
ssg71
g3349
sg64
(lp3356
S'departamento'
p3357
asbag57
(g78
g59
NtRp3358
(dp3359
g62
(dp3360
g89
g90
ssg71
g3349
sg64
(lp3361
S':'
asbag57
(g78
g59
NtRp3362
(dp3363
g62
(dp3364
sg71
g3349
sg64
(lp3365
g57
(g58
g59
NtRp3366
(dp3367
g62
(dp3368
g70
I3
ssg71
g3362
sg64
(lp3369
S'7'
asbasbasbag57
(g73
g59
NtRp3370
(dp3371
g62
(dp3372
sg71
g3345
sg64
(lp3373
g57
(g78
g59
NtRp3374
(dp3375
g62
(dp3376
g82
g83
ssg71
g3370
sg64
(lp3377
S'email'
p3378
asbag57
(g78
g59
NtRp3379
(dp3380
g62
(dp3381
g89
g90
ssg71
g3370
sg64
(lp3382
S':'
asbag57
(g78
g59
NtRp3383
(dp3384
g62
(dp3385
sg71
g3370
sg64
(lp3386
g57
(g58
g59
NtRp3387
(dp3388
g62
(dp3389
g70
I3
ssg71
g3383
sg64
(lp3390
S'perdomor@ucv.ve'
p3391
asbasbasbag57
(g73
g59
NtRp3392
(dp3393
g62
(dp3394
sg71
g3345
sg64
(lp3395
g57
(g78
g59
NtRp3396
(dp3397
g62
(dp3398
g82
g83
ssg71
g3392
sg64
(lp3399
S'first_name'
p3400
asbag57
(g78
g59
NtRp3401
(dp3402
g62
(dp3403
g89
g90
ssg71
g3392
sg64
(lp3404
S':'
asbag57
(g78
g59
NtRp3405
(dp3406
g62
(dp3407
sg71
g3392
sg64
(lp3408
g57
(g58
g59
NtRp3409
(dp3410
g62
(dp3411
g70
I3
ssg71
g3405
sg64
(lp3412
S'Roberto'
p3413
asbasbasbag57
(g73
g59
NtRp3414
(dp3415
g62
(dp3416
sg71
g3345
sg64
(lp3417
g57
(g78
g59
NtRp3418
(dp3419
g62
(dp3420
g82
g83
ssg71
g3414
sg64
(lp3421
S'id'
p3422
asbag57
(g78
g59
NtRp3423
(dp3424
g62
(dp3425
g89
g90
ssg71
g3414
sg64
(lp3426
S':'
asbag57
(g78
g59
NtRp3427
(dp3428
g62
(dp3429
sg71
g3414
sg64
(lp3430
g57
(g58
g59
NtRp3431
(dp3432
g62
(dp3433
g70
I3
ssg71
g3427
sg64
(lp3434
S'1'
asbasbasbag57
(g73
g59
NtRp3435
(dp3436
g62
(dp3437
sg71
g3345
sg64
(lp3438
g57
(g78
g59
NtRp3439
(dp3440
g62
(dp3441
g82
g83
ssg71
g3435
sg64
(lp3442
S'last_name'
p3443
asbag57
(g78
g59
NtRp3444
(dp3445
g62
(dp3446
g89
g90
ssg71
g3435
sg64
(lp3447
S':'
asbag57
(g78
g59
NtRp3448
(dp3449
g62
(dp3450
sg71
g3435
sg64
(lp3451
g57
(g58
g59
NtRp3452
(dp3453
g62
(dp3454
g70
I3
ssg71
g3448
sg64
(lp3455
S'Perdomo'
p3456
asbasbasbag57
(g73
g59
NtRp3457
(dp3458
g62
(dp3459
sg71
g3345
sg64
(lp3460
g57
(g78
g59
NtRp3461
(dp3462
g62
(dp3463
g82
g83
ssg71
g3457
sg64
(lp3464
S'password'
p3465
asbag57
(g78
g59
NtRp3466
(dp3467
g62
(dp3468
g89
g90
ssg71
g3457
sg64
(lp3469
S':'
asbag57
(g78
g59
NtRp3470
(dp3471
g62
(dp3472
sg71
g3457
sg64
(lp3473
g57
(g58
g59
NtRp3474
(dp3475
g62
(dp3476
g70
I3
ssg71
g3470
sg64
(lp3477
S'pbkdf2(1000,20,sha512)$88c1e85c9dcdecbb$11118ea249dd8593828d16a3639aa7afce22ea70'
p3478
asbasbasbag57
(g73
g59
NtRp3479
(dp3480
g62
(dp3481
sg71
g3345
sg64
(lp3482
g57
(g78
g59
NtRp3483
(dp3484
g62
(dp3485
g82
g83
ssg71
g3479
sg64
(lp3486
S'registration_id'
p3487
asbag57
(g78
g59
NtRp3488
(dp3489
g62
(dp3490
g89
g90
ssg71
g3479
sg64
(lp3491
S':'
asbag57
(g78
g59
NtRp3492
(dp3493
g62
(dp3494
sg71
g3479
sg64
(lp3495
g57
(g58
g59
NtRp3496
(dp3497
g62
(dp3498
g70
I3
ssg71
g3492
sg64
(lp3499
S''
asbasbasbag57
(g73
g59
NtRp3500
(dp3501
g62
(dp3502
sg71
g3345
sg64
(lp3503
g57
(g78
g59
NtRp3504
(dp3505
g62
(dp3506
g82
g83
ssg71
g3500
sg64
(lp3507
S'registration_key'
p3508
asbag57
(g78
g59
NtRp3509
(dp3510
g62
(dp3511
g89
g90
ssg71
g3500
sg64
(lp3512
S':'
asbag57
(g78
g59
NtRp3513
(dp3514
g62
(dp3515
sg71
g3500
sg64
(lp3516
g57
(g58
g59
NtRp3517
(dp3518
g62
(dp3519
g70
I3
ssg71
g3513
sg64
(lp3520
S''
asbasbasbag57
(g73
g59
NtRp3521
(dp3522
g62
(dp3523
sg71
g3345
sg64
(lp3524
g57
(g78
g59
NtRp3525
(dp3526
g62
(dp3527
g82
g83
ssg71
g3521
sg64
(lp3528
S'reset_password_key'
p3529
asbag57
(g78
g59
NtRp3530
(dp3531
g62
(dp3532
g89
g90
ssg71
g3521
sg64
(lp3533
S':'
asbag57
(g78
g59
NtRp3534
(dp3535
g62
(dp3536
sg71
g3521
sg64
(lp3537
g57
(g58
g59
NtRp3538
(dp3539
g62
(dp3540
g70
I3
ssg71
g3534
sg64
(lp3541
S''
asbasbasbasbasbasbasbag57
(g73
g59
NtRp3542
(dp3543
g62
(dp3544
sg71
g3233
sg64
(lp3545
g57
(g78
g59
NtRp3546
(dp3547
g62
(dp3548
g82
g83
ssg71
g3542
sg64
(lp3549
S'user_groups'
p3550
asbag57
(g78
g59
NtRp3551
(dp3552
g62
(dp3553
g89
g90
ssg71
g3542
sg64
(lp3554
S':'
asbag57
(g78
g59
NtRp3555
(dp3556
g62
(dp3557
sg71
g3542
sg64
(lp3558
g57
(g58
g59
NtRp3559
(dp3560
g62
(dp3561
g70
I4
ssg71
g3555
sg64
(lp3562
g57
(g66
g59
NtRp3563
(dp3564
g62
(dp3565
g70
I3
ssg71
Nsg64
(lp3566
g57
(g73
g59
NtRp3567
(dp3568
g62
(dp3569
sg71
g3563
sg64
(lp3570
g57
(g78
g59
NtRp3571
(dp3572
g62
(dp3573
g82
g83
ssg71
g3567
sg64
(lp3574
S'1'
asbag57
(g78
g59
NtRp3575
(dp3576
g62
(dp3577
g89
g90
ssg71
g3567
sg64
(lp3578
S':'
asbag57
(g78
g59
NtRp3579
(dp3580
g62
(dp3581
sg71
g3567
sg64
(lp3582
g57
(g58
g59
NtRp3583
(dp3584
g62
(dp3585
g70
I3
ssg71
g3579
sg64
(lp3586
S'user_1'
p3587
asbasbasbag57
(g73
g59
NtRp3588
(dp3589
g62
(dp3590
sg71
g3563
sg64
(lp3591
g57
(g78
g59
NtRp3592
(dp3593
g62
(dp3594
g82
g83
ssg71
g3588
sg64
(lp3595
S'4'
asbag57
(g78
g59
NtRp3596
(dp3597
g62
(dp3598
g89
g90
ssg71
g3588
sg64
(lp3599
S':'
asbag57
(g78
g59
NtRp3600
(dp3601
g62
(dp3602
sg71
g3588
sg64
(lp3603
g57
(g58
g59
NtRp3604
(dp3605
g62
(dp3606
g70
I3
ssg71
g3600
sg64
(lp3607
S'administrador'
p3608
asbasbasbag57
(g73
g59
NtRp3609
(dp3610
g62
(dp3611
sg71
g3563
sg64
(lp3612
g57
(g78
g59
NtRp3613
(dp3614
g62
(dp3615
g82
g83
ssg71
g3609
sg64
(lp3616
S'6'
asbag57
(g78
g59
NtRp3617
(dp3618
g62
(dp3619
g89
g90
ssg71
g3609
sg64
(lp3620
S':'
asbag57
(g78
g59
NtRp3621
(dp3622
g62
(dp3623
sg71
g3609
sg64
(lp3624
g57
(g58
g59
NtRp3625
(dp3626
g62
(dp3627
g70
I3
ssg71
g3621
sg64
(lp3628
S'analista'
p3629
asbasbasbasbasbasbasbasbasbasbasbag57
(g73
g59
NtRp3630
(dp3631
g62
(dp3632
sg71
g3208
sg64
(lp3633
g57
(g78
g59
NtRp3634
(dp3635
g62
(dp3636
g82
g83
ssg71
g3630
sg64
(lp3637
S'flash'
p3638
asbag57
(g78
g59
NtRp3639
(dp3640
g62
(dp3641
g89
g90
ssg71
g3630
sg64
(lp3642
S':'
asbag57
(g78
g59
NtRp3643
(dp3644
g62
(dp3645
sg71
g3630
sg64
(lp3646
g57
(g58
g59
NtRp3647
(dp3648
g62
(dp3649
g70
I5
ssg71
g3643
sg64
(lp3650
S'None'
p3651
asbasbasbag57
(g73
g59
NtRp3652
(dp3653
g62
(dp3654
sg71
g3208
sg64
(lp3655
g57
(g78
g59
NtRp3656
(dp3657
g62
(dp3658
g82
g83
ssg71
g3652
sg64
(lp3659
S'pag_previa'
p3660
asbag57
(g78
g59
NtRp3661
(dp3662
g62
(dp3663
g89
g90
ssg71
g3652
sg64
(lp3664
S':'
asbag57
(g78
g59
NtRp3665
(dp3666
g62
(dp3667
sg71
g3652
sg64
(lp3668
g57
(g58
g59
NtRp3669
(dp3670
g62
(dp3671
g70
I5
ssg71
g3665
sg64
(lp3672
S'/sicoin/correspondencia/listar_correspondencias'
p3673
asbasbasbag57
(g73
g59
NtRp3674
(dp3675
g62
(dp3676
sg71
g3208
sg64
(lp3677
g57
(g78
g59
NtRp3678
(dp3679
g62
(dp3680
g82
g83
ssg71
g3674
sg64
(lp3681
S'reporte'
p3682
asbag57
(g78
g59
NtRp3683
(dp3684
g62
(dp3685
g89
g90
ssg71
g3674
sg64
(lp3686
S':'
asbag57
(g78
g59
NtRp3687
(dp3688
g62
(dp3689
sg71
g3674
sg64
(lp3690
g57
(g58
g59
NtRp3691
(dp3692
g62
(dp3693
g70
I5
ssg71
g3687
sg64
(lp3694
S''
asbasbasbasbasbsS'etype'
p3695
S"<type 'exceptions.NameError'>"
p3696
sS'date'
p3697
S'Fri Nov 23 10:59:08 2012'
p3698
sS'response'
p3699
g57
(g58
g59
NtRp3700
(dp3701
g62
(dp3702
sg64
(lp3703
g57
(g66
g59
NtRp3704
(dp3705
g62
(dp3706
g70
I5
ssg71
Nsg64
(lp3707
g57
(g73
g59
NtRp3708
(dp3709
g62
(dp3710
sg71
g3704
sg64
(lp3711
g57
(g78
g59
NtRp3712
(dp3713
g62
(dp3714
g82
g83
ssg71
g3708
sg64
(lp3715
g181
asbag57
(g78
g59
NtRp3716
(dp3717
g62
(dp3718
g89
g90
ssg71
g3708
sg64
(lp3719
S':'
asbag57
(g78
g59
NtRp3720
(dp3721
g62
(dp3722
sg71
g3708
sg64
(lp3723
g57
(g58
g59
NtRp3724
(dp3725
g62
(dp3726
g70
I5
ssg71
g3720
sg64
(lp3727
S'<cStringIO.StringO object at 0xa1fdb00>'
p3728
asbasbasbag57
(g73
g59
NtRp3729
(dp3730
g62
(dp3731
sg71
g3704
sg64
(lp3732
g57
(g78
g59
NtRp3733
(dp3734
g62
(dp3735
g82
g83
ssg71
g3729
sg64
(lp3736
g269
asbag57
(g78
g59
NtRp3737
(dp3738
g62
(dp3739
g89
g90
ssg71
g3729
sg64
(lp3740
S':'
asbag57
(g78
g59
NtRp3741
(dp3742
g62
(dp3743
sg71
g3729
sg64
(lp3744
g57
(g58
g59
NtRp3745
(dp3746
g62
(dp3747
g70
I5
ssg71
g3741
sg64
(lp3748
g57
(g66
g59
NtRp3749
(dp3750
g62
(dp3751
g70
I4
ssg71
Nsg64
(lp3752
g57
(g73
g59
NtRp3753
(dp3754
g62
(dp3755
sg71
g3749
sg64
(lp3756
g57
(g78
g59
NtRp3757
(dp3758
g62
(dp3759
g82
g83
ssg71
g3753
sg64
(lp3760
S'session_id_sicoin'
p3761
asbag57
(g78
g59
NtRp3762
(dp3763
g62
(dp3764
g89
g90
ssg71
g3753
sg64
(lp3765
S':'
asbag57
(g78
g59
NtRp3766
(dp3767
g62
(dp3768
sg71
g3753
sg64
(lp3769
g57
(g58
g59
NtRp3770
(dp3771
g62
(dp3772
g70
I4
ssg71
g3766
sg64
(lp3773
g501
ag57
(g66
g59
NtRp3774
(dp3775
g62
(dp3776
g70
I3
ssg71
Nsg64
(lp3777
g57
(g73
g59
NtRp3778
(dp3779
g62
(dp3780
sg71
g3774
sg64
(lp3781
g57
(g78
g59
NtRp3782
(dp3783
g62
(dp3784
g82
g83
ssg71
g3778
sg64
(lp3785
g320
asbag57
(g78
g59
NtRp3786
(dp3787
g62
(dp3788
g89
g90
ssg71
g3778
sg64
(lp3789
S':'
asbag57
(g78
g59
NtRp3790
(dp3791
g62
(dp3792
sg71
g3778
sg64
(lp3793
g57
(g58
g59
NtRp3794
(dp3795
g62
(dp3796
g70
I3
ssg71
g3790
sg64
(lp3797
S''
asbasbasbag57
(g73
g59
NtRp3798
(dp3799
g62
(dp3800
sg71
g3774
sg64
(lp3801
g57
(g78
g59
NtRp3802
(dp3803
g62
(dp3804
g82
g83
ssg71
g3798
sg64
(lp3805
g341
asbag57
(g78
g59
NtRp3806
(dp3807
g62
(dp3808
g89
g90
ssg71
g3798
sg64
(lp3809
S':'
asbag57
(g78
g59
NtRp3810
(dp3811
g62
(dp3812
sg71
g3798
sg64
(lp3813
g57
(g58
g59
NtRp3814
(dp3815
g62
(dp3816
g70
I3
ssg71
g3810
sg64
(lp3817
S''
asbasbasbag57
(g73
g59
NtRp3818
(dp3819
g62
(dp3820
sg71
g3774
sg64
(lp3821
g57
(g78
g59
NtRp3822
(dp3823
g62
(dp3824
g82
g83
ssg71
g3818
sg64
(lp3825
g362
asbag57
(g78
g59
NtRp3826
(dp3827
g62
(dp3828
g89
g90
ssg71
g3818
sg64
(lp3829
S':'
asbag57
(g78
g59
NtRp3830
(dp3831
g62
(dp3832
sg71
g3818
sg64
(lp3833
g57
(g58
g59
NtRp3834
(dp3835
g62
(dp3836
g70
I3
ssg71
g3830
sg64
(lp3837
S''
asbasbasbag57
(g73
g59
NtRp3838
(dp3839
g62
(dp3840
sg71
g3774
sg64
(lp3841
g57
(g78
g59
NtRp3842
(dp3843
g62
(dp3844
g82
g83
ssg71
g3838
sg64
(lp3845
g383
asbag57
(g78
g59
NtRp3846
(dp3847
g62
(dp3848
g89
g90
ssg71
g3838
sg64
(lp3849
S':'
asbag57
(g78
g59
NtRp3850
(dp3851
g62
(dp3852
sg71
g3838
sg64
(lp3853
g57
(g58
g59
NtRp3854
(dp3855
g62
(dp3856
g70
I3
ssg71
g3850
sg64
(lp3857
S''
asbasbasbag57
(g73
g59
NtRp3858
(dp3859
g62
(dp3860
sg71
g3774
sg64
(lp3861
g57
(g78
g59
NtRp3862
(dp3863
g62
(dp3864
g82
g83
ssg71
g3858
sg64
(lp3865
g404
asbag57
(g78
g59
NtRp3866
(dp3867
g62
(dp3868
g89
g90
ssg71
g3858
sg64
(lp3869
S':'
asbag57
(g78
g59
NtRp3870
(dp3871
g62
(dp3872
sg71
g3858
sg64
(lp3873
g57
(g58
g59
NtRp3874
(dp3875
g62
(dp3876
g70
I3
ssg71
g3870
sg64
(lp3877
S''
asbasbasbag57
(g73
g59
NtRp3878
(dp3879
g62
(dp3880
sg71
g3774
sg64
(lp3881
g57
(g78
g59
NtRp3882
(dp3883
g62
(dp3884
g82
g83
ssg71
g3878
sg64
(lp3885
g425
asbag57
(g78
g59
NtRp3886
(dp3887
g62
(dp3888
g89
g90
ssg71
g3878
sg64
(lp3889
S':'
asbag57
(g78
g59
NtRp3890
(dp3891
g62
(dp3892
sg71
g3878
sg64
(lp3893
g57
(g58
g59
NtRp3894
(dp3895
g62
(dp3896
g70
I3
ssg71
g3890
sg64
(lp3897
S'/'
asbasbasbag57
(g73
g59
NtRp3898
(dp3899
g62
(dp3900
sg71
g3774
sg64
(lp3901
g57
(g78
g59
NtRp3902
(dp3903
g62
(dp3904
g82
g83
ssg71
g3898
sg64
(lp3905
g446
asbag57
(g78
g59
NtRp3906
(dp3907
g62
(dp3908
g89
g90
ssg71
g3898
sg64
(lp3909
S':'
asbag57
(g78
g59
NtRp3910
(dp3911
g62
(dp3912
sg71
g3898
sg64
(lp3913
g57
(g58
g59
NtRp3914
(dp3915
g62
(dp3916
g70
I3
ssg71
g3910
sg64
(lp3917
S''
asbasbasbag57
(g73
g59
NtRp3918
(dp3919
g62
(dp3920
sg71
g3774
sg64
(lp3921
g57
(g78
g59
NtRp3922
(dp3923
g62
(dp3924
g82
g83
ssg71
g3918
sg64
(lp3925
g467
asbag57
(g78
g59
NtRp3926
(dp3927
g62
(dp3928
g89
g90
ssg71
g3918
sg64
(lp3929
S':'
asbag57
(g78
g59
NtRp3930
(dp3931
g62
(dp3932
sg71
g3918
sg64
(lp3933
g57
(g58
g59
NtRp3934
(dp3935
g62
(dp3936
g70
I3
ssg71
g3930
sg64
(lp3937
S''
asbasbasbasbasbasbasbasbasbasbasbag57
(g73
g59
NtRp3938
(dp3939
g62
(dp3940
sg71
g3704
sg64
(lp3941
g57
(g78
g59
NtRp3942
(dp3943
g62
(dp3944
g82
g83
ssg71
g3938
sg64
(lp3945
S'delimiters'
p3946
asbag57
(g78
g59
NtRp3947
(dp3948
g62
(dp3949
g89
g90
ssg71
g3938
sg64
(lp3950
S':'
asbag57
(g78
g59
NtRp3951
(dp3952
g62
(dp3953
sg71
g3938
sg64
(lp3954
g57
(g58
g59
NtRp3955
(dp3956
g62
(dp3957
g70
I5
ssg71
g3951
sg64
(lp3958
g57
(g66
g59
NtRp3959
(dp3960
g62
(dp3961
g70
I4
ssg71
Nsg64
(lp3962
g57
(g73
g59
NtRp3963
(dp3964
g62
(dp3965
sg71
g3959
sg64
(lp3966
g57
(g78
g59
NtRp3967
(dp3968
g62
(dp3969
sg71
g3963
sg64
(lp3970
g57
(g58
g59
NtRp3971
(dp3972
g62
(dp3973
g70
I4
ssg71
g3967
sg64
(lp3974
S'{{'
p3975
asbasbasbag57
(g73
g59
NtRp3976
(dp3977
g62
(dp3978
sg71
g3959
sg64
(lp3979
g57
(g78
g59
NtRp3980
(dp3981
g62
(dp3982
sg71
g3976
sg64
(lp3983
g57
(g58
g59
NtRp3984
(dp3985
g62
(dp3986
g70
I4
ssg71
g3980
sg64
(lp3987
S'}}'
p3988
asbasbasbasbasbasbasbag57
(g73
g59
NtRp3989
(dp3990
g62
(dp3991
sg71
g3704
sg64
(lp3992
g57
(g78
g59
NtRp3993
(dp3994
g62
(dp3995
g82
g83
ssg71
g3989
sg64
(lp3996
S'files'
p3997
asbag57
(g78
g59
NtRp3998
(dp3999
g62
(dp4000
g89
g90
ssg71
g3989
sg64
(lp4001
S':'
asbag57
(g78
g59
NtRp4002
(dp4003
g62
(dp4004
sg71
g3989
sg64
(lp4005
g57
(g58
g59
NtRp4006
(dp4007
g62
(dp4008
g70
I5
ssg71
g4002
sg64
(lp4009
g57
(g66
g59
NtRp4010
(dp4011
g62
(dp4012
g70
I4
ssg71
Nsg64
(lp4013
sbasbasbasbag57
(g73
g59
NtRp4014
(dp4015
g62
(dp4016
sg71
g3704
sg64
(lp4017
g57
(g78
g59
NtRp4018
(dp4019
g62
(dp4020
g82
g83
ssg71
g4014
sg64
(lp4021
S'flash'
p4022
asbag57
(g78
g59
NtRp4023
(dp4024
g62
(dp4025
g89
g90
ssg71
g4014
sg64
(lp4026
S':'
asbag57
(g78
g59
NtRp4027
(dp4028
g62
(dp4029
sg71
g4014
sg64
(lp4030
g57
(g58
g59
NtRp4031
(dp4032
g62
(dp4033
g70
I5
ssg71
g4027
sg64
(lp4034
S''
asbasbasbag57
(g73
g59
NtRp4035
(dp4036
g62
(dp4037
sg71
g3704
sg64
(lp4038
g57
(g78
g59
NtRp4039
(dp4040
g62
(dp4041
g82
g83
ssg71
g4035
sg64
(lp4042
S'generic_patterns'
p4043
asbag57
(g78
g59
NtRp4044
(dp4045
g62
(dp4046
g89
g90
ssg71
g4035
sg64
(lp4047
S':'
asbag57
(g78
g59
NtRp4048
(dp4049
g62
(dp4050
sg71
g4035
sg64
(lp4051
g57
(g58
g59
NtRp4052
(dp4053
g62
(dp4054
g70
I5
ssg71
g4048
sg64
(lp4055
g57
(g66
g59
NtRp4056
(dp4057
g62
(dp4058
g70
I4
ssg71
Nsg64
(lp4059
g57
(g73
g59
NtRp4060
(dp4061
g62
(dp4062
sg71
g4056
sg64
(lp4063
g57
(g78
g59
NtRp4064
(dp4065
g62
(dp4066
sg71
g4060
sg64
(lp4067
g57
(g58
g59
NtRp4068
(dp4069
g62
(dp4070
g70
I4
ssg71
g4064
sg64
(lp4071
S'*'
asbasbasbasbasbasbasbag57
(g73
g59
NtRp4072
(dp4073
g62
(dp4074
sg71
g3704
sg64
(lp4075
g57
(g78
g59
NtRp4076
(dp4077
g62
(dp4078
g82
g83
ssg71
g4072
sg64
(lp4079
S'headers'
p4080
asbag57
(g78
g59
NtRp4081
(dp4082
g62
(dp4083
g89
g90
ssg71
g4072
sg64
(lp4084
S':'
asbag57
(g78
g59
NtRp4085
(dp4086
g62
(dp4087
sg71
g4072
sg64
(lp4088
g57
(g58
g59
NtRp4089
(dp4090
g62
(dp4091
g70
I5
ssg71
g4085
sg64
(lp4092
g57
(g66
g59
NtRp4093
(dp4094
g62
(dp4095
g70
I4
ssg71
Nsg64
(lp4096
g57
(g73
g59
NtRp4097
(dp4098
g62
(dp4099
sg71
g4093
sg64
(lp4100
g57
(g78
g59
NtRp4101
(dp4102
g62
(dp4103
g82
g83
ssg71
g4097
sg64
(lp4104
S'X-Powered-By'
p4105
asbag57
(g78
g59
NtRp4106
(dp4107
g62
(dp4108
g89
g90
ssg71
g4097
sg64
(lp4109
S':'
asbag57
(g78
g59
NtRp4110
(dp4111
g62
(dp4112
sg71
g4097
sg64
(lp4113
g57
(g58
g59
NtRp4114
(dp4115
g62
(dp4116
g70
I4
ssg71
g4110
sg64
(lp4117
S'web2py'
p4118
asbasbasbasbasbasbasbag57
(g73
g59
NtRp4119
(dp4120
g62
(dp4121
sg71
g3704
sg64
(lp4122
g57
(g78
g59
NtRp4123
(dp4124
g62
(dp4125
g82
g83
ssg71
g4119
sg64
(lp4126
S'menu'
p4127
asbag57
(g78
g59
NtRp4128
(dp4129
g62
(dp4130
g89
g90
ssg71
g4119
sg64
(lp4131
S':'
asbag57
(g78
g59
NtRp4132
(dp4133
g62
(dp4134
sg71
g4119
sg64
(lp4135
g57
(g58
g59
NtRp4136
(dp4137
g62
(dp4138
g70
I5
ssg71
g4132
sg64
(lp4139
g57
(g66
g59
NtRp4140
(dp4141
g62
(dp4142
g70
I4
ssg71
Nsg64
(lp4143
g57
(g73
g59
NtRp4144
(dp4145
g62
(dp4146
sg71
g4140
sg64
(lp4147
g57
(g78
g59
NtRp4148
(dp4149
g62
(dp4150
sg71
g4144
sg64
(lp4151
g57
(g58
g59
NtRp4152
(dp4153
g62
(dp4154
g70
I4
ssg71
g4148
sg64
(lp4155
g57
(g66
g59
NtRp4156
(dp4157
g62
(dp4158
g70
I3
ssg71
Nsg64
(lp4159
g57
(g73
g59
NtRp4160
(dp4161
g62
(dp4162
sg71
g4156
sg64
(lp4163
g57
(g78
g59
NtRp4164
(dp4165
g62
(dp4166
sg71
g4160
sg64
(lp4167
g57
(g58
g59
NtRp4168
(dp4169
g62
(dp4170
g70
I3
ssg71
g4164
sg64
(lp4171
cgluon.languages
lazyT_unpickle
p4172
(S's\x06\x00\x00\x00Indice'
tRp4173
asbasbasbag57
(g73
g59
NtRp4174
(dp4175
g62
(dp4176
sg71
g4156
sg64
(lp4177
g57
(g78
g59
NtRp4178
(dp4179
g62
(dp4180
sg71
g4174
sg64
(lp4181
g57
(g58
g59
NtRp4182
(dp4183
g62
(dp4184
g70
I3
ssg71
g4178
sg64
(lp4185
g100
asbasbasbag57
(g73
g59
NtRp4186
(dp4187
g62
(dp4188
sg71
g4156
sg64
(lp4189
g57
(g78
g59
NtRp4190
(dp4191
g62
(dp4192
sg71
g4186
sg64
(lp4193
g57
(g58
g59
NtRp4194
(dp4195
g62
(dp4196
g70
I3
ssg71
g4190
sg64
(lp4197
S'/sicoin/default/index'
p4198
asbasbasbag57
(g73
g59
NtRp4199
(dp4200
g62
(dp4201
sg71
g4156
sg64
(lp4202
g57
(g78
g59
NtRp4203
(dp4204
g62
(dp4205
sg71
g4199
sg64
(lp4206
g57
(g58
g59
NtRp4207
(dp4208
g62
(dp4209
g70
I3
ssg71
g4203
sg64
(lp4210
g57
(g66
g59
NtRp4211
(dp4212
g62
(dp4213
g70
I2
ssg71
Nsg64
(lp4214
sbasbasbasbasbasbasbasbag57
(g73
g59
NtRp4215
(dp4216
g62
(dp4217
sg71
g4140
sg64
(lp4218
g57
(g78
g59
NtRp4219
(dp4220
g62
(dp4221
sg71
g4215
sg64
(lp4222
g57
(g58
g59
NtRp4223
(dp4224
g62
(dp4225
g70
I4
ssg71
g4219
sg64
(lp4226
g57
(g66
g59
NtRp4227
(dp4228
g62
(dp4229
g70
I3
ssg71
Nsg64
(lp4230
g57
(g73
g59
NtRp4231
(dp4232
g62
(dp4233
sg71
g4227
sg64
(lp4234
g57
(g78
g59
NtRp4235
(dp4236
g62
(dp4237
sg71
g4231
sg64
(lp4238
g57
(g58
g59
NtRp4239
(dp4240
g62
(dp4241
g70
I3
ssg71
g4235
sg64
(lp4242
S'Correspondencias'
p4243
asbasbasbag57
(g73
g59
NtRp4244
(dp4245
g62
(dp4246
sg71
g4227
sg64
(lp4247
g57
(g78
g59
NtRp4248
(dp4249
g62
(dp4250
sg71
g4244
sg64
(lp4251
g57
(g58
g59
NtRp4252
(dp4253
g62
(dp4254
g70
I3
ssg71
g4248
sg64
(lp4255
g100
asbasbasbag57
(g73
g59
NtRp4256
(dp4257
g62
(dp4258
sg71
g4227
sg64
(lp4259
g57
(g78
g59
NtRp4260
(dp4261
g62
(dp4262
sg71
g4256
sg64
(lp4263
g57
(g58
g59
NtRp4264
(dp4265
g62
(dp4266
g70
I3
ssg71
g4260
sg64
(lp4267
S'None'
p4268
asbasbasbag57
(g73
g59
NtRp4269
(dp4270
g62
(dp4271
sg71
g4227
sg64
(lp4272
g57
(g78
g59
NtRp4273
(dp4274
g62
(dp4275
sg71
g4269
sg64
(lp4276
g57
(g58
g59
NtRp4277
(dp4278
g62
(dp4279
g70
I3
ssg71
g4273
sg64
(lp4280
g57
(g66
g59
NtRp4281
(dp4282
g62
(dp4283
g70
I2
ssg71
Nsg64
(lp4284
g57
(g73
g59
NtRp4285
(dp4286
g62
(dp4287
sg71
g4281
sg64
(lp4288
g57
(g78
g59
NtRp4289
(dp4290
g62
(dp4291
sg71
g4285
sg64
(lp4292
g57
(g58
g59
NtRp4293
(dp4294
g62
(dp4295
g70
I2
ssg71
g4289
sg64
(lp4296
g57
(g66
g59
NtRp4297
(dp4298
g62
(dp4299
g70
I1
ssg71
Nsg64
(lp4300
g57
(g73
g59
NtRp4301
(dp4302
g62
(dp4303
sg71
g4297
sg64
(lp4304
g57
(g78
g59
NtRp4305
(dp4306
g62
(dp4307
sg71
g4301
sg64
(lp4308
g57
(g58
g59
NtRp4309
(dp4310
g62
(dp4311
g70
I1
ssg71
g4305
sg64
(lp4312
S'Listar Correspondencias'
p4313
asbasbasbag57
(g73
g59
NtRp4314
(dp4315
g62
(dp4316
sg71
g4297
sg64
(lp4317
g57
(g78
g59
NtRp4318
(dp4319
g62
(dp4320
sg71
g4314
sg64
(lp4321
g57
(g58
g59
NtRp4322
(dp4323
g62
(dp4324
g70
I1
ssg71
g4318
sg64
(lp4325
I00
asbasbasbag57
(g73
g59
NtRp4326
(dp4327
g62
(dp4328
sg71
g4297
sg64
(lp4329
g57
(g78
g59
NtRp4330
(dp4331
g62
(dp4332
sg71
g4326
sg64
(lp4333
g57
(g58
g59
NtRp4334
(dp4335
g62
(dp4336
g70
I1
ssg71
g4330
sg64
(lp4337
S'/sicoin/correspondencia/listar_correspondencias'
p4338
asbasbasbasbasbasbasbag57
(g73
g59
NtRp4339
(dp4340
g62
(dp4341
sg71
g4281
sg64
(lp4342
g57
(g78
g59
NtRp4343
(dp4344
g62
(dp4345
sg71
g4339
sg64
(lp4346
g57
(g58
g59
NtRp4347
(dp4348
g62
(dp4349
g70
I2
ssg71
g4343
sg64
(lp4350
g57
(g66
g59
NtRp4351
(dp4352
g62
(dp4353
g70
I1
ssg71
Nsg64
(lp4354
g57
(g73
g59
NtRp4355
(dp4356
g62
(dp4357
sg71
g4351
sg64
(lp4358
g57
(g78
g59
NtRp4359
(dp4360
g62
(dp4361
sg71
g4355
sg64
(lp4362
g57
(g58
g59
NtRp4363
(dp4364
g62
(dp4365
g70
I1
ssg71
g4359
sg64
(lp4366
S'Listar Movimientos'
p4367
asbasbasbag57
(g73
g59
NtRp4368
(dp4369
g62
(dp4370
sg71
g4351
sg64
(lp4371
g57
(g78
g59
NtRp4372
(dp4373
g62
(dp4374
sg71
g4368
sg64
(lp4375
g57
(g58
g59
NtRp4376
(dp4377
g62
(dp4378
g70
I1
ssg71
g4372
sg64
(lp4379
I00
asbasbasbag57
(g73
g59
NtRp4380
(dp4381
g62
(dp4382
sg71
g4351
sg64
(lp4383
g57
(g78
g59
NtRp4384
(dp4385
g62
(dp4386
sg71
g4380
sg64
(lp4387
g57
(g58
g59
NtRp4388
(dp4389
g62
(dp4390
g70
I1
ssg71
g4384
sg64
(lp4391
S'/sicoin/correspondencia/listar_movimientos'
p4392
asbasbasbasbasbasbasbasbasbasbasbasbasbasbasbag57
(g73
g59
NtRp4393
(dp4394
g62
(dp4395
sg71
g4140
sg64
(lp4396
g57
(g78
g59
NtRp4397
(dp4398
g62
(dp4399
sg71
g4393
sg64
(lp4400
g57
(g58
g59
NtRp4401
(dp4402
g62
(dp4403
g70
I4
ssg71
g4397
sg64
(lp4404
g57
(g66
g59
NtRp4405
(dp4406
g62
(dp4407
g70
I3
ssg71
Nsg64
(lp4408
g57
(g73
g59
NtRp4409
(dp4410
g62
(dp4411
sg71
g4405
sg64
(lp4412
g57
(g78
g59
NtRp4413
(dp4414
g62
(dp4415
sg71
g4409
sg64
(lp4416
g57
(g58
g59
NtRp4417
(dp4418
g62
(dp4419
g70
I3
ssg71
g4413
sg64
(lp4420
S'Configuraci\xc3\xb3n'
p4421
asbasbasbag57
(g73
g59
NtRp4422
(dp4423
g62
(dp4424
sg71
g4405
sg64
(lp4425
g57
(g78
g59
NtRp4426
(dp4427
g62
(dp4428
sg71
g4422
sg64
(lp4429
g57
(g58
g59
NtRp4430
(dp4431
g62
(dp4432
g70
I3
ssg71
g4426
sg64
(lp4433
g100
asbasbasbag57
(g73
g59
NtRp4434
(dp4435
g62
(dp4436
sg71
g4405
sg64
(lp4437
g57
(g78
g59
NtRp4438
(dp4439
g62
(dp4440
sg71
g4434
sg64
(lp4441
g57
(g58
g59
NtRp4442
(dp4443
g62
(dp4444
g70
I3
ssg71
g4438
sg64
(lp4445
S'None'
p4446
asbasbasbag57
(g73
g59
NtRp4447
(dp4448
g62
(dp4449
sg71
g4405
sg64
(lp4450
g57
(g78
g59
NtRp4451
(dp4452
g62
(dp4453
sg71
g4447
sg64
(lp4454
g57
(g58
g59
NtRp4455
(dp4456
g62
(dp4457
g70
I3
ssg71
g4451
sg64
(lp4458
g57
(g66
g59
NtRp4459
(dp4460
g62
(dp4461
g70
I2
ssg71
Nsg64
(lp4462
g57
(g73
g59
NtRp4463
(dp4464
g62
(dp4465
sg71
g4459
sg64
(lp4466
g57
(g78
g59
NtRp4467
(dp4468
g62
(dp4469
sg71
g4463
sg64
(lp4470
g57
(g58
g59
NtRp4471
(dp4472
g62
(dp4473
g70
I2
ssg71
g4467
sg64
(lp4474
g57
(g66
g59
NtRp4475
(dp4476
g62
(dp4477
g70
I1
ssg71
Nsg64
(lp4478
g57
(g73
g59
NtRp4479
(dp4480
g62
(dp4481
sg71
g4475
sg64
(lp4482
g57
(g78
g59
NtRp4483
(dp4484
g62
(dp4485
sg71
g4479
sg64
(lp4486
g57
(g58
g59
NtRp4487
(dp4488
g62
(dp4489
g70
I1
ssg71
g4483
sg64
(lp4490
S'Dependencias'
p4491
asbasbasbag57
(g73
g59
NtRp4492
(dp4493
g62
(dp4494
sg71
g4475
sg64
(lp4495
g57
(g78
g59
NtRp4496
(dp4497
g62
(dp4498
sg71
g4492
sg64
(lp4499
g57
(g58
g59
NtRp4500
(dp4501
g62
(dp4502
g70
I1
ssg71
g4496
sg64
(lp4503
I00
asbasbasbag57
(g73
g59
NtRp4504
(dp4505
g62
(dp4506
sg71
g4475
sg64
(lp4507
g57
(g78
g59
NtRp4508
(dp4509
g62
(dp4510
sg71
g4504
sg64
(lp4511
g57
(g58
g59
NtRp4512
(dp4513
g62
(dp4514
g70
I1
ssg71
g4508
sg64
(lp4515
S'/sicoin/configuracion/listar_dependencias'
p4516
asbasbasbasbasbasbasbag57
(g73
g59
NtRp4517
(dp4518
g62
(dp4519
sg71
g4459
sg64
(lp4520
g57
(g78
g59
NtRp4521
(dp4522
g62
(dp4523
sg71
g4517
sg64
(lp4524
g57
(g58
g59
NtRp4525
(dp4526
g62
(dp4527
g70
I2
ssg71
g4521
sg64
(lp4528
g57
(g66
g59
NtRp4529
(dp4530
g62
(dp4531
g70
I1
ssg71
Nsg64
(lp4532
g57
(g73
g59
NtRp4533
(dp4534
g62
(dp4535
sg71
g4529
sg64
(lp4536
g57
(g78
g59
NtRp4537
(dp4538
g62
(dp4539
sg71
g4533
sg64
(lp4540
g57
(g58
g59
NtRp4541
(dp4542
g62
(dp4543
g70
I1
ssg71
g4537
sg64
(lp4544
S'Departamentos'
p4545
asbasbasbag57
(g73
g59
NtRp4546
(dp4547
g62
(dp4548
sg71
g4529
sg64
(lp4549
g57
(g78
g59
NtRp4550
(dp4551
g62
(dp4552
sg71
g4546
sg64
(lp4553
g57
(g58
g59
NtRp4554
(dp4555
g62
(dp4556
g70
I1
ssg71
g4550
sg64
(lp4557
I00
asbasbasbag57
(g73
g59
NtRp4558
(dp4559
g62
(dp4560
sg71
g4529
sg64
(lp4561
g57
(g78
g59
NtRp4562
(dp4563
g62
(dp4564
sg71
g4558
sg64
(lp4565
g57
(g58
g59
NtRp4566
(dp4567
g62
(dp4568
g70
I1
ssg71
g4562
sg64
(lp4569
S'/sicoin/configuracion/listar_departamentos'
p4570
asbasbasbasbasbasbasbag57
(g73
g59
NtRp4571
(dp4572
g62
(dp4573
sg71
g4459
sg64
(lp4574
g57
(g78
g59
NtRp4575
(dp4576
g62
(dp4577
sg71
g4571
sg64
(lp4578
g57
(g58
g59
NtRp4579
(dp4580
g62
(dp4581
g70
I2
ssg71
g4575
sg64
(lp4582
g57
(g66
g59
NtRp4583
(dp4584
g62
(dp4585
g70
I1
ssg71
Nsg64
(lp4586
g57
(g73
g59
NtRp4587
(dp4588
g62
(dp4589
sg71
g4583
sg64
(lp4590
g57
(g78
g59
NtRp4591
(dp4592
g62
(dp4593
sg71
g4587
sg64
(lp4594
g57
(g58
g59
NtRp4595
(dp4596
g62
(dp4597
g70
I1
ssg71
g4591
sg64
(lp4598
S'Estatus'
p4599
asbasbasbag57
(g73
g59
NtRp4600
(dp4601
g62
(dp4602
sg71
g4583
sg64
(lp4603
g57
(g78
g59
NtRp4604
(dp4605
g62
(dp4606
sg71
g4600
sg64
(lp4607
g57
(g58
g59
NtRp4608
(dp4609
g62
(dp4610
g70
I1
ssg71
g4604
sg64
(lp4611
I00
asbasbasbag57
(g73
g59
NtRp4612
(dp4613
g62
(dp4614
sg71
g4583
sg64
(lp4615
g57
(g78
g59
NtRp4616
(dp4617
g62
(dp4618
sg71
g4612
sg64
(lp4619
g57
(g58
g59
NtRp4620
(dp4621
g62
(dp4622
g70
I1
ssg71
g4616
sg64
(lp4623
S'/sicoin/configuracion/listar_estatus'
p4624
asbasbasbasbasbasbasbag57
(g73
g59
NtRp4625
(dp4626
g62
(dp4627
sg71
g4459
sg64
(lp4628
g57
(g78
g59
NtRp4629
(dp4630
g62
(dp4631
sg71
g4625
sg64
(lp4632
g57
(g58
g59
NtRp4633
(dp4634
g62
(dp4635
g70
I2
ssg71
g4629
sg64
(lp4636
g57
(g66
g59
NtRp4637
(dp4638
g62
(dp4639
g70
I1
ssg71
Nsg64
(lp4640
g57
(g73
g59
NtRp4641
(dp4642
g62
(dp4643
sg71
g4637
sg64
(lp4644
g57
(g78
g59
NtRp4645
(dp4646
g62
(dp4647
sg71
g4641
sg64
(lp4648
g57
(g58
g59
NtRp4649
(dp4650
g62
(dp4651
g70
I1
ssg71
g4645
sg64
(lp4652
S'Tipo de Documentos'
p4653
asbasbasbag57
(g73
g59
NtRp4654
(dp4655
g62
(dp4656
sg71
g4637
sg64
(lp4657
g57
(g78
g59
NtRp4658
(dp4659
g62
(dp4660
sg71
g4654
sg64
(lp4661
g57
(g58
g59
NtRp4662
(dp4663
g62
(dp4664
g70
I1
ssg71
g4658
sg64
(lp4665
I00
asbasbasbag57
(g73
g59
NtRp4666
(dp4667
g62
(dp4668
sg71
g4637
sg64
(lp4669
g57
(g78
g59
NtRp4670
(dp4671
g62
(dp4672
sg71
g4666
sg64
(lp4673
g57
(g58
g59
NtRp4674
(dp4675
g62
(dp4676
g70
I1
ssg71
g4670
sg64
(lp4677
S'/sicoin/configuracion/listar_documentos'
p4678
asbasbasbasbasbasbasbag57
(g73
g59
NtRp4679
(dp4680
g62
(dp4681
sg71
g4459
sg64
(lp4682
g57
(g78
g59
NtRp4683
(dp4684
g62
(dp4685
sg71
g4679
sg64
(lp4686
g57
(g58
g59
NtRp4687
(dp4688
g62
(dp4689
g70
I2
ssg71
g4683
sg64
(lp4690
g57
(g66
g59
NtRp4691
(dp4692
g62
(dp4693
g70
I1
ssg71
Nsg64
(lp4694
g57
(g73
g59
NtRp4695
(dp4696
g62
(dp4697
sg71
g4691
sg64
(lp4698
g57
(g78
g59
NtRp4699
(dp4700
g62
(dp4701
sg71
g4695
sg64
(lp4702
g57
(g58
g59
NtRp4703
(dp4704
g62
(dp4705
g70
I1
ssg71
g4699
sg64
(lp4706
S'Asignaci\xc3\xb3n de Usuarios'
p4707
asbasbasbag57
(g73
g59
NtRp4708
(dp4709
g62
(dp4710
sg71
g4691
sg64
(lp4711
g57
(g78
g59
NtRp4712
(dp4713
g62
(dp4714
sg71
g4708
sg64
(lp4715
g57
(g58
g59
NtRp4716
(dp4717
g62
(dp4718
g70
I1
ssg71
g4712
sg64
(lp4719
I00
asbasbasbag57
(g73
g59
NtRp4720
(dp4721
g62
(dp4722
sg71
g4691
sg64
(lp4723
g57
(g78
g59
NtRp4724
(dp4725
g62
(dp4726
sg71
g4720
sg64
(lp4727
g57
(g58
g59
NtRp4728
(dp4729
g62
(dp4730
g70
I1
ssg71
g4724
sg64
(lp4731
S'/sicoin/configuracion/listar_usuarios'
p4732
asbasbasbasbasbasbasbasbasbasbasbasbasbasbasbasbasbasbasbag57
(g73
g59
NtRp4733
(dp4734
g62
(dp4735
sg71
g3704
sg64
(lp4736
g57
(g78
g59
NtRp4737
(dp4738
g62
(dp4739
g82
g83
ssg71
g4733
sg64
(lp4740
S'meta'
p4741
asbag57
(g78
g59
NtRp4742
(dp4743
g62
(dp4744
g89
g90
ssg71
g4733
sg64
(lp4745
S':'
asbag57
(g78
g59
NtRp4746
(dp4747
g62
(dp4748
sg71
g4733
sg64
(lp4749
g57
(g58
g59
NtRp4750
(dp4751
g62
(dp4752
g70
I5
ssg71
g4746
sg64
(lp4753
g57
(g66
g59
NtRp4754
(dp4755
g62
(dp4756
g70
I4
ssg71
Nsg64
(lp4757
g57
(g73
g59
NtRp4758
(dp4759
g62
(dp4760
sg71
g4754
sg64
(lp4761
g57
(g78
g59
NtRp4762
(dp4763
g62
(dp4764
g82
g83
ssg71
g4758
sg64
(lp4765
S'author'
p4766
asbag57
(g78
g59
NtRp4767
(dp4768
g62
(dp4769
g89
g90
ssg71
g4758
sg64
(lp4770
S':'
asbag57
(g78
g59
NtRp4771
(dp4772
g62
(dp4773
sg71
g4758
sg64
(lp4774
g57
(g58
g59
NtRp4775
(dp4776
g62
(dp4777
g70
I4
ssg71
g4771
sg64
(lp4778
S'TIC - FIPU <perdomor@ucv.ve>'
p4779
asbasbasbag57
(g73
g59
NtRp4780
(dp4781
g62
(dp4782
sg71
g4754
sg64
(lp4783
g57
(g78
g59
NtRp4784
(dp4785
g62
(dp4786
g82
g83
ssg71
g4780
sg64
(lp4787
S'description'
p4788
asbag57
(g78
g59
NtRp4789
(dp4790
g62
(dp4791
g89
g90
ssg71
g4780
sg64
(lp4792
S':'
asbag57
(g78
g59
NtRp4793
(dp4794
g62
(dp4795
sg71
g4780
sg64
(lp4796
g57
(g58
g59
NtRp4797
(dp4798
g62
(dp4799
g70
I4
ssg71
g4793
sg64
(lp4800
S''
asbasbasbag57
(g73
g59
NtRp4801
(dp4802
g62
(dp4803
sg71
g4754
sg64
(lp4804
g57
(g78
g59
NtRp4805
(dp4806
g62
(dp4807
g82
g83
ssg71
g4801
sg64
(lp4808
S'keywords'
p4809
asbag57
(g78
g59
NtRp4810
(dp4811
g62
(dp4812
g89
g90
ssg71
g4801
sg64
(lp4813
S':'
asbag57
(g78
g59
NtRp4814
(dp4815
g62
(dp4816
sg71
g4801
sg64
(lp4817
g57
(g58
g59
NtRp4818
(dp4819
g62
(dp4820
g70
I4
ssg71
g4814
sg64
(lp4821
S''
asbasbasbasbasbasbasbag57
(g73
g59
NtRp4822
(dp4823
g62
(dp4824
sg71
g3704
sg64
(lp4825
g57
(g78
g59
NtRp4826
(dp4827
g62
(dp4828
g82
g83
ssg71
g4822
sg64
(lp4829
S'models_to_run'
p4830
asbag57
(g78
g59
NtRp4831
(dp4832
g62
(dp4833
g89
g90
ssg71
g4822
sg64
(lp4834
S':'
asbag57
(g78
g59
NtRp4835
(dp4836
g62
(dp4837
sg71
g4822
sg64
(lp4838
g57
(g58
g59
NtRp4839
(dp4840
g62
(dp4841
g70
I5
ssg71
g4835
sg64
(lp4842
g57
(g66
g59
NtRp4843
(dp4844
g62
(dp4845
g70
I4
ssg71
Nsg64
(lp4846
g57
(g73
g59
NtRp4847
(dp4848
g62
(dp4849
sg71
g4843
sg64
(lp4850
g57
(g78
g59
NtRp4851
(dp4852
g62
(dp4853
sg71
g4847
sg64
(lp4854
g57
(g58
g59
NtRp4855
(dp4856
g62
(dp4857
g70
I4
ssg71
g4851
sg64
(lp4858
S'^\\w+\\.py$'
p4859
asbasbasbag57
(g73
g59
NtRp4860
(dp4861
g62
(dp4862
sg71
g4843
sg64
(lp4863
g57
(g78
g59
NtRp4864
(dp4865
g62
(dp4866
sg71
g4860
sg64
(lp4867
g57
(g58
g59
NtRp4868
(dp4869
g62
(dp4870
g70
I4
ssg71
g4864
sg64
(lp4871
S'^correspondencia/\\w+\\.py$'
p4872
asbasbasbag57
(g73
g59
NtRp4873
(dp4874
g62
(dp4875
sg71
g4843
sg64
(lp4876
g57
(g78
g59
NtRp4877
(dp4878
g62
(dp4879
sg71
g4873
sg64
(lp4880
g57
(g58
g59
NtRp4881
(dp4882
g62
(dp4883
g70
I4
ssg71
g4877
sg64
(lp4884
S'^correspondencia/ver_correspondencia/\\w+\\.py$'
p4885
asbasbasbasbasbasbasbag57
(g73
g59
NtRp4886
(dp4887
g62
(dp4888
sg71
g3704
sg64
(lp4889
g57
(g78
g59
NtRp4890
(dp4891
g62
(dp4892
g82
g83
ssg71
g4886
sg64
(lp4893
S'postprocessing'
p4894
asbag57
(g78
g59
NtRp4895
(dp4896
g62
(dp4897
g89
g90
ssg71
g4886
sg64
(lp4898
S':'
asbag57
(g78
g59
NtRp4899
(dp4900
g62
(dp4901
sg71
g4886
sg64
(lp4902
g57
(g58
g59
NtRp4903
(dp4904
g62
(dp4905
g70
I5
ssg71
g4899
sg64
(lp4906
g57
(g66
g59
NtRp4907
(dp4908
g62
(dp4909
g70
I4
ssg71
Nsg64
(lp4910
sbasbasbasbag57
(g73
g59
NtRp4911
(dp4912
g62
(dp4913
sg71
g3704
sg64
(lp4914
g57
(g78
g59
NtRp4915
(dp4916
g62
(dp4917
g82
g83
ssg71
g4911
sg64
(lp4918
S'session_file'
p4919
asbag57
(g78
g59
NtRp4920
(dp4921
g62
(dp4922
g89
g90
ssg71
g4911
sg64
(lp4923
S':'
asbag57
(g78
g59
NtRp4924
(dp4925
g62
(dp4926
sg71
g4911
sg64
(lp4927
g57
(g58
g59
NtRp4928
(dp4929
g62
(dp4930
g70
I5
ssg71
g4924
sg64
(lp4931
S"<open file '/home/perdomor/web2py/applications/sicoin/sessions/190.169.221.43-4bf54bc6-bde9-44cd-9e28-66aa110b1858', mode 'rb+' at 0x9eaa5f8>"
p4932
asbasbasbag57
(g73
g59
NtRp4933
(dp4934
g62
(dp4935
sg71
g3704
sg64
(lp4936
g57
(g78
g59
NtRp4937
(dp4938
g62
(dp4939
g82
g83
ssg71
g4933
sg64
(lp4940
S'session_filename'
p4941
asbag57
(g78
g59
NtRp4942
(dp4943
g62
(dp4944
g89
g90
ssg71
g4933
sg64
(lp4945
S':'
asbag57
(g78
g59
NtRp4946
(dp4947
g62
(dp4948
sg71
g4933
sg64
(lp4949
g57
(g58
g59
NtRp4950
(dp4951
g62
(dp4952
g70
I5
ssg71
g4946
sg64
(lp4953
S'/home/perdomor/web2py/applications/sicoin/sessions/190.169.221.43-4bf54bc6-bde9-44cd-9e28-66aa110b1858'
p4954
asbasbasbag57
(g73
g59
NtRp4955
(dp4956
g62
(dp4957
sg71
g3704
sg64
(lp4958
g57
(g78
g59
NtRp4959
(dp4960
g62
(dp4961
g82
g83
ssg71
g4955
sg64
(lp4962
S'session_id'
p4963
asbag57
(g78
g59
NtRp4964
(dp4965
g62
(dp4966
g89
g90
ssg71
g4955
sg64
(lp4967
S':'
asbag57
(g78
g59
NtRp4968
(dp4969
g62
(dp4970
sg71
g4955
sg64
(lp4971
g57
(g58
g59
NtRp4972
(dp4973
g62
(dp4974
g70
I5
ssg71
g4968
sg64
(lp4975
g501
asbasbasbag57
(g73
g59
NtRp4976
(dp4977
g62
(dp4978
sg71
g3704
sg64
(lp4979
g57
(g78
g59
NtRp4980
(dp4981
g62
(dp4982
g82
g83
ssg71
g4976
sg64
(lp4983
S'session_id_name'
p4984
asbag57
(g78
g59
NtRp4985
(dp4986
g62
(dp4987
g89
g90
ssg71
g4976
sg64
(lp4988
S':'
asbag57
(g78
g59
NtRp4989
(dp4990
g62
(dp4991
sg71
g4976
sg64
(lp4992
g57
(g58
g59
NtRp4993
(dp4994
g62
(dp4995
g70
I5
ssg71
g4989
sg64
(lp4996
g3761
asbasbasbag57
(g73
g59
NtRp4997
(dp4998
g62
(dp4999
sg71
g3704
sg64
(lp5000
g57
(g78
g59
NtRp5001
(dp5002
g62
(dp5003
g82
g83
ssg71
g4997
sg64
(lp5004
S'session_locked'
p5005
asbag57
(g78
g59
NtRp5006
(dp5007
g62
(dp5008
g89
g90
ssg71
g4997
sg64
(lp5009
S':'
asbag57
(g78
g59
NtRp5010
(dp5011
g62
(dp5012
sg71
g4997
sg64
(lp5013
g57
(g58
g59
NtRp5014
(dp5015
g62
(dp5016
g70
I5
ssg71
g5010
sg64
(lp5017
g1727
asbasbasbag57
(g73
g59
NtRp5018
(dp5019
g62
(dp5020
sg71
g3704
sg64
(lp5021
g57
(g78
g59
NtRp5022
(dp5023
g62
(dp5024
g82
g83
ssg71
g5018
sg64
(lp5025
S'session_new'
p5026
asbag57
(g78
g59
NtRp5027
(dp5028
g62
(dp5029
g89
g90
ssg71
g5018
sg64
(lp5030
S':'
asbag57
(g78
g59
NtRp5031
(dp5032
g62
(dp5033
sg71
g5018
sg64
(lp5034
g57
(g58
g59
NtRp5035
(dp5036
g62
(dp5037
g70
I5
ssg71
g5031
sg64
(lp5038
g100
asbasbasbag57
(g73
g59
NtRp5039
(dp5040
g62
(dp5041
sg71
g3704
sg64
(lp5042
g57
(g78
g59
NtRp5043
(dp5044
g62
(dp5045
g82
g83
ssg71
g5039
sg64
(lp5046
S'status'
p5047
asbag57
(g78
g59
NtRp5048
(dp5049
g62
(dp5050
g89
g90
ssg71
g5039
sg64
(lp5051
S':'
asbag57
(g78
g59
NtRp5052
(dp5053
g62
(dp5054
sg71
g5039
sg64
(lp5055
g57
(g58
g59
NtRp5056
(dp5057
g62
(dp5058
g70
I5
ssg71
g5052
sg64
(lp5059
S'200'
p5060
asbasbasbag57
(g73
g59
NtRp5061
(dp5062
g62
(dp5063
sg71
g3704
sg64
(lp5064
g57
(g78
g59
NtRp5065
(dp5066
g62
(dp5067
g82
g83
ssg71
g5061
sg64
(lp5068
S'subtitle'
p5069
asbag57
(g78
g59
NtRp5070
(dp5071
g62
(dp5072
g89
g90
ssg71
g5061
sg64
(lp5073
S':'
asbag57
(g78
g59
NtRp5074
(dp5075
g62
(dp5076
sg71
g5061
sg64
(lp5077
g57
(g58
g59
NtRp5078
(dp5079
g62
(dp5080
g70
I5
ssg71
g5074
sg64
(lp5081
S'Sistema Integrado de Correspondencia Interna'
p5082
asbasbasbag57
(g73
g59
NtRp5083
(dp5084
g62
(dp5085
sg71
g3704
sg64
(lp5086
g57
(g78
g59
NtRp5087
(dp5088
g62
(dp5089
g82
g83
ssg71
g5083
sg64
(lp5090
S'title'
p5091
asbag57
(g78
g59
NtRp5092
(dp5093
g62
(dp5094
g89
g90
ssg71
g5083
sg64
(lp5095
S':'
asbag57
(g78
g59
NtRp5096
(dp5097
g62
(dp5098
sg71
g5083
sg64
(lp5099
g57
(g58
g59
NtRp5100
(dp5101
g62
(dp5102
g70
I5
ssg71
g5096
sg64
(lp5103
S'SiCoIn'
p5104
asbasbasbag57
(g73
g59
NtRp5105
(dp5106
g62
(dp5107
sg71
g3704
sg64
(lp5108
g57
(g78
g59
NtRp5109
(dp5110
g62
(dp5111
g82
g83
ssg71
g5105
sg64
(lp5112
S'view'
p5113
asbag57
(g78
g59
NtRp5114
(dp5115
g62
(dp5116
g89
g90
ssg71
g5105
sg64
(lp5117
S':'
asbag57
(g78
g59
NtRp5118
(dp5119
g62
(dp5120
sg71
g5105
sg64
(lp5121
g57
(g58
g59
NtRp5122
(dp5123
g62
(dp5124
g70
I5
ssg71
g5118
sg64
(lp5125
S'correspondencia/ver_correspondencia.html'
p5126
asbasbasbasbasbsS'locals'
p5127
(dp5128
S'correspondencia'
p5129
S"<Row {'departamento_origen': 1, 'registrado_por'...er object at 0xa0dd6ac>, 'destinatario': 'rrrr'}>"
p5130
sS'fields'
p5131
S"[['nro_de_documento', 'fecha_correspondencia'], ['tipo_de_documento', 'estatus'], 'asunto', ['departamento_origen', 'departamento_destino'], [None, None], ['remitente', 'destinatario'], [None, 'observaciones'], ['asignado_a', 'registrado_por']]"
p5132
sS'tabla'
p5133
S"'archivo'"
p5134
sS'id'
p5135
S"'50'"
p5136
sssS'traceback'
p5137
S'Traceback (most recent call last):\n  File "/home/perdomor/web2py/gluon/restricted.py", line 209, in restricted\n    exec ccode in environment\n  File "/home/perdomor/web2py/applications/sicoin/controllers/correspondencia.py", line 468, in <module>\n  File "/home/perdomor/web2py/gluon/globals.py", line 186, in <lambda>\n    self._caller = lambda f: f()\n  File "/home/perdomor/web2py/gluon/tools.py", line 2809, in f\n    return action(*a, **b)\n  File "/home/perdomor/web2py/applications/sicoin/controllers/correspondencia.py", line 122, in ver_correspondencia\n    form = SOLIDFORM(db.correspondencia_archive, correspondencia_archive, fields=fields, showid=False, readonly=True)\nNameError: global name \'correspondencia_archive\' is not defined\n'
p5138
s.